(dp1
S'output'
p2
S"<type 'exceptions.SyntaxError'> invalid syntax (default.py, line 1)"
p3
sS'layer'
p4
S'/home/pooja/web2py/applications/newsapp/controllers/default.py'
p5
sS'code'
p6
S'from oauth2 as oauth\nimport urllib,urllib2\nfrom urlparse import *\nimport json\n\ndef index():\n    return dict()\n\ndef tw_signin():\n    app = oauth.Consumer(key= "dJvGhNEaw6ivlQGals8g1mMu9", secret= "n5qBLoWVO77KHLfAUB1Z5wTYtO7ed62XmNbq52bmYjEFYdJNQi")\n    client = Client(app)\n    response, content = client.request(\'https://twitter.com/oauth/request_token\', "GET")\n    if response[\'status\'] != \'200\':\n        raise HTTP(response[\'status\']),str(content)\n    request_token = dict(parse_qsl(content))\n    session.request_token = request_token\n    redirect_location = "%s?oauth_token=%s" % (\'https://twitter.com/oauth/authenticate\', request_token[\'oauth_token\'])\n    redirect(redirect_location)\n    return\n\ndef permission():\n    if not(session.request_token is None):\n        consumer = Consumer(key=twconfig.app_key, secret= twconfig.app_secret)\n        token = None\n        try:\n            token = Token(session.request_token[\'oauth_token\'],session.request_token[\'oauth_token_secret\'])\n        except:\n            redirect(URL(r=request,c=\'default\', f=\'index\'))\n        token.set_verifier(request.vars[\'oauth_verifier\'])\n        client = Client(consumer, token)\n        response, content = client.request(\'https://twitter.com/oauth/access_token\', "POST")\n        if response[\'status\'] == \'401\':\n            BEAUTIFY("you have denied the request")\n            redirect(URL(r=request,c=\'default\', f=\'index\'))\n        if response[\'status\'] != \'200\':\n            return response[\'status\'],str(content)\n        access_token = dict(parse_qsl(content))\n        session.access_token = access_token\n        user_id = int(access_token[\'user_id\'])\n        name =(access_token[\'screen_name\'])\n        tw_status_query = """\n            INSERT IGNORE INTO  tw_details(screen_name,user_id,tw_token,tw_token_secret) VALUES (\'%s\',\'%s\',\'%s\',\'%s\')\n    ON DUPLICATE KEY UPDATE tw_token=\'%s\',tw_token_secret=\'%s\';"""%(name,user_id,session.access_token[\'oauth_token\'],session.access_token[\'oauth_token_secret\'],session.access_token[\'oauth_token\'],session.access_token[\'oauth_token_secret\'])\n    tw_status = db.executesql(tw_status_query)\n    return dict()\n\ndef get_extented_token():\n    token = request.vars.token\n    url1 = "https://graph.facebook.com/"\n    url1 += \'me?access_token=%s\'%(token)\n    details = urllib2.urlopen(url1)\n    dict_response = json.loads(details.read())\n    name = dict_response[\'name\']\n    email_id = dict_response[\'email\']\n    fb_id = dict_response[\'id\']\n    session.email_id = email_id\n    session.fb_id = fb_id\n    url = "https://graph.facebook.com/"\n    url += "oauth/access_token?client_id="+fbconfig.app_id+"&client_secret="+fbconfig.app_secret\n    url += "&grant_type=fb_exchange_token"\n    url += "&fb_exchange_token=%s"%(token)\n\n    data = urllib2.urlopen(url)\n\n    interm = data.read().split("=")\n    token = interm[1].split("&")\n    extended_token = token[0]\n    session.extended_token = extended_token\n    expires = interm[2]\n\ndef fbuser():\n    token = request.vars.token\n    url1 = "https://graph.facebook.com/"\n    url1 += \'me?access_token=%s\'%(token)\n    details = urllib2.urlopen(url1)\n    dict_response = json.loads(details.read())\n    name = dict_response[\'name\']\n    email_id = ""\n    try:\n        email_id = dict_response[\'email\']\n    except:\n        pass\n    fb_id = dict_response[\'id\']\n    url = "https://graph.facebook.com/"\n    url += "oauth/access_token?client_id="+fbconfig.app_id+"&client_secret="+fbconfig.app_secret\n    url += "&grant_type=fb_exchange_token"\n    url += "&fb_exchange_token=%s"%(token)\n\n    data = urllib2.urlopen(url)\n    interm = data.read().split("=")\n    token = interm[1].split("&")\n    extended_token = token[0]\n    session.extended_token = extended_token\n    expires = interm[2]\n    fb_status = db.executesql("""INSERT IGNORE INTO  fb_details(name,email_id,fb_id,access_token,expiry) VALUES (%s,%s,%s,%s,%s);""",(name,email_id,session.fb_id,extended_token,expires))\n    return dict()\n\nresponse._vars=response._caller(index)\n'
p7
sS'snapshot'
p8
(dp9
S'exception'
p10
(dp11
S'__getslice__'
p12
S"<method-wrapper '__getslice__' of exceptions.SyntaxError object>"
p13
sS'text'
p14
S"'from oauth2 as oauth\\n'"
p15
sS'__str__'
p16
S"<method-wrapper '__str__' of exceptions.SyntaxError object>"
p17
sS'__reduce__'
p18
S'<built-in method __reduce__ of exceptions.SyntaxError object>'
p19
sS'__dict__'
p20
S'{}'
p21
sS'__sizeof__'
p22
S'<built-in method __sizeof__ of exceptions.SyntaxError object>'
p23
sS'__init__'
p24
S"<method-wrapper '__init__' of exceptions.SyntaxError object>"
p25
sS'__setattr__'
p26
S"<method-wrapper '__setattr__' of exceptions.SyntaxError object>"
p27
sS'__reduce_ex__'
p28
S'<built-in method __reduce_ex__ of exceptions.SyntaxError object>'
p29
sS'__new__'
p30
S'<built-in method __new__ of type object>'
p31
sS'__format__'
p32
S'<built-in method __format__ of exceptions.SyntaxError object>'
p33
sS'__class__'
p34
S"<type 'exceptions.SyntaxError'>"
p35
sS'filename'
p36
S"'/home/pooja/web2py/applications/newsapp/controllers/default.py'"
p37
sS'lineno'
p38
S'1'
sS'msg'
p39
S"'invalid syntax'"
p40
sS'__doc__'
p41
S"'Invalid syntax.'"
p42
sS'__getitem__'
p43
S"<method-wrapper '__getitem__' of exceptions.SyntaxError object>"
p44
sS'__setstate__'
p45
S'<built-in method __setstate__ of exceptions.SyntaxError object>'
p46
sS'__getattribute__'
p47
S"<method-wrapper '__getattribute__' of exceptions.SyntaxError object>"
p48
sS'print_file_and_line'
p49
S'None'
p50
sS'args'
p51
S"('invalid syntax', ('/home/pooja/web2py/applications/newsapp/controllers/default.py', 1, 14, 'from oauth2 as oauth\\n'))"
p52
sS'__subclasshook__'
p53
S'<built-in method __subclasshook__ of type object>'
p54
sS'offset'
p55
S'14'
p56
sS'__unicode__'
p57
S'<built-in method __unicode__ of exceptions.SyntaxError object>'
p58
sS'__delattr__'
p59
S"<method-wrapper '__delattr__' of exceptions.SyntaxError object>"
p60
sS'__repr__'
p61
S"<method-wrapper '__repr__' of exceptions.SyntaxError object>"
p62
sS'__hash__'
p63
S"<method-wrapper '__hash__' of exceptions.SyntaxError object>"
p64
ssS'evalue'
p65
S'invalid syntax (default.py, line 1)'
p66
sS'request'
p67
ccopy_reg
_reconstructor
p68
(cgluon.html
BEAUTIFY
p69
c__builtin__
object
p70
NtRp71
(dp72
S'attributes'
p73
(dp74
sS'components'
p75
(lp76
g68
(cgluon.html
TABLE
p77
g70
NtRp78
(dp79
g73
(dp80
S'level'
p81
I5
ssS'parent'
p82
Nsg75
(lp83
g68
(cgluon.html
TR
p84
g70
NtRp85
(dp86
g73
(dp87
sg82
g78
sg75
(lp88
g68
(cgluon.html
TD
p89
g70
NtRp90
(dp91
g73
(dp92
S'_style'
p93
S'font-weight:bold;vertical-align:top'
p94
ssg82
g85
sg75
(lp95
S'ajax'
p96
asbag68
(g89
g70
NtRp97
(dp98
g73
(dp99
S'_valign'
p100
S'top'
p101
ssg82
g85
sg75
(lp102
S':'
asbag68
(g89
g70
NtRp103
(dp104
g73
(dp105
sg82
g85
sg75
(lp106
g68
(g69
g70
NtRp107
(dp108
g73
(dp109
g81
I5
ssg82
g103
sg75
(lp110
S'False'
p111
asbasbasbag68
(g84
g70
NtRp112
(dp113
g73
(dp114
sg82
g78
sg75
(lp115
g68
(g89
g70
NtRp116
(dp117
g73
(dp118
g93
g94
ssg82
g112
sg75
(lp119
S'application'
p120
asbag68
(g89
g70
NtRp121
(dp122
g73
(dp123
g100
g101
ssg82
g112
sg75
(lp124
S':'
asbag68
(g89
g70
NtRp125
(dp126
g73
(dp127
sg82
g112
sg75
(lp128
g68
(g69
g70
NtRp129
(dp130
g73
(dp131
g81
I5
ssg82
g125
sg75
(lp132
S'newsapp'
p133
asbasbasbag68
(g84
g70
NtRp134
(dp135
g73
(dp136
sg82
g78
sg75
(lp137
g68
(g89
g70
NtRp138
(dp139
g73
(dp140
g93
g94
ssg82
g134
sg75
(lp141
g51
asbag68
(g89
g70
NtRp142
(dp143
g73
(dp144
g100
g101
ssg82
g134
sg75
(lp145
S':'
asbag68
(g89
g70
NtRp146
(dp147
g73
(dp148
sg82
g134
sg75
(lp149
g68
(g69
g70
NtRp150
(dp151
g73
(dp152
g81
I5
ssg82
g146
sg75
(lp153
g68
(g77
g70
NtRp154
(dp155
g73
(dp156
g81
I4
ssg82
Nsg75
(lp157
sbasbasbasbag68
(g84
g70
NtRp158
(dp159
g73
(dp160
sg82
g78
sg75
(lp161
g68
(g89
g70
NtRp162
(dp163
g73
(dp164
g93
g94
ssg82
g158
sg75
(lp165
S'body'
p166
asbag68
(g89
g70
NtRp167
(dp168
g73
(dp169
g100
g101
ssg82
g158
sg75
(lp170
S':'
asbag68
(g89
g70
NtRp171
(dp172
g73
(dp173
sg82
g158
sg75
(lp174
g68
(g69
g70
NtRp175
(dp176
g73
(dp177
g81
I5
ssg82
g171
sg75
(lp178
S'<cStringIO.StringO object at 0x7f8ec091aa78>'
p179
asbasbasbag68
(g84
g70
NtRp180
(dp181
g73
(dp182
sg82
g78
sg75
(lp183
g68
(g89
g70
NtRp184
(dp185
g73
(dp186
g93
g94
ssg82
g180
sg75
(lp187
S'client'
p188
asbag68
(g89
g70
NtRp189
(dp190
g73
(dp191
g100
g101
ssg82
g180
sg75
(lp192
S':'
asbag68
(g89
g70
NtRp193
(dp194
g73
(dp195
sg82
g180
sg75
(lp196
g68
(g69
g70
NtRp197
(dp198
g73
(dp199
g81
I5
ssg82
g193
sg75
(lp200
S'127.0.0.1'
p201
asbasbasbag68
(g84
g70
NtRp202
(dp203
g73
(dp204
sg82
g78
sg75
(lp205
g68
(g89
g70
NtRp206
(dp207
g73
(dp208
g93
g94
ssg82
g202
sg75
(lp209
S'controller'
p210
asbag68
(g89
g70
NtRp211
(dp212
g73
(dp213
g100
g101
ssg82
g202
sg75
(lp214
S':'
asbag68
(g89
g70
NtRp215
(dp216
g73
(dp217
sg82
g202
sg75
(lp218
g68
(g69
g70
NtRp219
(dp220
g73
(dp221
g81
I5
ssg82
g215
sg75
(lp222
S'default'
p223
asbasbasbag68
(g84
g70
NtRp224
(dp225
g73
(dp226
sg82
g78
sg75
(lp227
g68
(g89
g70
NtRp228
(dp229
g73
(dp230
g93
g94
ssg82
g224
sg75
(lp231
S'cookies'
p232
asbag68
(g89
g70
NtRp233
(dp234
g73
(dp235
g100
g101
ssg82
g224
sg75
(lp236
S':'
asbag68
(g89
g70
NtRp237
(dp238
g73
(dp239
sg82
g224
sg75
(lp240
g68
(g69
g70
NtRp241
(dp242
g73
(dp243
g81
I5
ssg82
g237
sg75
(lp244
g68
(g77
g70
NtRp245
(dp246
g73
(dp247
g81
I4
ssg82
Nsg75
(lp248
g68
(g84
g70
NtRp249
(dp250
g73
(dp251
sg82
g245
sg75
(lp252
g68
(g89
g70
NtRp253
(dp254
g73
(dp255
g93
g94
ssg82
g249
sg75
(lp256
S'session_id_admin'
p257
asbag68
(g89
g70
NtRp258
(dp259
g73
(dp260
g100
g101
ssg82
g249
sg75
(lp261
S':'
asbag68
(g89
g70
NtRp262
(dp263
g73
(dp264
sg82
g249
sg75
(lp265
g68
(g69
g70
NtRp266
(dp267
g73
(dp268
g81
I4
ssg82
g262
sg75
(lp269
g68
(g77
g70
NtRp270
(dp271
g73
(dp272
g81
I3
ssg82
Nsg75
(lp273
g68
(g84
g70
NtRp274
(dp275
g73
(dp276
sg82
g270
sg75
(lp277
g68
(g89
g70
NtRp278
(dp279
g73
(dp280
g93
g94
ssg82
g274
sg75
(lp281
S'comment'
p282
asbag68
(g89
g70
NtRp283
(dp284
g73
(dp285
g100
g101
ssg82
g274
sg75
(lp286
S':'
asbag68
(g89
g70
NtRp287
(dp288
g73
(dp289
sg82
g274
sg75
(lp290
g68
(g69
g70
NtRp291
(dp292
g73
(dp293
g81
I3
ssg82
g287
sg75
(lp294
S''
asbasbasbag68
(g84
g70
NtRp295
(dp296
g73
(dp297
sg82
g270
sg75
(lp298
g68
(g89
g70
NtRp299
(dp300
g73
(dp301
g93
g94
ssg82
g295
sg75
(lp302
S'domain'
p303
asbag68
(g89
g70
NtRp304
(dp305
g73
(dp306
g100
g101
ssg82
g295
sg75
(lp307
S':'
asbag68
(g89
g70
NtRp308
(dp309
g73
(dp310
sg82
g295
sg75
(lp311
g68
(g69
g70
NtRp312
(dp313
g73
(dp314
g81
I3
ssg82
g308
sg75
(lp315
S''
asbasbasbag68
(g84
g70
NtRp316
(dp317
g73
(dp318
sg82
g270
sg75
(lp319
g68
(g89
g70
NtRp320
(dp321
g73
(dp322
g93
g94
ssg82
g316
sg75
(lp323
S'expires'
p324
asbag68
(g89
g70
NtRp325
(dp326
g73
(dp327
g100
g101
ssg82
g316
sg75
(lp328
S':'
asbag68
(g89
g70
NtRp329
(dp330
g73
(dp331
sg82
g316
sg75
(lp332
g68
(g69
g70
NtRp333
(dp334
g73
(dp335
g81
I3
ssg82
g329
sg75
(lp336
S''
asbasbasbag68
(g84
g70
NtRp337
(dp338
g73
(dp339
sg82
g270
sg75
(lp340
g68
(g89
g70
NtRp341
(dp342
g73
(dp343
g93
g94
ssg82
g337
sg75
(lp344
S'httponly'
p345
asbag68
(g89
g70
NtRp346
(dp347
g73
(dp348
g100
g101
ssg82
g337
sg75
(lp349
S':'
asbag68
(g89
g70
NtRp350
(dp351
g73
(dp352
sg82
g337
sg75
(lp353
g68
(g69
g70
NtRp354
(dp355
g73
(dp356
g81
I3
ssg82
g350
sg75
(lp357
S''
asbasbasbag68
(g84
g70
NtRp358
(dp359
g73
(dp360
sg82
g270
sg75
(lp361
g68
(g89
g70
NtRp362
(dp363
g73
(dp364
g93
g94
ssg82
g358
sg75
(lp365
S'max-age'
p366
asbag68
(g89
g70
NtRp367
(dp368
g73
(dp369
g100
g101
ssg82
g358
sg75
(lp370
S':'
asbag68
(g89
g70
NtRp371
(dp372
g73
(dp373
sg82
g358
sg75
(lp374
g68
(g69
g70
NtRp375
(dp376
g73
(dp377
g81
I3
ssg82
g371
sg75
(lp378
S''
asbasbasbag68
(g84
g70
NtRp379
(dp380
g73
(dp381
sg82
g270
sg75
(lp382
g68
(g89
g70
NtRp383
(dp384
g73
(dp385
g93
g94
ssg82
g379
sg75
(lp386
S'path'
p387
asbag68
(g89
g70
NtRp388
(dp389
g73
(dp390
g100
g101
ssg82
g379
sg75
(lp391
S':'
asbag68
(g89
g70
NtRp392
(dp393
g73
(dp394
sg82
g379
sg75
(lp395
g68
(g69
g70
NtRp396
(dp397
g73
(dp398
g81
I3
ssg82
g392
sg75
(lp399
S''
asbasbasbag68
(g84
g70
NtRp400
(dp401
g73
(dp402
sg82
g270
sg75
(lp403
g68
(g89
g70
NtRp404
(dp405
g73
(dp406
g93
g94
ssg82
g400
sg75
(lp407
S'secure'
p408
asbag68
(g89
g70
NtRp409
(dp410
g73
(dp411
g100
g101
ssg82
g400
sg75
(lp412
S':'
asbag68
(g89
g70
NtRp413
(dp414
g73
(dp415
sg82
g400
sg75
(lp416
g68
(g69
g70
NtRp417
(dp418
g73
(dp419
g81
I3
ssg82
g413
sg75
(lp420
S''
asbasbasbag68
(g84
g70
NtRp421
(dp422
g73
(dp423
sg82
g270
sg75
(lp424
g68
(g89
g70
NtRp425
(dp426
g73
(dp427
g93
g94
ssg82
g421
sg75
(lp428
S'version'
p429
asbag68
(g89
g70
NtRp430
(dp431
g73
(dp432
g100
g101
ssg82
g421
sg75
(lp433
S':'
asbag68
(g89
g70
NtRp434
(dp435
g73
(dp436
sg82
g421
sg75
(lp437
g68
(g69
g70
NtRp438
(dp439
g73
(dp440
g81
I3
ssg82
g434
sg75
(lp441
S''
asbasbasbasbasbasbasbag68
(g84
g70
NtRp442
(dp443
g73
(dp444
sg82
g245
sg75
(lp445
g68
(g89
g70
NtRp446
(dp447
g73
(dp448
g93
g94
ssg82
g442
sg75
(lp449
S'session_id_newsapp'
p450
asbag68
(g89
g70
NtRp451
(dp452
g73
(dp453
g100
g101
ssg82
g442
sg75
(lp454
S':'
asbag68
(g89
g70
NtRp455
(dp456
g73
(dp457
sg82
g442
sg75
(lp458
g68
(g69
g70
NtRp459
(dp460
g73
(dp461
g81
I4
ssg82
g455
sg75
(lp462
g68
(g77
g70
NtRp463
(dp464
g73
(dp465
g81
I3
ssg82
Nsg75
(lp466
g68
(g84
g70
NtRp467
(dp468
g73
(dp469
sg82
g463
sg75
(lp470
g68
(g89
g70
NtRp471
(dp472
g73
(dp473
g93
g94
ssg82
g467
sg75
(lp474
g282
asbag68
(g89
g70
NtRp475
(dp476
g73
(dp477
g100
g101
ssg82
g467
sg75
(lp478
S':'
asbag68
(g89
g70
NtRp479
(dp480
g73
(dp481
sg82
g467
sg75
(lp482
g68
(g69
g70
NtRp483
(dp484
g73
(dp485
g81
I3
ssg82
g479
sg75
(lp486
S''
asbasbasbag68
(g84
g70
NtRp487
(dp488
g73
(dp489
sg82
g463
sg75
(lp490
g68
(g89
g70
NtRp491
(dp492
g73
(dp493
g93
g94
ssg82
g487
sg75
(lp494
g303
asbag68
(g89
g70
NtRp495
(dp496
g73
(dp497
g100
g101
ssg82
g487
sg75
(lp498
S':'
asbag68
(g89
g70
NtRp499
(dp500
g73
(dp501
sg82
g487
sg75
(lp502
g68
(g69
g70
NtRp503
(dp504
g73
(dp505
g81
I3
ssg82
g499
sg75
(lp506
S''
asbasbasbag68
(g84
g70
NtRp507
(dp508
g73
(dp509
sg82
g463
sg75
(lp510
g68
(g89
g70
NtRp511
(dp512
g73
(dp513
g93
g94
ssg82
g507
sg75
(lp514
g324
asbag68
(g89
g70
NtRp515
(dp516
g73
(dp517
g100
g101
ssg82
g507
sg75
(lp518
S':'
asbag68
(g89
g70
NtRp519
(dp520
g73
(dp521
sg82
g507
sg75
(lp522
g68
(g69
g70
NtRp523
(dp524
g73
(dp525
g81
I3
ssg82
g519
sg75
(lp526
S''
asbasbasbag68
(g84
g70
NtRp527
(dp528
g73
(dp529
sg82
g463
sg75
(lp530
g68
(g89
g70
NtRp531
(dp532
g73
(dp533
g93
g94
ssg82
g527
sg75
(lp534
g345
asbag68
(g89
g70
NtRp535
(dp536
g73
(dp537
g100
g101
ssg82
g527
sg75
(lp538
S':'
asbag68
(g89
g70
NtRp539
(dp540
g73
(dp541
sg82
g527
sg75
(lp542
g68
(g69
g70
NtRp543
(dp544
g73
(dp545
g81
I3
ssg82
g539
sg75
(lp546
S''
asbasbasbag68
(g84
g70
NtRp547
(dp548
g73
(dp549
sg82
g463
sg75
(lp550
g68
(g89
g70
NtRp551
(dp552
g73
(dp553
g93
g94
ssg82
g547
sg75
(lp554
g366
asbag68
(g89
g70
NtRp555
(dp556
g73
(dp557
g100
g101
ssg82
g547
sg75
(lp558
S':'
asbag68
(g89
g70
NtRp559
(dp560
g73
(dp561
sg82
g547
sg75
(lp562
g68
(g69
g70
NtRp563
(dp564
g73
(dp565
g81
I3
ssg82
g559
sg75
(lp566
S''
asbasbasbag68
(g84
g70
NtRp567
(dp568
g73
(dp569
sg82
g463
sg75
(lp570
g68
(g89
g70
NtRp571
(dp572
g73
(dp573
g93
g94
ssg82
g567
sg75
(lp574
g387
asbag68
(g89
g70
NtRp575
(dp576
g73
(dp577
g100
g101
ssg82
g567
sg75
(lp578
S':'
asbag68
(g89
g70
NtRp579
(dp580
g73
(dp581
sg82
g567
sg75
(lp582
g68
(g69
g70
NtRp583
(dp584
g73
(dp585
g81
I3
ssg82
g579
sg75
(lp586
S''
asbasbasbag68
(g84
g70
NtRp587
(dp588
g73
(dp589
sg82
g463
sg75
(lp590
g68
(g89
g70
NtRp591
(dp592
g73
(dp593
g93
g94
ssg82
g587
sg75
(lp594
g408
asbag68
(g89
g70
NtRp595
(dp596
g73
(dp597
g100
g101
ssg82
g587
sg75
(lp598
S':'
asbag68
(g89
g70
NtRp599
(dp600
g73
(dp601
sg82
g587
sg75
(lp602
g68
(g69
g70
NtRp603
(dp604
g73
(dp605
g81
I3
ssg82
g599
sg75
(lp606
S''
asbasbasbag68
(g84
g70
NtRp607
(dp608
g73
(dp609
sg82
g463
sg75
(lp610
g68
(g89
g70
NtRp611
(dp612
g73
(dp613
g93
g94
ssg82
g607
sg75
(lp614
g429
asbag68
(g89
g70
NtRp615
(dp616
g73
(dp617
g100
g101
ssg82
g607
sg75
(lp618
S':'
asbag68
(g89
g70
NtRp619
(dp620
g73
(dp621
sg82
g607
sg75
(lp622
g68
(g69
g70
NtRp623
(dp624
g73
(dp625
g81
I3
ssg82
g619
sg75
(lp626
S''
asbasbasbasbasbasbasbag68
(g84
g70
NtRp627
(dp628
g73
(dp629
sg82
g245
sg75
(lp630
g68
(g89
g70
NtRp631
(dp632
g73
(dp633
g93
g94
ssg82
g627
sg75
(lp634
S'session_id_welcome'
p635
asbag68
(g89
g70
NtRp636
(dp637
g73
(dp638
g100
g101
ssg82
g627
sg75
(lp639
S':'
asbag68
(g89
g70
NtRp640
(dp641
g73
(dp642
sg82
g627
sg75
(lp643
g68
(g69
g70
NtRp644
(dp645
g73
(dp646
g81
I4
ssg82
g640
sg75
(lp647
g68
(g77
g70
NtRp648
(dp649
g73
(dp650
g81
I3
ssg82
Nsg75
(lp651
g68
(g84
g70
NtRp652
(dp653
g73
(dp654
sg82
g648
sg75
(lp655
g68
(g89
g70
NtRp656
(dp657
g73
(dp658
g93
g94
ssg82
g652
sg75
(lp659
g282
asbag68
(g89
g70
NtRp660
(dp661
g73
(dp662
g100
g101
ssg82
g652
sg75
(lp663
S':'
asbag68
(g89
g70
NtRp664
(dp665
g73
(dp666
sg82
g652
sg75
(lp667
g68
(g69
g70
NtRp668
(dp669
g73
(dp670
g81
I3
ssg82
g664
sg75
(lp671
S''
asbasbasbag68
(g84
g70
NtRp672
(dp673
g73
(dp674
sg82
g648
sg75
(lp675
g68
(g89
g70
NtRp676
(dp677
g73
(dp678
g93
g94
ssg82
g672
sg75
(lp679
g303
asbag68
(g89
g70
NtRp680
(dp681
g73
(dp682
g100
g101
ssg82
g672
sg75
(lp683
S':'
asbag68
(g89
g70
NtRp684
(dp685
g73
(dp686
sg82
g672
sg75
(lp687
g68
(g69
g70
NtRp688
(dp689
g73
(dp690
g81
I3
ssg82
g684
sg75
(lp691
S''
asbasbasbag68
(g84
g70
NtRp692
(dp693
g73
(dp694
sg82
g648
sg75
(lp695
g68
(g89
g70
NtRp696
(dp697
g73
(dp698
g93
g94
ssg82
g692
sg75
(lp699
g324
asbag68
(g89
g70
NtRp700
(dp701
g73
(dp702
g100
g101
ssg82
g692
sg75
(lp703
S':'
asbag68
(g89
g70
NtRp704
(dp705
g73
(dp706
sg82
g692
sg75
(lp707
g68
(g69
g70
NtRp708
(dp709
g73
(dp710
g81
I3
ssg82
g704
sg75
(lp711
S''
asbasbasbag68
(g84
g70
NtRp712
(dp713
g73
(dp714
sg82
g648
sg75
(lp715
g68
(g89
g70
NtRp716
(dp717
g73
(dp718
g93
g94
ssg82
g712
sg75
(lp719
g345
asbag68
(g89
g70
NtRp720
(dp721
g73
(dp722
g100
g101
ssg82
g712
sg75
(lp723
S':'
asbag68
(g89
g70
NtRp724
(dp725
g73
(dp726
sg82
g712
sg75
(lp727
g68
(g69
g70
NtRp728
(dp729
g73
(dp730
g81
I3
ssg82
g724
sg75
(lp731
S''
asbasbasbag68
(g84
g70
NtRp732
(dp733
g73
(dp734
sg82
g648
sg75
(lp735
g68
(g89
g70
NtRp736
(dp737
g73
(dp738
g93
g94
ssg82
g732
sg75
(lp739
g366
asbag68
(g89
g70
NtRp740
(dp741
g73
(dp742
g100
g101
ssg82
g732
sg75
(lp743
S':'
asbag68
(g89
g70
NtRp744
(dp745
g73
(dp746
sg82
g732
sg75
(lp747
g68
(g69
g70
NtRp748
(dp749
g73
(dp750
g81
I3
ssg82
g744
sg75
(lp751
S''
asbasbasbag68
(g84
g70
NtRp752
(dp753
g73
(dp754
sg82
g648
sg75
(lp755
g68
(g89
g70
NtRp756
(dp757
g73
(dp758
g93
g94
ssg82
g752
sg75
(lp759
g387
asbag68
(g89
g70
NtRp760
(dp761
g73
(dp762
g100
g101
ssg82
g752
sg75
(lp763
S':'
asbag68
(g89
g70
NtRp764
(dp765
g73
(dp766
sg82
g752
sg75
(lp767
g68
(g69
g70
NtRp768
(dp769
g73
(dp770
g81
I3
ssg82
g764
sg75
(lp771
S''
asbasbasbag68
(g84
g70
NtRp772
(dp773
g73
(dp774
sg82
g648
sg75
(lp775
g68
(g89
g70
NtRp776
(dp777
g73
(dp778
g93
g94
ssg82
g772
sg75
(lp779
g408
asbag68
(g89
g70
NtRp780
(dp781
g73
(dp782
g100
g101
ssg82
g772
sg75
(lp783
S':'
asbag68
(g89
g70
NtRp784
(dp785
g73
(dp786
sg82
g772
sg75
(lp787
g68
(g69
g70
NtRp788
(dp789
g73
(dp790
g81
I3
ssg82
g784
sg75
(lp791
S''
asbasbasbag68
(g84
g70
NtRp792
(dp793
g73
(dp794
sg82
g648
sg75
(lp795
g68
(g89
g70
NtRp796
(dp797
g73
(dp798
g93
g94
ssg82
g792
sg75
(lp799
g429
asbag68
(g89
g70
NtRp800
(dp801
g73
(dp802
g100
g101
ssg82
g792
sg75
(lp803
S':'
asbag68
(g89
g70
NtRp804
(dp805
g73
(dp806
sg82
g792
sg75
(lp807
g68
(g69
g70
NtRp808
(dp809
g73
(dp810
g81
I3
ssg82
g804
sg75
(lp811
S''
asbasbasbasbasbasbasbasbasbasbasbag68
(g84
g70
NtRp812
(dp813
g73
(dp814
sg82
g78
sg75
(lp815
g68
(g89
g70
NtRp816
(dp817
g73
(dp818
g93
g94
ssg82
g812
sg75
(lp819
S'env'
p820
asbag68
(g89
g70
NtRp821
(dp822
g73
(dp823
g100
g101
ssg82
g812
sg75
(lp824
S':'
asbag68
(g89
g70
NtRp825
(dp826
g73
(dp827
sg82
g812
sg75
(lp828
g68
(g69
g70
NtRp829
(dp830
g73
(dp831
g81
I5
ssg82
g825
sg75
(lp832
g68
(g77
g70
NtRp833
(dp834
g73
(dp835
g81
I4
ssg82
Nsg75
(lp836
g68
(g84
g70
NtRp837
(dp838
g73
(dp839
sg82
g833
sg75
(lp840
g68
(g89
g70
NtRp841
(dp842
g73
(dp843
g93
g94
ssg82
g837
sg75
(lp844
S'app_folders'
p845
asbag68
(g89
g70
NtRp846
(dp847
g73
(dp848
g100
g101
ssg82
g837
sg75
(lp849
S':'
asbag68
(g89
g70
NtRp850
(dp851
g73
(dp852
sg82
g837
sg75
(lp853
g68
(g69
g70
NtRp854
(dp855
g73
(dp856
g81
I4
ssg82
g850
sg75
(lp857
S"set(['/home/pooja/web2py/applications/admin/', '/home/pooja/web2py/applications/newsapp/', '/home/pooja/web2py/applications/welcome/'])"
p858
asbasbasbag68
(g84
g70
NtRp859
(dp860
g73
(dp861
sg82
g833
sg75
(lp862
g68
(g89
g70
NtRp863
(dp864
g73
(dp865
g93
g94
ssg82
g859
sg75
(lp866
S'applications_parent'
p867
asbag68
(g89
g70
NtRp868
(dp869
g73
(dp870
g100
g101
ssg82
g859
sg75
(lp871
S':'
asbag68
(g89
g70
NtRp872
(dp873
g73
(dp874
sg82
g859
sg75
(lp875
g68
(g69
g70
NtRp876
(dp877
g73
(dp878
g81
I4
ssg82
g872
sg75
(lp879
S'/home/pooja/web2py'
p880
asbasbasbag68
(g84
g70
NtRp881
(dp882
g73
(dp883
sg82
g833
sg75
(lp884
g68
(g89
g70
NtRp885
(dp886
g73
(dp887
g93
g94
ssg82
g881
sg75
(lp888
S'cmd_args'
p889
asbag68
(g89
g70
NtRp890
(dp891
g73
(dp892
g100
g101
ssg82
g881
sg75
(lp893
S':'
asbag68
(g89
g70
NtRp894
(dp895
g73
(dp896
sg82
g881
sg75
(lp897
g68
(g69
g70
NtRp898
(dp899
g73
(dp900
g81
I4
ssg82
g894
sg75
(lp901
g68
(g77
g70
NtRp902
(dp903
g73
(dp904
g81
I3
ssg82
Nsg75
(lp905
sbasbasbasbag68
(g84
g70
NtRp906
(dp907
g73
(dp908
sg82
g833
sg75
(lp909
g68
(g89
g70
NtRp910
(dp911
g73
(dp912
g93
g94
ssg82
g906
sg75
(lp913
S'cmd_options'
p914
asbag68
(g89
g70
NtRp915
(dp916
g73
(dp917
g100
g101
ssg82
g906
sg75
(lp918
S':'
asbag68
(g89
g70
NtRp919
(dp920
g73
(dp921
sg82
g906
sg75
(lp922
g68
(g69
g70
NtRp923
(dp924
g73
(dp925
g81
I4
ssg82
g919
sg75
(lp926
S"<Values at 0x7f8ec06a5908: {'verbose': False, 'ip': '127.0.0.1', 'shutdown_timeout': 5, 'taskbar': False, 'nocron': False, 'pid_filename': 'httpserver.pid', 'maxthreads': None, 'softcron': False, 'server_name': 'pooja-HP-15-Notebook-PC', 'bpython': False, 'nogui': False, 'port': 8000, 'extcron': False, 'debuglevel': 30, 'test': None, 'folder': '/home/pooja/web2py', 'config': '', 'import_models': False, 'winservice': '', 'shell': None, 'run': '', 'log_filename': 'httpserver.log', 'args': [''], 'socket_timeout': 5, 'ssl_ca_certificate': None, 'scheduler': None, 'profiler_filename': None, 'ssl_private_key': '', 'password': '<ask>', 'request_queue_size': 5, 'ssl_certificate': '', 'cronjob': False, 'numthreads': None, 'quiet': False, 'interfaces': None, 'minthreads': None, 'timeout': 10, 'plain': False, 'nobanner': False}>"
p927
asbasbasbag68
(g84
g70
NtRp928
(dp929
g73
(dp930
sg82
g833
sg75
(lp931
g68
(g89
g70
NtRp932
(dp933
g73
(dp934
g93
g94
ssg82
g928
sg75
(lp935
S'db_sessions'
p936
asbag68
(g89
g70
NtRp937
(dp938
g73
(dp939
g100
g101
ssg82
g928
sg75
(lp940
S':'
asbag68
(g89
g70
NtRp941
(dp942
g73
(dp943
sg82
g928
sg75
(lp944
g68
(g69
g70
NtRp945
(dp946
g73
(dp947
g81
I4
ssg82
g941
sg75
(lp948
S'set([])'
p949
asbasbasbag68
(g84
g70
NtRp950
(dp951
g73
(dp952
sg82
g833
sg75
(lp953
g68
(g89
g70
NtRp954
(dp955
g73
(dp956
g93
g94
ssg82
g950
sg75
(lp957
S'debugging'
p958
asbag68
(g89
g70
NtRp959
(dp960
g73
(dp961
g100
g101
ssg82
g950
sg75
(lp962
S':'
asbag68
(g89
g70
NtRp963
(dp964
g73
(dp965
sg82
g950
sg75
(lp966
g68
(g69
g70
NtRp967
(dp968
g73
(dp969
g81
I4
ssg82
g963
sg75
(lp970
g111
asbasbasbag68
(g84
g70
NtRp971
(dp972
g73
(dp973
sg82
g833
sg75
(lp974
g68
(g89
g70
NtRp975
(dp976
g73
(dp977
g93
g94
ssg82
g971
sg75
(lp978
S'gluon_parent'
p979
asbag68
(g89
g70
NtRp980
(dp981
g73
(dp982
g100
g101
ssg82
g971
sg75
(lp983
S':'
asbag68
(g89
g70
NtRp984
(dp985
g73
(dp986
sg82
g971
sg75
(lp987
g68
(g69
g70
NtRp988
(dp989
g73
(dp990
g81
I4
ssg82
g984
sg75
(lp991
S'/usr/share/web2py'
p992
asbasbasbag68
(g84
g70
NtRp993
(dp994
g73
(dp995
sg82
g833
sg75
(lp996
g68
(g89
g70
NtRp997
(dp998
g73
(dp999
g93
g94
ssg82
g993
sg75
(lp1000
S'http_accept'
p1001
asbag68
(g89
g70
NtRp1002
(dp1003
g73
(dp1004
g100
g101
ssg82
g993
sg75
(lp1005
S':'
asbag68
(g89
g70
NtRp1006
(dp1007
g73
(dp1008
sg82
g993
sg75
(lp1009
g68
(g69
g70
NtRp1010
(dp1011
g73
(dp1012
g81
I4
ssg82
g1006
sg75
(lp1013
S'text/html,application/xhtml+xml,application/xml;q=0.9,image/webp,*/*;q=0.8'
p1014
asbasbasbag68
(g84
g70
NtRp1015
(dp1016
g73
(dp1017
sg82
g833
sg75
(lp1018
g68
(g89
g70
NtRp1019
(dp1020
g73
(dp1021
g93
g94
ssg82
g1015
sg75
(lp1022
S'http_accept_encoding'
p1023
asbag68
(g89
g70
NtRp1024
(dp1025
g73
(dp1026
g100
g101
ssg82
g1015
sg75
(lp1027
S':'
asbag68
(g89
g70
NtRp1028
(dp1029
g73
(dp1030
sg82
g1015
sg75
(lp1031
g68
(g69
g70
NtRp1032
(dp1033
g73
(dp1034
g81
I4
ssg82
g1028
sg75
(lp1035
S'gzip, deflate, sdch'
p1036
asbasbasbag68
(g84
g70
NtRp1037
(dp1038
g73
(dp1039
sg82
g833
sg75
(lp1040
g68
(g89
g70
NtRp1041
(dp1042
g73
(dp1043
g93
g94
ssg82
g1037
sg75
(lp1044
S'http_accept_language'
p1045
asbag68
(g89
g70
NtRp1046
(dp1047
g73
(dp1048
g100
g101
ssg82
g1037
sg75
(lp1049
S':'
asbag68
(g89
g70
NtRp1050
(dp1051
g73
(dp1052
sg82
g1037
sg75
(lp1053
g68
(g69
g70
NtRp1054
(dp1055
g73
(dp1056
g81
I4
ssg82
g1050
sg75
(lp1057
S'en-US,en;q=0.8'
p1058
asbasbasbag68
(g84
g70
NtRp1059
(dp1060
g73
(dp1061
sg82
g833
sg75
(lp1062
g68
(g89
g70
NtRp1063
(dp1064
g73
(dp1065
g93
g94
ssg82
g1059
sg75
(lp1066
S'http_connection'
p1067
asbag68
(g89
g70
NtRp1068
(dp1069
g73
(dp1070
g100
g101
ssg82
g1059
sg75
(lp1071
S':'
asbag68
(g89
g70
NtRp1072
(dp1073
g73
(dp1074
sg82
g1059
sg75
(lp1075
g68
(g69
g70
NtRp1076
(dp1077
g73
(dp1078
g81
I4
ssg82
g1072
sg75
(lp1079
S'keep-alive'
p1080
asbasbasbag68
(g84
g70
NtRp1081
(dp1082
g73
(dp1083
sg82
g833
sg75
(lp1084
g68
(g89
g70
NtRp1085
(dp1086
g73
(dp1087
g93
g94
ssg82
g1081
sg75
(lp1088
S'http_cookie'
p1089
asbag68
(g89
g70
NtRp1090
(dp1091
g73
(dp1092
g100
g101
ssg82
g1081
sg75
(lp1093
S':'
asbag68
(g89
g70
NtRp1094
(dp1095
g73
(dp1096
sg82
g1081
sg75
(lp1097
g68
(g69
g70
NtRp1098
(dp1099
g73
(dp1100
g81
I4
ssg82
g1094
sg75
(lp1101
S'session_id_welcome=127.0.0.1-e327fa24-9b30-4806-b3b8-755f25a47489; session_id_newsapp=127.0.0.1-68d6b6be-b835-44cf-a602-e5d6849bd058; session_id_admin=127.0.0.1-6c1408c5-0a78-46f6-bb4d-f35ffc7a0a2f'
p1102
asbasbasbag68
(g84
g70
NtRp1103
(dp1104
g73
(dp1105
sg82
g833
sg75
(lp1106
g68
(g89
g70
NtRp1107
(dp1108
g73
(dp1109
g93
g94
ssg82
g1103
sg75
(lp1110
S'http_host'
p1111
asbag68
(g89
g70
NtRp1112
(dp1113
g73
(dp1114
g100
g101
ssg82
g1103
sg75
(lp1115
S':'
asbag68
(g89
g70
NtRp1116
(dp1117
g73
(dp1118
sg82
g1103
sg75
(lp1119
g68
(g69
g70
NtRp1120
(dp1121
g73
(dp1122
g81
I4
ssg82
g1116
sg75
(lp1123
S'127.0.0.1:8000'
p1124
asbasbasbag68
(g84
g70
NtRp1125
(dp1126
g73
(dp1127
sg82
g833
sg75
(lp1128
g68
(g89
g70
NtRp1129
(dp1130
g73
(dp1131
g93
g94
ssg82
g1125
sg75
(lp1132
S'http_user_agent'
p1133
asbag68
(g89
g70
NtRp1134
(dp1135
g73
(dp1136
g100
g101
ssg82
g1125
sg75
(lp1137
S':'
asbag68
(g89
g70
NtRp1138
(dp1139
g73
(dp1140
sg82
g1125
sg75
(lp1141
g68
(g69
g70
NtRp1142
(dp1143
g73
(dp1144
g81
I4
ssg82
g1138
sg75
(lp1145
S'Mozilla/5.0 (X11; Linux x86_64) AppleWebKit/537.36 (KHTML, like Gecko) Chrome/42.0.2311.135 Safari/537.36'
p1146
asbasbasbag68
(g84
g70
NtRp1147
(dp1148
g73
(dp1149
sg82
g833
sg75
(lp1150
g68
(g89
g70
NtRp1151
(dp1152
g73
(dp1153
g93
g94
ssg82
g1147
sg75
(lp1154
S'is_jython'
p1155
asbag68
(g89
g70
NtRp1156
(dp1157
g73
(dp1158
g100
g101
ssg82
g1147
sg75
(lp1159
S':'
asbag68
(g89
g70
NtRp1160
(dp1161
g73
(dp1162
sg82
g1147
sg75
(lp1163
g68
(g69
g70
NtRp1164
(dp1165
g73
(dp1166
g81
I4
ssg82
g1160
sg75
(lp1167
g111
asbasbasbag68
(g84
g70
NtRp1168
(dp1169
g73
(dp1170
sg82
g833
sg75
(lp1171
g68
(g89
g70
NtRp1172
(dp1173
g73
(dp1174
g93
g94
ssg82
g1168
sg75
(lp1175
S'is_pypy'
p1176
asbag68
(g89
g70
NtRp1177
(dp1178
g73
(dp1179
g100
g101
ssg82
g1168
sg75
(lp1180
S':'
asbag68
(g89
g70
NtRp1181
(dp1182
g73
(dp1183
sg82
g1168
sg75
(lp1184
g68
(g69
g70
NtRp1185
(dp1186
g73
(dp1187
g81
I4
ssg82
g1181
sg75
(lp1188
g111
asbasbasbag68
(g84
g70
NtRp1189
(dp1190
g73
(dp1191
sg82
g833
sg75
(lp1192
g68
(g89
g70
NtRp1193
(dp1194
g73
(dp1195
g93
g94
ssg82
g1189
sg75
(lp1196
S'path_info'
p1197
asbag68
(g89
g70
NtRp1198
(dp1199
g73
(dp1200
g100
g101
ssg82
g1189
sg75
(lp1201
S':'
asbag68
(g89
g70
NtRp1202
(dp1203
g73
(dp1204
sg82
g1189
sg75
(lp1205
g68
(g69
g70
NtRp1206
(dp1207
g73
(dp1208
g81
I4
ssg82
g1202
sg75
(lp1209
S'/newsapp/default'
p1210
asbasbasbag68
(g84
g70
NtRp1211
(dp1212
g73
(dp1213
sg82
g833
sg75
(lp1214
g68
(g89
g70
NtRp1215
(dp1216
g73
(dp1217
g93
g94
ssg82
g1211
sg75
(lp1218
S'query_string'
p1219
asbag68
(g89
g70
NtRp1220
(dp1221
g73
(dp1222
g100
g101
ssg82
g1211
sg75
(lp1223
S':'
asbag68
(g89
g70
NtRp1224
(dp1225
g73
(dp1226
sg82
g1211
sg75
(lp1227
g68
(g69
g70
NtRp1228
(dp1229
g73
(dp1230
g81
I4
ssg82
g1224
sg75
(lp1231
S''
asbasbasbag68
(g84
g70
NtRp1232
(dp1233
g73
(dp1234
sg82
g833
sg75
(lp1235
g68
(g89
g70
NtRp1236
(dp1237
g73
(dp1238
g93
g94
ssg82
g1232
sg75
(lp1239
S'remote_addr'
p1240
asbag68
(g89
g70
NtRp1241
(dp1242
g73
(dp1243
g100
g101
ssg82
g1232
sg75
(lp1244
S':'
asbag68
(g89
g70
NtRp1245
(dp1246
g73
(dp1247
sg82
g1232
sg75
(lp1248
g68
(g69
g70
NtRp1249
(dp1250
g73
(dp1251
g81
I4
ssg82
g1245
sg75
(lp1252
g201
asbasbasbag68
(g84
g70
NtRp1253
(dp1254
g73
(dp1255
sg82
g833
sg75
(lp1256
g68
(g89
g70
NtRp1257
(dp1258
g73
(dp1259
g93
g94
ssg82
g1253
sg75
(lp1260
S'remote_port'
p1261
asbag68
(g89
g70
NtRp1262
(dp1263
g73
(dp1264
g100
g101
ssg82
g1253
sg75
(lp1265
S':'
asbag68
(g89
g70
NtRp1266
(dp1267
g73
(dp1268
sg82
g1253
sg75
(lp1269
g68
(g69
g70
NtRp1270
(dp1271
g73
(dp1272
g81
I4
ssg82
g1266
sg75
(lp1273
S'47626'
p1274
asbasbasbag68
(g84
g70
NtRp1275
(dp1276
g73
(dp1277
sg82
g833
sg75
(lp1278
g68
(g89
g70
NtRp1279
(dp1280
g73
(dp1281
g93
g94
ssg82
g1275
sg75
(lp1282
S'request_method'
p1283
asbag68
(g89
g70
NtRp1284
(dp1285
g73
(dp1286
g100
g101
ssg82
g1275
sg75
(lp1287
S':'
asbag68
(g89
g70
NtRp1288
(dp1289
g73
(dp1290
sg82
g1275
sg75
(lp1291
g68
(g69
g70
NtRp1292
(dp1293
g73
(dp1294
g81
I4
ssg82
g1288
sg75
(lp1295
S'GET'
p1296
asbasbasbag68
(g84
g70
NtRp1297
(dp1298
g73
(dp1299
sg82
g833
sg75
(lp1300
g68
(g89
g70
NtRp1301
(dp1302
g73
(dp1303
g93
g94
ssg82
g1297
sg75
(lp1304
S'script_name'
p1305
asbag68
(g89
g70
NtRp1306
(dp1307
g73
(dp1308
g100
g101
ssg82
g1297
sg75
(lp1309
S':'
asbag68
(g89
g70
NtRp1310
(dp1311
g73
(dp1312
sg82
g1297
sg75
(lp1313
g68
(g69
g70
NtRp1314
(dp1315
g73
(dp1316
g81
I4
ssg82
g1310
sg75
(lp1317
S''
asbasbasbag68
(g84
g70
NtRp1318
(dp1319
g73
(dp1320
sg82
g833
sg75
(lp1321
g68
(g89
g70
NtRp1322
(dp1323
g73
(dp1324
g93
g94
ssg82
g1318
sg75
(lp1325
S'server_name'
p1326
asbag68
(g89
g70
NtRp1327
(dp1328
g73
(dp1329
g100
g101
ssg82
g1318
sg75
(lp1330
S':'
asbag68
(g89
g70
NtRp1331
(dp1332
g73
(dp1333
sg82
g1318
sg75
(lp1334
g68
(g69
g70
NtRp1335
(dp1336
g73
(dp1337
g81
I4
ssg82
g1331
sg75
(lp1338
S'pooja-HP-15-Notebook-PC'
p1339
asbasbasbag68
(g84
g70
NtRp1340
(dp1341
g73
(dp1342
sg82
g833
sg75
(lp1343
g68
(g89
g70
NtRp1344
(dp1345
g73
(dp1346
g93
g94
ssg82
g1340
sg75
(lp1347
S'server_port'
p1348
asbag68
(g89
g70
NtRp1349
(dp1350
g73
(dp1351
g100
g101
ssg82
g1340
sg75
(lp1352
S':'
asbag68
(g89
g70
NtRp1353
(dp1354
g73
(dp1355
sg82
g1340
sg75
(lp1356
g68
(g69
g70
NtRp1357
(dp1358
g73
(dp1359
g81
I4
ssg82
g1353
sg75
(lp1360
S'8000'
p1361
asbasbasbag68
(g84
g70
NtRp1362
(dp1363
g73
(dp1364
sg82
g833
sg75
(lp1365
g68
(g89
g70
NtRp1366
(dp1367
g73
(dp1368
g93
g94
ssg82
g1362
sg75
(lp1369
S'server_protocol'
p1370
asbag68
(g89
g70
NtRp1371
(dp1372
g73
(dp1373
g100
g101
ssg82
g1362
sg75
(lp1374
S':'
asbag68
(g89
g70
NtRp1375
(dp1376
g73
(dp1377
sg82
g1362
sg75
(lp1378
g68
(g69
g70
NtRp1379
(dp1380
g73
(dp1381
g81
I4
ssg82
g1375
sg75
(lp1382
S'HTTP/1.1'
p1383
asbasbasbag68
(g84
g70
NtRp1384
(dp1385
g73
(dp1386
sg82
g833
sg75
(lp1387
g68
(g89
g70
NtRp1388
(dp1389
g73
(dp1390
g93
g94
ssg82
g1384
sg75
(lp1391
S'server_software'
p1392
asbag68
(g89
g70
NtRp1393
(dp1394
g73
(dp1395
g100
g101
ssg82
g1384
sg75
(lp1396
S':'
asbag68
(g89
g70
NtRp1397
(dp1398
g73
(dp1399
sg82
g1384
sg75
(lp1400
g68
(g69
g70
NtRp1401
(dp1402
g73
(dp1403
g81
I4
ssg82
g1397
sg75
(lp1404
S'Rocket 1.2.4'
p1405
asbasbasbag68
(g84
g70
NtRp1406
(dp1407
g73
(dp1408
sg82
g833
sg75
(lp1409
g68
(g89
g70
NtRp1410
(dp1411
g73
(dp1412
g93
g94
ssg82
g1406
sg75
(lp1413
S'web2py_crontype'
p1414
asbag68
(g89
g70
NtRp1415
(dp1416
g73
(dp1417
g100
g101
ssg82
g1406
sg75
(lp1418
S':'
asbag68
(g89
g70
NtRp1419
(dp1420
g73
(dp1421
sg82
g1406
sg75
(lp1422
g68
(g69
g70
NtRp1423
(dp1424
g73
(dp1425
g81
I4
ssg82
g1419
sg75
(lp1426
S'hard'
p1427
asbasbasbag68
(g84
g70
NtRp1428
(dp1429
g73
(dp1430
sg82
g833
sg75
(lp1431
g68
(g89
g70
NtRp1432
(dp1433
g73
(dp1434
g93
g94
ssg82
g1428
sg75
(lp1435
S'web2py_path'
p1436
asbag68
(g89
g70
NtRp1437
(dp1438
g73
(dp1439
g100
g101
ssg82
g1428
sg75
(lp1440
S':'
asbag68
(g89
g70
NtRp1441
(dp1442
g73
(dp1443
sg82
g1428
sg75
(lp1444
g68
(g69
g70
NtRp1445
(dp1446
g73
(dp1447
g81
I4
ssg82
g1441
sg75
(lp1448
g880
asbasbasbag68
(g84
g70
NtRp1449
(dp1450
g73
(dp1451
sg82
g833
sg75
(lp1452
g68
(g89
g70
NtRp1453
(dp1454
g73
(dp1455
g93
g94
ssg82
g1449
sg75
(lp1456
S'web2py_version'
p1457
asbag68
(g89
g70
NtRp1458
(dp1459
g73
(dp1460
g100
g101
ssg82
g1449
sg75
(lp1461
S':'
asbag68
(g89
g70
NtRp1462
(dp1463
g73
(dp1464
sg82
g1449
sg75
(lp1465
g68
(g69
g70
NtRp1466
(dp1467
g73
(dp1468
g81
I4
ssg82
g1462
sg75
(lp1469
g68
(g77
g70
NtRp1470
(dp1471
g73
(dp1472
g81
I3
ssg82
Nsg75
(lp1473
g68
(g84
g70
NtRp1474
(dp1475
g73
(dp1476
sg82
g1470
sg75
(lp1477
g68
(g89
g70
NtRp1478
(dp1479
g73
(dp1480
sg82
g1474
sg75
(lp1481
g68
(g69
g70
NtRp1482
(dp1483
g73
(dp1484
g81
I3
ssg82
g1478
sg75
(lp1485
S'1'
asbasbasbag68
(g84
g70
NtRp1486
(dp1487
g73
(dp1488
sg82
g1470
sg75
(lp1489
g68
(g89
g70
NtRp1490
(dp1491
g73
(dp1492
sg82
g1486
sg75
(lp1493
g68
(g69
g70
NtRp1494
(dp1495
g73
(dp1496
g81
I3
ssg82
g1490
sg75
(lp1497
S'99'
p1498
asbasbasbag68
(g84
g70
NtRp1499
(dp1500
g73
(dp1501
sg82
g1470
sg75
(lp1502
g68
(g89
g70
NtRp1503
(dp1504
g73
(dp1505
sg82
g1499
sg75
(lp1506
g68
(g69
g70
NtRp1507
(dp1508
g73
(dp1509
g81
I3
ssg82
g1503
sg75
(lp1510
S'7'
asbasbasbag68
(g84
g70
NtRp1511
(dp1512
g73
(dp1513
sg82
g1470
sg75
(lp1514
g68
(g89
g70
NtRp1515
(dp1516
g73
(dp1517
sg82
g1511
sg75
(lp1518
g68
(g69
g70
NtRp1519
(dp1520
g73
(dp1521
g81
I3
ssg82
g1515
sg75
(lp1522
S'datetime.datetime(2012, 3, 4, 22, 12, 8)'
p1523
asbasbasbag68
(g84
g70
NtRp1524
(dp1525
g73
(dp1526
sg82
g1470
sg75
(lp1527
g68
(g89
g70
NtRp1528
(dp1529
g73
(dp1530
sg82
g1524
sg75
(lp1531
g68
(g69
g70
NtRp1532
(dp1533
g73
(dp1534
g81
I3
ssg82
g1528
sg75
(lp1535
S'stable'
p1536
asbasbasbasbasbasbasbag68
(g84
g70
NtRp1537
(dp1538
g73
(dp1539
sg82
g833
sg75
(lp1540
g68
(g89
g70
NtRp1541
(dp1542
g73
(dp1543
g93
g94
ssg82
g1537
sg75
(lp1544
S'wsgi_errors'
p1545
asbag68
(g89
g70
NtRp1546
(dp1547
g73
(dp1548
g100
g101
ssg82
g1537
sg75
(lp1549
S':'
asbag68
(g89
g70
NtRp1550
(dp1551
g73
(dp1552
sg82
g1537
sg75
(lp1553
g68
(g69
g70
NtRp1554
(dp1555
g73
(dp1556
g81
I4
ssg82
g1550
sg75
(lp1557
S"<open file '<stderr>', mode 'w' at 0x7f8ec51111e0>"
p1558
asbasbasbag68
(g84
g70
NtRp1559
(dp1560
g73
(dp1561
sg82
g833
sg75
(lp1562
g68
(g89
g70
NtRp1563
(dp1564
g73
(dp1565
g93
g94
ssg82
g1559
sg75
(lp1566
S'wsgi_file_wrapper'
p1567
asbag68
(g89
g70
NtRp1568
(dp1569
g73
(dp1570
g100
g101
ssg82
g1559
sg75
(lp1571
S':'
asbag68
(g89
g70
NtRp1572
(dp1573
g73
(dp1574
sg82
g1559
sg75
(lp1575
g68
(g69
g70
NtRp1576
(dp1577
g73
(dp1578
g81
I4
ssg82
g1572
sg75
(lp1579
S'<class wsgiref.util.FileWrapper at 0x7f8ec08a8870>'
p1580
asbasbasbag68
(g84
g70
NtRp1581
(dp1582
g73
(dp1583
sg82
g833
sg75
(lp1584
g68
(g89
g70
NtRp1585
(dp1586
g73
(dp1587
g93
g94
ssg82
g1581
sg75
(lp1588
S'wsgi_input'
p1589
asbag68
(g89
g70
NtRp1590
(dp1591
g73
(dp1592
g100
g101
ssg82
g1581
sg75
(lp1593
S':'
asbag68
(g89
g70
NtRp1594
(dp1595
g73
(dp1596
sg82
g1581
sg75
(lp1597
g68
(g69
g70
NtRp1598
(dp1599
g73
(dp1600
g81
I4
ssg82
g1594
sg75
(lp1601
S'<socket._fileobject object at 0x7f8ea40219d0>'
p1602
asbasbasbag68
(g84
g70
NtRp1603
(dp1604
g73
(dp1605
sg82
g833
sg75
(lp1606
g68
(g89
g70
NtRp1607
(dp1608
g73
(dp1609
g93
g94
ssg82
g1603
sg75
(lp1610
S'wsgi_multiprocess'
p1611
asbag68
(g89
g70
NtRp1612
(dp1613
g73
(dp1614
g100
g101
ssg82
g1603
sg75
(lp1615
S':'
asbag68
(g89
g70
NtRp1616
(dp1617
g73
(dp1618
sg82
g1603
sg75
(lp1619
g68
(g69
g70
NtRp1620
(dp1621
g73
(dp1622
g81
I4
ssg82
g1616
sg75
(lp1623
g111
asbasbasbag68
(g84
g70
NtRp1624
(dp1625
g73
(dp1626
sg82
g833
sg75
(lp1627
g68
(g89
g70
NtRp1628
(dp1629
g73
(dp1630
g93
g94
ssg82
g1624
sg75
(lp1631
S'wsgi_multithread'
p1632
asbag68
(g89
g70
NtRp1633
(dp1634
g73
(dp1635
g100
g101
ssg82
g1624
sg75
(lp1636
S':'
asbag68
(g89
g70
NtRp1637
(dp1638
g73
(dp1639
sg82
g1624
sg75
(lp1640
g68
(g69
g70
NtRp1641
(dp1642
g73
(dp1643
g81
I4
ssg82
g1637
sg75
(lp1644
S'True'
p1645
asbasbasbag68
(g84
g70
NtRp1646
(dp1647
g73
(dp1648
sg82
g833
sg75
(lp1649
g68
(g89
g70
NtRp1650
(dp1651
g73
(dp1652
g93
g94
ssg82
g1646
sg75
(lp1653
S'wsgi_run_once'
p1654
asbag68
(g89
g70
NtRp1655
(dp1656
g73
(dp1657
g100
g101
ssg82
g1646
sg75
(lp1658
S':'
asbag68
(g89
g70
NtRp1659
(dp1660
g73
(dp1661
sg82
g1646
sg75
(lp1662
g68
(g69
g70
NtRp1663
(dp1664
g73
(dp1665
g81
I4
ssg82
g1659
sg75
(lp1666
g111
asbasbasbag68
(g84
g70
NtRp1667
(dp1668
g73
(dp1669
sg82
g833
sg75
(lp1670
g68
(g89
g70
NtRp1671
(dp1672
g73
(dp1673
g93
g94
ssg82
g1667
sg75
(lp1674
S'wsgi_url_scheme'
p1675
asbag68
(g89
g70
NtRp1676
(dp1677
g73
(dp1678
g100
g101
ssg82
g1667
sg75
(lp1679
S':'
asbag68
(g89
g70
NtRp1680
(dp1681
g73
(dp1682
sg82
g1667
sg75
(lp1683
g68
(g69
g70
NtRp1684
(dp1685
g73
(dp1686
g81
I4
ssg82
g1680
sg75
(lp1687
S'http'
p1688
asbasbasbag68
(g84
g70
NtRp1689
(dp1690
g73
(dp1691
sg82
g833
sg75
(lp1692
g68
(g89
g70
NtRp1693
(dp1694
g73
(dp1695
g93
g94
ssg82
g1689
sg75
(lp1696
S'wsgi_version'
p1697
asbag68
(g89
g70
NtRp1698
(dp1699
g73
(dp1700
g100
g101
ssg82
g1689
sg75
(lp1701
S':'
asbag68
(g89
g70
NtRp1702
(dp1703
g73
(dp1704
sg82
g1689
sg75
(lp1705
g68
(g69
g70
NtRp1706
(dp1707
g73
(dp1708
g81
I4
ssg82
g1702
sg75
(lp1709
g68
(g77
g70
NtRp1710
(dp1711
g73
(dp1712
g81
I3
ssg82
Nsg75
(lp1713
g68
(g84
g70
NtRp1714
(dp1715
g73
(dp1716
sg82
g1710
sg75
(lp1717
g68
(g89
g70
NtRp1718
(dp1719
g73
(dp1720
sg82
g1714
sg75
(lp1721
g68
(g69
g70
NtRp1722
(dp1723
g73
(dp1724
g81
I3
ssg82
g1718
sg75
(lp1725
S'1'
asbasbasbag68
(g84
g70
NtRp1726
(dp1727
g73
(dp1728
sg82
g1710
sg75
(lp1729
g68
(g89
g70
NtRp1730
(dp1731
g73
(dp1732
sg82
g1726
sg75
(lp1733
g68
(g69
g70
NtRp1734
(dp1735
g73
(dp1736
g81
I3
ssg82
g1730
sg75
(lp1737
S'0'
asbasbasbasbasbasbasbasbasbasbasbag68
(g84
g70
NtRp1738
(dp1739
g73
(dp1740
sg82
g78
sg75
(lp1741
g68
(g89
g70
NtRp1742
(dp1743
g73
(dp1744
g93
g94
ssg82
g1738
sg75
(lp1745
S'extension'
p1746
asbag68
(g89
g70
NtRp1747
(dp1748
g73
(dp1749
g100
g101
ssg82
g1738
sg75
(lp1750
S':'
asbag68
(g89
g70
NtRp1751
(dp1752
g73
(dp1753
sg82
g1738
sg75
(lp1754
g68
(g69
g70
NtRp1755
(dp1756
g73
(dp1757
g81
I5
ssg82
g1751
sg75
(lp1758
S'html'
p1759
asbasbasbag68
(g84
g70
NtRp1760
(dp1761
g73
(dp1762
sg82
g78
sg75
(lp1763
g68
(g89
g70
NtRp1764
(dp1765
g73
(dp1766
g93
g94
ssg82
g1760
sg75
(lp1767
S'folder'
p1768
asbag68
(g89
g70
NtRp1769
(dp1770
g73
(dp1771
g100
g101
ssg82
g1760
sg75
(lp1772
S':'
asbag68
(g89
g70
NtRp1773
(dp1774
g73
(dp1775
sg82
g1760
sg75
(lp1776
g68
(g69
g70
NtRp1777
(dp1778
g73
(dp1779
g81
I5
ssg82
g1773
sg75
(lp1780
S'/home/pooja/web2py/applications/newsapp/'
p1781
asbasbasbag68
(g84
g70
NtRp1782
(dp1783
g73
(dp1784
sg82
g78
sg75
(lp1785
g68
(g89
g70
NtRp1786
(dp1787
g73
(dp1788
g93
g94
ssg82
g1782
sg75
(lp1789
S'function'
p1790
asbag68
(g89
g70
NtRp1791
(dp1792
g73
(dp1793
g100
g101
ssg82
g1782
sg75
(lp1794
S':'
asbag68
(g89
g70
NtRp1795
(dp1796
g73
(dp1797
sg82
g1782
sg75
(lp1798
g68
(g69
g70
NtRp1799
(dp1800
g73
(dp1801
g81
I5
ssg82
g1795
sg75
(lp1802
S'index'
p1803
asbasbasbag68
(g84
g70
NtRp1804
(dp1805
g73
(dp1806
sg82
g78
sg75
(lp1807
g68
(g89
g70
NtRp1808
(dp1809
g73
(dp1810
g93
g94
ssg82
g1804
sg75
(lp1811
S'get_vars'
p1812
asbag68
(g89
g70
NtRp1813
(dp1814
g73
(dp1815
g100
g101
ssg82
g1804
sg75
(lp1816
S':'
asbag68
(g89
g70
NtRp1817
(dp1818
g73
(dp1819
sg82
g1804
sg75
(lp1820
g68
(g69
g70
NtRp1821
(dp1822
g73
(dp1823
g81
I5
ssg82
g1817
sg75
(lp1824
g68
(g77
g70
NtRp1825
(dp1826
g73
(dp1827
g81
I4
ssg82
Nsg75
(lp1828
sbasbasbasbag68
(g84
g70
NtRp1829
(dp1830
g73
(dp1831
sg82
g78
sg75
(lp1832
g68
(g89
g70
NtRp1833
(dp1834
g73
(dp1835
g93
g94
ssg82
g1829
sg75
(lp1836
S'global_settings'
p1837
asbag68
(g89
g70
NtRp1838
(dp1839
g73
(dp1840
g100
g101
ssg82
g1829
sg75
(lp1841
S':'
asbag68
(g89
g70
NtRp1842
(dp1843
g73
(dp1844
sg82
g1829
sg75
(lp1845
g68
(g69
g70
NtRp1846
(dp1847
g73
(dp1848
g81
I5
ssg82
g1842
sg75
(lp1849
g68
(g77
g70
NtRp1850
(dp1851
g73
(dp1852
g81
I4
ssg82
Nsg75
(lp1853
g68
(g84
g70
NtRp1854
(dp1855
g73
(dp1856
sg82
g1850
sg75
(lp1857
g68
(g89
g70
NtRp1858
(dp1859
g73
(dp1860
g93
g94
ssg82
g1854
sg75
(lp1861
g845
asbag68
(g89
g70
NtRp1862
(dp1863
g73
(dp1864
g100
g101
ssg82
g1854
sg75
(lp1865
S':'
asbag68
(g89
g70
NtRp1866
(dp1867
g73
(dp1868
sg82
g1854
sg75
(lp1869
g68
(g69
g70
NtRp1870
(dp1871
g73
(dp1872
g81
I4
ssg82
g1866
sg75
(lp1873
S"set(['/home/pooja/web2py/applications/admin/', '/home/pooja/web2py/applications/newsapp/', '/home/pooja/web2py/applications/welcome/'])"
p1874
asbasbasbag68
(g84
g70
NtRp1875
(dp1876
g73
(dp1877
sg82
g1850
sg75
(lp1878
g68
(g89
g70
NtRp1879
(dp1880
g73
(dp1881
g93
g94
ssg82
g1875
sg75
(lp1882
g867
asbag68
(g89
g70
NtRp1883
(dp1884
g73
(dp1885
g100
g101
ssg82
g1875
sg75
(lp1886
S':'
asbag68
(g89
g70
NtRp1887
(dp1888
g73
(dp1889
sg82
g1875
sg75
(lp1890
g68
(g69
g70
NtRp1891
(dp1892
g73
(dp1893
g81
I4
ssg82
g1887
sg75
(lp1894
g880
asbasbasbag68
(g84
g70
NtRp1895
(dp1896
g73
(dp1897
sg82
g1850
sg75
(lp1898
g68
(g89
g70
NtRp1899
(dp1900
g73
(dp1901
g93
g94
ssg82
g1895
sg75
(lp1902
g889
asbag68
(g89
g70
NtRp1903
(dp1904
g73
(dp1905
g100
g101
ssg82
g1895
sg75
(lp1906
S':'
asbag68
(g89
g70
NtRp1907
(dp1908
g73
(dp1909
sg82
g1895
sg75
(lp1910
g68
(g69
g70
NtRp1911
(dp1912
g73
(dp1913
g81
I4
ssg82
g1907
sg75
(lp1914
g68
(g77
g70
NtRp1915
(dp1916
g73
(dp1917
g81
I3
ssg82
Nsg75
(lp1918
sbasbasbasbag68
(g84
g70
NtRp1919
(dp1920
g73
(dp1921
sg82
g1850
sg75
(lp1922
g68
(g89
g70
NtRp1923
(dp1924
g73
(dp1925
g93
g94
ssg82
g1919
sg75
(lp1926
g914
asbag68
(g89
g70
NtRp1927
(dp1928
g73
(dp1929
g100
g101
ssg82
g1919
sg75
(lp1930
S':'
asbag68
(g89
g70
NtRp1931
(dp1932
g73
(dp1933
sg82
g1919
sg75
(lp1934
g68
(g69
g70
NtRp1935
(dp1936
g73
(dp1937
g81
I4
ssg82
g1931
sg75
(lp1938
S"<Values at 0x7f8ec06a5908: {'verbose': False, 'ip': '127.0.0.1', 'shutdown_timeout': 5, 'taskbar': False, 'nocron': False, 'pid_filename': 'httpserver.pid', 'maxthreads': None, 'softcron': False, 'server_name': 'pooja-HP-15-Notebook-PC', 'bpython': False, 'nogui': False, 'port': 8000, 'extcron': False, 'debuglevel': 30, 'test': None, 'folder': '/home/pooja/web2py', 'config': '', 'import_models': False, 'winservice': '', 'shell': None, 'run': '', 'log_filename': 'httpserver.log', 'args': [''], 'socket_timeout': 5, 'ssl_ca_certificate': None, 'scheduler': None, 'profiler_filename': None, 'ssl_private_key': '', 'password': '<ask>', 'request_queue_size': 5, 'ssl_certificate': '', 'cronjob': False, 'numthreads': None, 'quiet': False, 'interfaces': None, 'minthreads': None, 'timeout': 10, 'plain': False, 'nobanner': False}>"
p1939
asbasbasbag68
(g84
g70
NtRp1940
(dp1941
g73
(dp1942
sg82
g1850
sg75
(lp1943
g68
(g89
g70
NtRp1944
(dp1945
g73
(dp1946
g93
g94
ssg82
g1940
sg75
(lp1947
g936
asbag68
(g89
g70
NtRp1948
(dp1949
g73
(dp1950
g100
g101
ssg82
g1940
sg75
(lp1951
S':'
asbag68
(g89
g70
NtRp1952
(dp1953
g73
(dp1954
sg82
g1940
sg75
(lp1955
g68
(g69
g70
NtRp1956
(dp1957
g73
(dp1958
g81
I4
ssg82
g1952
sg75
(lp1959
S'set([])'
p1960
asbasbasbag68
(g84
g70
NtRp1961
(dp1962
g73
(dp1963
sg82
g1850
sg75
(lp1964
g68
(g89
g70
NtRp1965
(dp1966
g73
(dp1967
g93
g94
ssg82
g1961
sg75
(lp1968
g958
asbag68
(g89
g70
NtRp1969
(dp1970
g73
(dp1971
g100
g101
ssg82
g1961
sg75
(lp1972
S':'
asbag68
(g89
g70
NtRp1973
(dp1974
g73
(dp1975
sg82
g1961
sg75
(lp1976
g68
(g69
g70
NtRp1977
(dp1978
g73
(dp1979
g81
I4
ssg82
g1973
sg75
(lp1980
g111
asbasbasbag68
(g84
g70
NtRp1981
(dp1982
g73
(dp1983
sg82
g1850
sg75
(lp1984
g68
(g89
g70
NtRp1985
(dp1986
g73
(dp1987
g93
g94
ssg82
g1981
sg75
(lp1988
g979
asbag68
(g89
g70
NtRp1989
(dp1990
g73
(dp1991
g100
g101
ssg82
g1981
sg75
(lp1992
S':'
asbag68
(g89
g70
NtRp1993
(dp1994
g73
(dp1995
sg82
g1981
sg75
(lp1996
g68
(g69
g70
NtRp1997
(dp1998
g73
(dp1999
g81
I4
ssg82
g1993
sg75
(lp2000
g992
asbasbasbag68
(g84
g70
NtRp2001
(dp2002
g73
(dp2003
sg82
g1850
sg75
(lp2004
g68
(g89
g70
NtRp2005
(dp2006
g73
(dp2007
g93
g94
ssg82
g2001
sg75
(lp2008
g1155
asbag68
(g89
g70
NtRp2009
(dp2010
g73
(dp2011
g100
g101
ssg82
g2001
sg75
(lp2012
S':'
asbag68
(g89
g70
NtRp2013
(dp2014
g73
(dp2015
sg82
g2001
sg75
(lp2016
g68
(g69
g70
NtRp2017
(dp2018
g73
(dp2019
g81
I4
ssg82
g2013
sg75
(lp2020
g111
asbasbasbag68
(g84
g70
NtRp2021
(dp2022
g73
(dp2023
sg82
g1850
sg75
(lp2024
g68
(g89
g70
NtRp2025
(dp2026
g73
(dp2027
g93
g94
ssg82
g2021
sg75
(lp2028
g1176
asbag68
(g89
g70
NtRp2029
(dp2030
g73
(dp2031
g100
g101
ssg82
g2021
sg75
(lp2032
S':'
asbag68
(g89
g70
NtRp2033
(dp2034
g73
(dp2035
sg82
g2021
sg75
(lp2036
g68
(g69
g70
NtRp2037
(dp2038
g73
(dp2039
g81
I4
ssg82
g2033
sg75
(lp2040
g111
asbasbasbag68
(g84
g70
NtRp2041
(dp2042
g73
(dp2043
sg82
g1850
sg75
(lp2044
g68
(g89
g70
NtRp2045
(dp2046
g73
(dp2047
g93
g94
ssg82
g2041
sg75
(lp2048
g1414
asbag68
(g89
g70
NtRp2049
(dp2050
g73
(dp2051
g100
g101
ssg82
g2041
sg75
(lp2052
S':'
asbag68
(g89
g70
NtRp2053
(dp2054
g73
(dp2055
sg82
g2041
sg75
(lp2056
g68
(g69
g70
NtRp2057
(dp2058
g73
(dp2059
g81
I4
ssg82
g2053
sg75
(lp2060
g1427
asbasbasbag68
(g84
g70
NtRp2061
(dp2062
g73
(dp2063
sg82
g1850
sg75
(lp2064
g68
(g89
g70
NtRp2065
(dp2066
g73
(dp2067
g93
g94
ssg82
g2061
sg75
(lp2068
g1457
asbag68
(g89
g70
NtRp2069
(dp2070
g73
(dp2071
g100
g101
ssg82
g2061
sg75
(lp2072
S':'
asbag68
(g89
g70
NtRp2073
(dp2074
g73
(dp2075
sg82
g2061
sg75
(lp2076
g68
(g69
g70
NtRp2077
(dp2078
g73
(dp2079
g81
I4
ssg82
g2073
sg75
(lp2080
g68
(g77
g70
NtRp2081
(dp2082
g73
(dp2083
g81
I3
ssg82
Nsg75
(lp2084
g68
(g84
g70
NtRp2085
(dp2086
g73
(dp2087
sg82
g2081
sg75
(lp2088
g68
(g89
g70
NtRp2089
(dp2090
g73
(dp2091
sg82
g2085
sg75
(lp2092
g68
(g69
g70
NtRp2093
(dp2094
g73
(dp2095
g81
I3
ssg82
g2089
sg75
(lp2096
S'1'
asbasbasbag68
(g84
g70
NtRp2097
(dp2098
g73
(dp2099
sg82
g2081
sg75
(lp2100
g68
(g89
g70
NtRp2101
(dp2102
g73
(dp2103
sg82
g2097
sg75
(lp2104
g68
(g69
g70
NtRp2105
(dp2106
g73
(dp2107
g81
I3
ssg82
g2101
sg75
(lp2108
S'99'
p2109
asbasbasbag68
(g84
g70
NtRp2110
(dp2111
g73
(dp2112
sg82
g2081
sg75
(lp2113
g68
(g89
g70
NtRp2114
(dp2115
g73
(dp2116
sg82
g2110
sg75
(lp2117
g68
(g69
g70
NtRp2118
(dp2119
g73
(dp2120
g81
I3
ssg82
g2114
sg75
(lp2121
S'7'
asbasbasbag68
(g84
g70
NtRp2122
(dp2123
g73
(dp2124
sg82
g2081
sg75
(lp2125
g68
(g89
g70
NtRp2126
(dp2127
g73
(dp2128
sg82
g2122
sg75
(lp2129
g68
(g69
g70
NtRp2130
(dp2131
g73
(dp2132
g81
I3
ssg82
g2126
sg75
(lp2133
S'datetime.datetime(2012, 3, 4, 22, 12, 8)'
p2134
asbasbasbag68
(g84
g70
NtRp2135
(dp2136
g73
(dp2137
sg82
g2081
sg75
(lp2138
g68
(g89
g70
NtRp2139
(dp2140
g73
(dp2141
sg82
g2135
sg75
(lp2142
g68
(g69
g70
NtRp2143
(dp2144
g73
(dp2145
g81
I3
ssg82
g2139
sg75
(lp2146
g1536
asbasbasbasbasbasbasbasbasbasbasbag68
(g84
g70
NtRp2147
(dp2148
g73
(dp2149
sg82
g78
sg75
(lp2150
g68
(g89
g70
NtRp2151
(dp2152
g73
(dp2153
g93
g94
ssg82
g2147
sg75
(lp2154
S'is_https'
p2155
asbag68
(g89
g70
NtRp2156
(dp2157
g73
(dp2158
g100
g101
ssg82
g2147
sg75
(lp2159
S':'
asbag68
(g89
g70
NtRp2160
(dp2161
g73
(dp2162
sg82
g2147
sg75
(lp2163
g68
(g69
g70
NtRp2164
(dp2165
g73
(dp2166
g81
I5
ssg82
g2160
sg75
(lp2167
g111
asbasbasbag68
(g84
g70
NtRp2168
(dp2169
g73
(dp2170
sg82
g78
sg75
(lp2171
g68
(g89
g70
NtRp2172
(dp2173
g73
(dp2174
g93
g94
ssg82
g2168
sg75
(lp2175
S'is_local'
p2176
asbag68
(g89
g70
NtRp2177
(dp2178
g73
(dp2179
g100
g101
ssg82
g2168
sg75
(lp2180
S':'
asbag68
(g89
g70
NtRp2181
(dp2182
g73
(dp2183
sg82
g2168
sg75
(lp2184
g68
(g69
g70
NtRp2185
(dp2186
g73
(dp2187
g81
I5
ssg82
g2181
sg75
(lp2188
g1645
asbasbasbag68
(g84
g70
NtRp2189
(dp2190
g73
(dp2191
sg82
g78
sg75
(lp2192
g68
(g89
g70
NtRp2193
(dp2194
g73
(dp2195
g93
g94
ssg82
g2189
sg75
(lp2196
S'is_restful'
p2197
asbag68
(g89
g70
NtRp2198
(dp2199
g73
(dp2200
g100
g101
ssg82
g2189
sg75
(lp2201
S':'
asbag68
(g89
g70
NtRp2202
(dp2203
g73
(dp2204
sg82
g2189
sg75
(lp2205
g68
(g69
g70
NtRp2206
(dp2207
g73
(dp2208
g81
I5
ssg82
g2202
sg75
(lp2209
g111
asbasbasbag68
(g84
g70
NtRp2210
(dp2211
g73
(dp2212
sg82
g78
sg75
(lp2213
g68
(g89
g70
NtRp2214
(dp2215
g73
(dp2216
g93
g94
ssg82
g2210
sg75
(lp2217
S'now'
p2218
asbag68
(g89
g70
NtRp2219
(dp2220
g73
(dp2221
g100
g101
ssg82
g2210
sg75
(lp2222
S':'
asbag68
(g89
g70
NtRp2223
(dp2224
g73
(dp2225
sg82
g2210
sg75
(lp2226
g68
(g69
g70
NtRp2227
(dp2228
g73
(dp2229
g81
I5
ssg82
g2223
sg75
(lp2230
S'datetime.datetime(2015, 5, 9, 15, 52, 11, 950224)'
p2231
asbasbasbag68
(g84
g70
NtRp2232
(dp2233
g73
(dp2234
sg82
g78
sg75
(lp2235
g68
(g89
g70
NtRp2236
(dp2237
g73
(dp2238
g93
g94
ssg82
g2232
sg75
(lp2239
S'post_vars'
p2240
asbag68
(g89
g70
NtRp2241
(dp2242
g73
(dp2243
g100
g101
ssg82
g2232
sg75
(lp2244
S':'
asbag68
(g89
g70
NtRp2245
(dp2246
g73
(dp2247
sg82
g2232
sg75
(lp2248
g68
(g69
g70
NtRp2249
(dp2250
g73
(dp2251
g81
I5
ssg82
g2245
sg75
(lp2252
g68
(g77
g70
NtRp2253
(dp2254
g73
(dp2255
g81
I4
ssg82
Nsg75
(lp2256
sbasbasbasbag68
(g84
g70
NtRp2257
(dp2258
g73
(dp2259
sg82
g78
sg75
(lp2260
g68
(g89
g70
NtRp2261
(dp2262
g73
(dp2263
g93
g94
ssg82
g2257
sg75
(lp2264
S'url'
p2265
asbag68
(g89
g70
NtRp2266
(dp2267
g73
(dp2268
g100
g101
ssg82
g2257
sg75
(lp2269
S':'
asbag68
(g89
g70
NtRp2270
(dp2271
g73
(dp2272
sg82
g2257
sg75
(lp2273
g68
(g69
g70
NtRp2274
(dp2275
g73
(dp2276
g81
I5
ssg82
g2270
sg75
(lp2277
S'/newsapp/default/index'
p2278
asbasbasbag68
(g84
g70
NtRp2279
(dp2280
g73
(dp2281
sg82
g78
sg75
(lp2282
g68
(g89
g70
NtRp2283
(dp2284
g73
(dp2285
g93
g94
ssg82
g2279
sg75
(lp2286
S'utcnow'
p2287
asbag68
(g89
g70
NtRp2288
(dp2289
g73
(dp2290
g100
g101
ssg82
g2279
sg75
(lp2291
S':'
asbag68
(g89
g70
NtRp2292
(dp2293
g73
(dp2294
sg82
g2279
sg75
(lp2295
g68
(g69
g70
NtRp2296
(dp2297
g73
(dp2298
g81
I5
ssg82
g2292
sg75
(lp2299
S'datetime.datetime(2015, 5, 9, 10, 22, 11, 950258)'
p2300
asbasbasbag68
(g84
g70
NtRp2301
(dp2302
g73
(dp2303
sg82
g78
sg75
(lp2304
g68
(g89
g70
NtRp2305
(dp2306
g73
(dp2307
g93
g94
ssg82
g2301
sg75
(lp2308
S'uuid'
p2309
asbag68
(g89
g70
NtRp2310
(dp2311
g73
(dp2312
g100
g101
ssg82
g2301
sg75
(lp2313
S':'
asbag68
(g89
g70
NtRp2314
(dp2315
g73
(dp2316
sg82
g2301
sg75
(lp2317
g68
(g69
g70
NtRp2318
(dp2319
g73
(dp2320
g81
I5
ssg82
g2314
sg75
(lp2321
S'newsapp/127.0.0.1.2015-05-09.15-52-11.75e89086-4fc1-4375-bcdc-2f8f89cc18cc'
p2322
asbasbasbag68
(g84
g70
NtRp2323
(dp2324
g73
(dp2325
sg82
g78
sg75
(lp2326
g68
(g89
g70
NtRp2327
(dp2328
g73
(dp2329
g93
g94
ssg82
g2323
sg75
(lp2330
S'vars'
p2331
asbag68
(g89
g70
NtRp2332
(dp2333
g73
(dp2334
g100
g101
ssg82
g2323
sg75
(lp2335
S':'
asbag68
(g89
g70
NtRp2336
(dp2337
g73
(dp2338
sg82
g2323
sg75
(lp2339
g68
(g69
g70
NtRp2340
(dp2341
g73
(dp2342
g81
I5
ssg82
g2336
sg75
(lp2343
g68
(g77
g70
NtRp2344
(dp2345
g73
(dp2346
g81
I4
ssg82
Nsg75
(lp2347
sbasbasbasbag68
(g84
g70
NtRp2348
(dp2349
g73
(dp2350
sg82
g78
sg75
(lp2351
g68
(g89
g70
NtRp2352
(dp2353
g73
(dp2354
g93
g94
ssg82
g2348
sg75
(lp2355
S'wsgi'
p2356
asbag68
(g89
g70
NtRp2357
(dp2358
g73
(dp2359
g100
g101
ssg82
g2348
sg75
(lp2360
S':'
asbag68
(g89
g70
NtRp2361
(dp2362
g73
(dp2363
sg82
g2348
sg75
(lp2364
g68
(g69
g70
NtRp2365
(dp2366
g73
(dp2367
g81
I5
ssg82
g2361
sg75
(lp2368
g68
(g77
g70
NtRp2369
(dp2370
g73
(dp2371
g81
I4
ssg82
Nsg75
(lp2372
g68
(g84
g70
NtRp2373
(dp2374
g73
(dp2375
sg82
g2369
sg75
(lp2376
g68
(g89
g70
NtRp2377
(dp2378
g73
(dp2379
g93
g94
ssg82
g2373
sg75
(lp2380
S'environ'
p2381
asbag68
(g89
g70
NtRp2382
(dp2383
g73
(dp2384
g100
g101
ssg82
g2373
sg75
(lp2385
S':'
asbag68
(g89
g70
NtRp2386
(dp2387
g73
(dp2388
sg82
g2373
sg75
(lp2389
g68
(g69
g70
NtRp2390
(dp2391
g73
(dp2392
g81
I4
ssg82
g2386
sg75
(lp2393
g68
(g77
g70
NtRp2394
(dp2395
g73
(dp2396
g81
I3
ssg82
Nsg75
(lp2397
g68
(g84
g70
NtRp2398
(dp2399
g73
(dp2400
sg82
g2394
sg75
(lp2401
g68
(g89
g70
NtRp2402
(dp2403
g73
(dp2404
g93
g94
ssg82
g2398
sg75
(lp2405
S'HTTP_ACCEPT'
p2406
asbag68
(g89
g70
NtRp2407
(dp2408
g73
(dp2409
g100
g101
ssg82
g2398
sg75
(lp2410
S':'
asbag68
(g89
g70
NtRp2411
(dp2412
g73
(dp2413
sg82
g2398
sg75
(lp2414
g68
(g69
g70
NtRp2415
(dp2416
g73
(dp2417
g81
I3
ssg82
g2411
sg75
(lp2418
g1014
asbasbasbag68
(g84
g70
NtRp2419
(dp2420
g73
(dp2421
sg82
g2394
sg75
(lp2422
g68
(g89
g70
NtRp2423
(dp2424
g73
(dp2425
g93
g94
ssg82
g2419
sg75
(lp2426
S'HTTP_ACCEPT_ENCODING'
p2427
asbag68
(g89
g70
NtRp2428
(dp2429
g73
(dp2430
g100
g101
ssg82
g2419
sg75
(lp2431
S':'
asbag68
(g89
g70
NtRp2432
(dp2433
g73
(dp2434
sg82
g2419
sg75
(lp2435
g68
(g69
g70
NtRp2436
(dp2437
g73
(dp2438
g81
I3
ssg82
g2432
sg75
(lp2439
g1036
asbasbasbag68
(g84
g70
NtRp2440
(dp2441
g73
(dp2442
sg82
g2394
sg75
(lp2443
g68
(g89
g70
NtRp2444
(dp2445
g73
(dp2446
g93
g94
ssg82
g2440
sg75
(lp2447
S'HTTP_ACCEPT_LANGUAGE'
p2448
asbag68
(g89
g70
NtRp2449
(dp2450
g73
(dp2451
g100
g101
ssg82
g2440
sg75
(lp2452
S':'
asbag68
(g89
g70
NtRp2453
(dp2454
g73
(dp2455
sg82
g2440
sg75
(lp2456
g68
(g69
g70
NtRp2457
(dp2458
g73
(dp2459
g81
I3
ssg82
g2453
sg75
(lp2460
g1058
asbasbasbag68
(g84
g70
NtRp2461
(dp2462
g73
(dp2463
sg82
g2394
sg75
(lp2464
g68
(g89
g70
NtRp2465
(dp2466
g73
(dp2467
g93
g94
ssg82
g2461
sg75
(lp2468
S'HTTP_CONNECTION'
p2469
asbag68
(g89
g70
NtRp2470
(dp2471
g73
(dp2472
g100
g101
ssg82
g2461
sg75
(lp2473
S':'
asbag68
(g89
g70
NtRp2474
(dp2475
g73
(dp2476
sg82
g2461
sg75
(lp2477
g68
(g69
g70
NtRp2478
(dp2479
g73
(dp2480
g81
I3
ssg82
g2474
sg75
(lp2481
g1080
asbasbasbag68
(g84
g70
NtRp2482
(dp2483
g73
(dp2484
sg82
g2394
sg75
(lp2485
g68
(g89
g70
NtRp2486
(dp2487
g73
(dp2488
g93
g94
ssg82
g2482
sg75
(lp2489
S'HTTP_COOKIE'
p2490
asbag68
(g89
g70
NtRp2491
(dp2492
g73
(dp2493
g100
g101
ssg82
g2482
sg75
(lp2494
S':'
asbag68
(g89
g70
NtRp2495
(dp2496
g73
(dp2497
sg82
g2482
sg75
(lp2498
g68
(g69
g70
NtRp2499
(dp2500
g73
(dp2501
g81
I3
ssg82
g2495
sg75
(lp2502
g1102
asbasbasbag68
(g84
g70
NtRp2503
(dp2504
g73
(dp2505
sg82
g2394
sg75
(lp2506
g68
(g89
g70
NtRp2507
(dp2508
g73
(dp2509
g93
g94
ssg82
g2503
sg75
(lp2510
S'HTTP_HOST'
p2511
asbag68
(g89
g70
NtRp2512
(dp2513
g73
(dp2514
g100
g101
ssg82
g2503
sg75
(lp2515
S':'
asbag68
(g89
g70
NtRp2516
(dp2517
g73
(dp2518
sg82
g2503
sg75
(lp2519
g68
(g69
g70
NtRp2520
(dp2521
g73
(dp2522
g81
I3
ssg82
g2516
sg75
(lp2523
g1124
asbasbasbag68
(g84
g70
NtRp2524
(dp2525
g73
(dp2526
sg82
g2394
sg75
(lp2527
g68
(g89
g70
NtRp2528
(dp2529
g73
(dp2530
g93
g94
ssg82
g2524
sg75
(lp2531
S'HTTP_USER_AGENT'
p2532
asbag68
(g89
g70
NtRp2533
(dp2534
g73
(dp2535
g100
g101
ssg82
g2524
sg75
(lp2536
S':'
asbag68
(g89
g70
NtRp2537
(dp2538
g73
(dp2539
sg82
g2524
sg75
(lp2540
g68
(g69
g70
NtRp2541
(dp2542
g73
(dp2543
g81
I3
ssg82
g2537
sg75
(lp2544
g1146
asbasbasbag68
(g84
g70
NtRp2545
(dp2546
g73
(dp2547
sg82
g2394
sg75
(lp2548
g68
(g89
g70
NtRp2549
(dp2550
g73
(dp2551
g93
g94
ssg82
g2545
sg75
(lp2552
S'PATH_INFO'
p2553
asbag68
(g89
g70
NtRp2554
(dp2555
g73
(dp2556
g100
g101
ssg82
g2545
sg75
(lp2557
S':'
asbag68
(g89
g70
NtRp2558
(dp2559
g73
(dp2560
sg82
g2545
sg75
(lp2561
g68
(g69
g70
NtRp2562
(dp2563
g73
(dp2564
g81
I3
ssg82
g2558
sg75
(lp2565
g1210
asbasbasbag68
(g84
g70
NtRp2566
(dp2567
g73
(dp2568
sg82
g2394
sg75
(lp2569
g68
(g89
g70
NtRp2570
(dp2571
g73
(dp2572
g93
g94
ssg82
g2566
sg75
(lp2573
S'QUERY_STRING'
p2574
asbag68
(g89
g70
NtRp2575
(dp2576
g73
(dp2577
g100
g101
ssg82
g2566
sg75
(lp2578
S':'
asbag68
(g89
g70
NtRp2579
(dp2580
g73
(dp2581
sg82
g2566
sg75
(lp2582
g68
(g69
g70
NtRp2583
(dp2584
g73
(dp2585
g81
I3
ssg82
g2579
sg75
(lp2586
S''
asbasbasbag68
(g84
g70
NtRp2587
(dp2588
g73
(dp2589
sg82
g2394
sg75
(lp2590
g68
(g89
g70
NtRp2591
(dp2592
g73
(dp2593
g93
g94
ssg82
g2587
sg75
(lp2594
S'REMOTE_ADDR'
p2595
asbag68
(g89
g70
NtRp2596
(dp2597
g73
(dp2598
g100
g101
ssg82
g2587
sg75
(lp2599
S':'
asbag68
(g89
g70
NtRp2600
(dp2601
g73
(dp2602
sg82
g2587
sg75
(lp2603
g68
(g69
g70
NtRp2604
(dp2605
g73
(dp2606
g81
I3
ssg82
g2600
sg75
(lp2607
g201
asbasbasbag68
(g84
g70
NtRp2608
(dp2609
g73
(dp2610
sg82
g2394
sg75
(lp2611
g68
(g89
g70
NtRp2612
(dp2613
g73
(dp2614
g93
g94
ssg82
g2608
sg75
(lp2615
S'REMOTE_PORT'
p2616
asbag68
(g89
g70
NtRp2617
(dp2618
g73
(dp2619
g100
g101
ssg82
g2608
sg75
(lp2620
S':'
asbag68
(g89
g70
NtRp2621
(dp2622
g73
(dp2623
sg82
g2608
sg75
(lp2624
g68
(g69
g70
NtRp2625
(dp2626
g73
(dp2627
g81
I3
ssg82
g2621
sg75
(lp2628
g1274
asbasbasbag68
(g84
g70
NtRp2629
(dp2630
g73
(dp2631
sg82
g2394
sg75
(lp2632
g68
(g89
g70
NtRp2633
(dp2634
g73
(dp2635
g93
g94
ssg82
g2629
sg75
(lp2636
S'REQUEST_METHOD'
p2637
asbag68
(g89
g70
NtRp2638
(dp2639
g73
(dp2640
g100
g101
ssg82
g2629
sg75
(lp2641
S':'
asbag68
(g89
g70
NtRp2642
(dp2643
g73
(dp2644
sg82
g2629
sg75
(lp2645
g68
(g69
g70
NtRp2646
(dp2647
g73
(dp2648
g81
I3
ssg82
g2642
sg75
(lp2649
g1296
asbasbasbag68
(g84
g70
NtRp2650
(dp2651
g73
(dp2652
sg82
g2394
sg75
(lp2653
g68
(g89
g70
NtRp2654
(dp2655
g73
(dp2656
g93
g94
ssg82
g2650
sg75
(lp2657
S'SCRIPT_NAME'
p2658
asbag68
(g89
g70
NtRp2659
(dp2660
g73
(dp2661
g100
g101
ssg82
g2650
sg75
(lp2662
S':'
asbag68
(g89
g70
NtRp2663
(dp2664
g73
(dp2665
sg82
g2650
sg75
(lp2666
g68
(g69
g70
NtRp2667
(dp2668
g73
(dp2669
g81
I3
ssg82
g2663
sg75
(lp2670
S''
asbasbasbag68
(g84
g70
NtRp2671
(dp2672
g73
(dp2673
sg82
g2394
sg75
(lp2674
g68
(g89
g70
NtRp2675
(dp2676
g73
(dp2677
g93
g94
ssg82
g2671
sg75
(lp2678
S'SERVER_NAME'
p2679
asbag68
(g89
g70
NtRp2680
(dp2681
g73
(dp2682
g100
g101
ssg82
g2671
sg75
(lp2683
S':'
asbag68
(g89
g70
NtRp2684
(dp2685
g73
(dp2686
sg82
g2671
sg75
(lp2687
g68
(g69
g70
NtRp2688
(dp2689
g73
(dp2690
g81
I3
ssg82
g2684
sg75
(lp2691
g1339
asbasbasbag68
(g84
g70
NtRp2692
(dp2693
g73
(dp2694
sg82
g2394
sg75
(lp2695
g68
(g89
g70
NtRp2696
(dp2697
g73
(dp2698
g93
g94
ssg82
g2692
sg75
(lp2699
S'SERVER_PORT'
p2700
asbag68
(g89
g70
NtRp2701
(dp2702
g73
(dp2703
g100
g101
ssg82
g2692
sg75
(lp2704
S':'
asbag68
(g89
g70
NtRp2705
(dp2706
g73
(dp2707
sg82
g2692
sg75
(lp2708
g68
(g69
g70
NtRp2709
(dp2710
g73
(dp2711
g81
I3
ssg82
g2705
sg75
(lp2712
g1361
asbasbasbag68
(g84
g70
NtRp2713
(dp2714
g73
(dp2715
sg82
g2394
sg75
(lp2716
g68
(g89
g70
NtRp2717
(dp2718
g73
(dp2719
g93
g94
ssg82
g2713
sg75
(lp2720
S'SERVER_PROTOCOL'
p2721
asbag68
(g89
g70
NtRp2722
(dp2723
g73
(dp2724
g100
g101
ssg82
g2713
sg75
(lp2725
S':'
asbag68
(g89
g70
NtRp2726
(dp2727
g73
(dp2728
sg82
g2713
sg75
(lp2729
g68
(g69
g70
NtRp2730
(dp2731
g73
(dp2732
g81
I3
ssg82
g2726
sg75
(lp2733
g1383
asbasbasbag68
(g84
g70
NtRp2734
(dp2735
g73
(dp2736
sg82
g2394
sg75
(lp2737
g68
(g89
g70
NtRp2738
(dp2739
g73
(dp2740
g93
g94
ssg82
g2734
sg75
(lp2741
S'SERVER_SOFTWARE'
p2742
asbag68
(g89
g70
NtRp2743
(dp2744
g73
(dp2745
g100
g101
ssg82
g2734
sg75
(lp2746
S':'
asbag68
(g89
g70
NtRp2747
(dp2748
g73
(dp2749
sg82
g2734
sg75
(lp2750
g68
(g69
g70
NtRp2751
(dp2752
g73
(dp2753
g81
I3
ssg82
g2747
sg75
(lp2754
g1405
asbasbasbag68
(g84
g70
NtRp2755
(dp2756
g73
(dp2757
sg82
g2394
sg75
(lp2758
g68
(g89
g70
NtRp2759
(dp2760
g73
(dp2761
g93
g94
ssg82
g2755
sg75
(lp2762
S'wsgi.errors'
p2763
asbag68
(g89
g70
NtRp2764
(dp2765
g73
(dp2766
g100
g101
ssg82
g2755
sg75
(lp2767
S':'
asbag68
(g89
g70
NtRp2768
(dp2769
g73
(dp2770
sg82
g2755
sg75
(lp2771
g68
(g69
g70
NtRp2772
(dp2773
g73
(dp2774
g81
I3
ssg82
g2768
sg75
(lp2775
S"<open file '<stderr>', mode 'w' at 0x7f8ec51111e0>"
p2776
asbasbasbag68
(g84
g70
NtRp2777
(dp2778
g73
(dp2779
sg82
g2394
sg75
(lp2780
g68
(g89
g70
NtRp2781
(dp2782
g73
(dp2783
g93
g94
ssg82
g2777
sg75
(lp2784
S'wsgi.file_wrapper'
p2785
asbag68
(g89
g70
NtRp2786
(dp2787
g73
(dp2788
g100
g101
ssg82
g2777
sg75
(lp2789
S':'
asbag68
(g89
g70
NtRp2790
(dp2791
g73
(dp2792
sg82
g2777
sg75
(lp2793
g68
(g69
g70
NtRp2794
(dp2795
g73
(dp2796
g81
I3
ssg82
g2790
sg75
(lp2797
S'<class wsgiref.util.FileWrapper at 0x7f8ec08a8870>'
p2798
asbasbasbag68
(g84
g70
NtRp2799
(dp2800
g73
(dp2801
sg82
g2394
sg75
(lp2802
g68
(g89
g70
NtRp2803
(dp2804
g73
(dp2805
g93
g94
ssg82
g2799
sg75
(lp2806
S'wsgi.input'
p2807
asbag68
(g89
g70
NtRp2808
(dp2809
g73
(dp2810
g100
g101
ssg82
g2799
sg75
(lp2811
S':'
asbag68
(g89
g70
NtRp2812
(dp2813
g73
(dp2814
sg82
g2799
sg75
(lp2815
g68
(g69
g70
NtRp2816
(dp2817
g73
(dp2818
g81
I3
ssg82
g2812
sg75
(lp2819
S'<cStringIO.StringO object at 0x7f8ec091aa78>'
p2820
asbasbasbag68
(g84
g70
NtRp2821
(dp2822
g73
(dp2823
sg82
g2394
sg75
(lp2824
g68
(g89
g70
NtRp2825
(dp2826
g73
(dp2827
g93
g94
ssg82
g2821
sg75
(lp2828
S'wsgi.multiprocess'
p2829
asbag68
(g89
g70
NtRp2830
(dp2831
g73
(dp2832
g100
g101
ssg82
g2821
sg75
(lp2833
S':'
asbag68
(g89
g70
NtRp2834
(dp2835
g73
(dp2836
sg82
g2821
sg75
(lp2837
g68
(g69
g70
NtRp2838
(dp2839
g73
(dp2840
g81
I3
ssg82
g2834
sg75
(lp2841
g111
asbasbasbag68
(g84
g70
NtRp2842
(dp2843
g73
(dp2844
sg82
g2394
sg75
(lp2845
g68
(g89
g70
NtRp2846
(dp2847
g73
(dp2848
g93
g94
ssg82
g2842
sg75
(lp2849
S'wsgi.multithread'
p2850
asbag68
(g89
g70
NtRp2851
(dp2852
g73
(dp2853
g100
g101
ssg82
g2842
sg75
(lp2854
S':'
asbag68
(g89
g70
NtRp2855
(dp2856
g73
(dp2857
sg82
g2842
sg75
(lp2858
g68
(g69
g70
NtRp2859
(dp2860
g73
(dp2861
g81
I3
ssg82
g2855
sg75
(lp2862
g1645
asbasbasbag68
(g84
g70
NtRp2863
(dp2864
g73
(dp2865
sg82
g2394
sg75
(lp2866
g68
(g89
g70
NtRp2867
(dp2868
g73
(dp2869
g93
g94
ssg82
g2863
sg75
(lp2870
S'wsgi.run_once'
p2871
asbag68
(g89
g70
NtRp2872
(dp2873
g73
(dp2874
g100
g101
ssg82
g2863
sg75
(lp2875
S':'
asbag68
(g89
g70
NtRp2876
(dp2877
g73
(dp2878
sg82
g2863
sg75
(lp2879
g68
(g69
g70
NtRp2880
(dp2881
g73
(dp2882
g81
I3
ssg82
g2876
sg75
(lp2883
g111
asbasbasbag68
(g84
g70
NtRp2884
(dp2885
g73
(dp2886
sg82
g2394
sg75
(lp2887
g68
(g89
g70
NtRp2888
(dp2889
g73
(dp2890
g93
g94
ssg82
g2884
sg75
(lp2891
S'wsgi.url_scheme'
p2892
asbag68
(g89
g70
NtRp2893
(dp2894
g73
(dp2895
g100
g101
ssg82
g2884
sg75
(lp2896
S':'
asbag68
(g89
g70
NtRp2897
(dp2898
g73
(dp2899
sg82
g2884
sg75
(lp2900
g68
(g69
g70
NtRp2901
(dp2902
g73
(dp2903
g81
I3
ssg82
g2897
sg75
(lp2904
g1688
asbasbasbag68
(g84
g70
NtRp2905
(dp2906
g73
(dp2907
sg82
g2394
sg75
(lp2908
g68
(g89
g70
NtRp2909
(dp2910
g73
(dp2911
g93
g94
ssg82
g2905
sg75
(lp2912
S'wsgi.version'
p2913
asbag68
(g89
g70
NtRp2914
(dp2915
g73
(dp2916
g100
g101
ssg82
g2905
sg75
(lp2917
S':'
asbag68
(g89
g70
NtRp2918
(dp2919
g73
(dp2920
sg82
g2905
sg75
(lp2921
g68
(g69
g70
NtRp2922
(dp2923
g73
(dp2924
g81
I3
ssg82
g2918
sg75
(lp2925
S'1'
asbasbasbasbasbasbasbasbasbasbasbasbasbsS'frames'
p2926
(lp2927
(dp2928
S'file'
p2929
S'/usr/lib/pymodules/python2.7/gluon/restricted.py'
p2930
sS'dump'
p2931
(dp2932
S'code'
p2933
S"'from oauth2 as oauth\\nimport urllib,urllib2\\nfrom ...n dict()\\n\\nresponse._vars=response._caller(index)\\n'"
p2934
sS'layer'
p2935
S"'/home/pooja/web2py/applications/newsapp/controllers/default.py'"
p2936
sS'global compile2'
p2937
S'<function compile2>'
p2938
sS'ccode'
p2939
S'undefined'
p2940
ssS'lnum'
p2941
I204
sS'lines'
p2942
(dp2943
I199
S"    environment['__name__'] = '__restricted__'"
p2944
sI200
S'    try:'
p2945
sI201
S'        if type(code) == types.CodeType:'
p2946
sI202
S'            ccode = code'
p2947
sI203
S'        else:'
p2948
sI204
S'            ccode = compile2(code,layer)'
p2949
sI205
S'        exec ccode in environment'
p2950
sI206
S'    except HTTP:'
p2951
sI207
S'        raise'
p2952
sI208
S'    except RestrictedError:'
p2953
ssS'call'
p2954
S"(code='from oauth2 as oauth\\nimport urllib,urllib2\\nfrom ...n dict()\\n\\nresponse._vars=response._caller(index)\\n', environment={'A': <class 'gluon.html.A'>, 'Auth': <class 'gluon.tools.Auth'>, 'B': <class 'gluon.html.B'>, 'BEAUTIFY': <class 'gluon.html.BEAUTIFY'>, 'BODY': <class 'gluon.html.BODY'>, 'BR': <class 'gluon.html.BR'>, 'BUTTON': <class 'gluon.html.BUTTON'>, 'CAT': <class 'gluon.html.CAT'>, 'CENTER': <class 'gluon.html.CENTER'>, 'CLEANUP': <class 'gluon.validators.CLEANUP'>, ...}, layer='/home/pooja/web2py/applications/newsapp/controllers/default.py')"
p2955
sS'func'
p2956
S'restricted'
p2957
sa(dp2958
g2929
S'/usr/lib/pymodules/python2.7/gluon/restricted.py'
p2959
sg2931
(dp2960
S'builtincompile'
p2961
S'<built-in function compile>'
p2962
sS'code'
p2963
S"'from oauth2 as oauth\\nimport urllib,urllib2\\nfrom ...n dict()\\n\\nresponse._vars=response._caller(index)\\n'"
p2964
sS'code.rstrip'
p2965
S'<built-in method rstrip of str object>'
p2966
sS').replace'
p2967
g2940
sS'layer'
p2968
S"'/home/pooja/web2py/applications/newsapp/controllers/default.py'"
p2969
ssg2941
I189
sg2942
(dp2970
I192
S'    """'
p2971
sI193
S'    runs code in environment and returns the output. if an exception occurs'
p2972
sI184
S''
sI185
S'def compile2(code,layer):'
p2973
sI186
S'    """'
p2974
sI187
S"    The +'\\n' is necessary else compile fails when code ends in a comment."
p2975
sI188
S'    """'
p2976
sI189
S"    return compile(code.rstrip().replace('\\r\\n','\\n')+'\\n', layer, 'exec')"
p2977
sI190
S''
sI191
S"def restricted(code, environment=None, layer='Unknown'):"
p2978
ssg2954
S"(code='from oauth2 as oauth\\nimport urllib,urllib2\\nfrom ...n dict()\\n\\nresponse._vars=response._caller(index)\\n', layer='/home/pooja/web2py/applications/newsapp/controllers/default.py')"
p2979
sg2956
S'compile2'
p2980
sasS'pyver'
p2981
S'Python 2.7.6: /usr/bin/python'
p2982
sS'session'
p2983
g68
(g69
g70
NtRp2984
(dp2985
g73
(dp2986
sg75
(lp2987
g68
(g77
g70
NtRp2988
(dp2989
g73
(dp2990
g81
I5
ssg82
Nsg75
(lp2991
sbasbsS'etype'
p2992
S"<type 'exceptions.SyntaxError'>"
p2993
sS'date'
p2994
S'Sat May  9 15:52:11 2015'
p2995
sS'response'
p2996
g68
(g69
g70
NtRp2997
(dp2998
g73
(dp2999
sg75
(lp3000
g68
(g77
g70
NtRp3001
(dp3002
g73
(dp3003
g81
I5
ssg82
Nsg75
(lp3004
g68
(g84
g70
NtRp3005
(dp3006
g73
(dp3007
sg82
g3001
sg75
(lp3008
g68
(g89
g70
NtRp3009
(dp3010
g73
(dp3011
g93
g94
ssg82
g3005
sg75
(lp3012
g166
asbag68
(g89
g70
NtRp3013
(dp3014
g73
(dp3015
g100
g101
ssg82
g3005
sg75
(lp3016
S':'
asbag68
(g89
g70
NtRp3017
(dp3018
g73
(dp3019
sg82
g3005
sg75
(lp3020
g68
(g69
g70
NtRp3021
(dp3022
g73
(dp3023
g81
I5
ssg82
g3017
sg75
(lp3024
S'<cStringIO.StringO object at 0x7f8ec091a298>'
p3025
asbasbasbag68
(g84
g70
NtRp3026
(dp3027
g73
(dp3028
sg82
g3001
sg75
(lp3029
g68
(g89
g70
NtRp3030
(dp3031
g73
(dp3032
g93
g94
ssg82
g3026
sg75
(lp3033
g232
asbag68
(g89
g70
NtRp3034
(dp3035
g73
(dp3036
g100
g101
ssg82
g3026
sg75
(lp3037
S':'
asbag68
(g89
g70
NtRp3038
(dp3039
g73
(dp3040
sg82
g3026
sg75
(lp3041
g68
(g69
g70
NtRp3042
(dp3043
g73
(dp3044
g81
I5
ssg82
g3038
sg75
(lp3045
g68
(g77
g70
NtRp3046
(dp3047
g73
(dp3048
g81
I4
ssg82
Nsg75
(lp3049
g68
(g84
g70
NtRp3050
(dp3051
g73
(dp3052
sg82
g3046
sg75
(lp3053
g68
(g89
g70
NtRp3054
(dp3055
g73
(dp3056
g93
g94
ssg82
g3050
sg75
(lp3057
S'session_id_newsapp'
p3058
asbag68
(g89
g70
NtRp3059
(dp3060
g73
(dp3061
g100
g101
ssg82
g3050
sg75
(lp3062
S':'
asbag68
(g89
g70
NtRp3063
(dp3064
g73
(dp3065
sg82
g3050
sg75
(lp3066
g68
(g69
g70
NtRp3067
(dp3068
g73
(dp3069
g81
I4
ssg82
g3063
sg75
(lp3070
g68
(g77
g70
NtRp3071
(dp3072
g73
(dp3073
g81
I3
ssg82
Nsg75
(lp3074
g68
(g84
g70
NtRp3075
(dp3076
g73
(dp3077
sg82
g3071
sg75
(lp3078
g68
(g89
g70
NtRp3079
(dp3080
g73
(dp3081
g93
g94
ssg82
g3075
sg75
(lp3082
g282
asbag68
(g89
g70
NtRp3083
(dp3084
g73
(dp3085
g100
g101
ssg82
g3075
sg75
(lp3086
S':'
asbag68
(g89
g70
NtRp3087
(dp3088
g73
(dp3089
sg82
g3075
sg75
(lp3090
g68
(g69
g70
NtRp3091
(dp3092
g73
(dp3093
g81
I3
ssg82
g3087
sg75
(lp3094
S''
asbasbasbag68
(g84
g70
NtRp3095
(dp3096
g73
(dp3097
sg82
g3071
sg75
(lp3098
g68
(g89
g70
NtRp3099
(dp3100
g73
(dp3101
g93
g94
ssg82
g3095
sg75
(lp3102
g303
asbag68
(g89
g70
NtRp3103
(dp3104
g73
(dp3105
g100
g101
ssg82
g3095
sg75
(lp3106
S':'
asbag68
(g89
g70
NtRp3107
(dp3108
g73
(dp3109
sg82
g3095
sg75
(lp3110
g68
(g69
g70
NtRp3111
(dp3112
g73
(dp3113
g81
I3
ssg82
g3107
sg75
(lp3114
S''
asbasbasbag68
(g84
g70
NtRp3115
(dp3116
g73
(dp3117
sg82
g3071
sg75
(lp3118
g68
(g89
g70
NtRp3119
(dp3120
g73
(dp3121
g93
g94
ssg82
g3115
sg75
(lp3122
g324
asbag68
(g89
g70
NtRp3123
(dp3124
g73
(dp3125
g100
g101
ssg82
g3115
sg75
(lp3126
S':'
asbag68
(g89
g70
NtRp3127
(dp3128
g73
(dp3129
sg82
g3115
sg75
(lp3130
g68
(g69
g70
NtRp3131
(dp3132
g73
(dp3133
g81
I3
ssg82
g3127
sg75
(lp3134
S''
asbasbasbag68
(g84
g70
NtRp3135
(dp3136
g73
(dp3137
sg82
g3071
sg75
(lp3138
g68
(g89
g70
NtRp3139
(dp3140
g73
(dp3141
g93
g94
ssg82
g3135
sg75
(lp3142
g345
asbag68
(g89
g70
NtRp3143
(dp3144
g73
(dp3145
g100
g101
ssg82
g3135
sg75
(lp3146
S':'
asbag68
(g89
g70
NtRp3147
(dp3148
g73
(dp3149
sg82
g3135
sg75
(lp3150
g68
(g69
g70
NtRp3151
(dp3152
g73
(dp3153
g81
I3
ssg82
g3147
sg75
(lp3154
S''
asbasbasbag68
(g84
g70
NtRp3155
(dp3156
g73
(dp3157
sg82
g3071
sg75
(lp3158
g68
(g89
g70
NtRp3159
(dp3160
g73
(dp3161
g93
g94
ssg82
g3155
sg75
(lp3162
g366
asbag68
(g89
g70
NtRp3163
(dp3164
g73
(dp3165
g100
g101
ssg82
g3155
sg75
(lp3166
S':'
asbag68
(g89
g70
NtRp3167
(dp3168
g73
(dp3169
sg82
g3155
sg75
(lp3170
g68
(g69
g70
NtRp3171
(dp3172
g73
(dp3173
g81
I3
ssg82
g3167
sg75
(lp3174
S''
asbasbasbag68
(g84
g70
NtRp3175
(dp3176
g73
(dp3177
sg82
g3071
sg75
(lp3178
g68
(g89
g70
NtRp3179
(dp3180
g73
(dp3181
g93
g94
ssg82
g3175
sg75
(lp3182
g387
asbag68
(g89
g70
NtRp3183
(dp3184
g73
(dp3185
g100
g101
ssg82
g3175
sg75
(lp3186
S':'
asbag68
(g89
g70
NtRp3187
(dp3188
g73
(dp3189
sg82
g3175
sg75
(lp3190
g68
(g69
g70
NtRp3191
(dp3192
g73
(dp3193
g81
I3
ssg82
g3187
sg75
(lp3194
S'/'
asbasbasbag68
(g84
g70
NtRp3195
(dp3196
g73
(dp3197
sg82
g3071
sg75
(lp3198
g68
(g89
g70
NtRp3199
(dp3200
g73
(dp3201
g93
g94
ssg82
g3195
sg75
(lp3202
g408
asbag68
(g89
g70
NtRp3203
(dp3204
g73
(dp3205
g100
g101
ssg82
g3195
sg75
(lp3206
S':'
asbag68
(g89
g70
NtRp3207
(dp3208
g73
(dp3209
sg82
g3195
sg75
(lp3210
g68
(g69
g70
NtRp3211
(dp3212
g73
(dp3213
g81
I3
ssg82
g3207
sg75
(lp3214
S''
asbasbasbag68
(g84
g70
NtRp3215
(dp3216
g73
(dp3217
sg82
g3071
sg75
(lp3218
g68
(g89
g70
NtRp3219
(dp3220
g73
(dp3221
g93
g94
ssg82
g3215
sg75
(lp3222
g429
asbag68
(g89
g70
NtRp3223
(dp3224
g73
(dp3225
g100
g101
ssg82
g3215
sg75
(lp3226
S':'
asbag68
(g89
g70
NtRp3227
(dp3228
g73
(dp3229
sg82
g3215
sg75
(lp3230
g68
(g69
g70
NtRp3231
(dp3232
g73
(dp3233
g81
I3
ssg82
g3227
sg75
(lp3234
S''
asbasbasbasbasbasbasbasbasbasbasbag68
(g84
g70
NtRp3235
(dp3236
g73
(dp3237
sg82
g3001
sg75
(lp3238
g68
(g89
g70
NtRp3239
(dp3240
g73
(dp3241
g93
g94
ssg82
g3235
sg75
(lp3242
S'delimiters'
p3243
asbag68
(g89
g70
NtRp3244
(dp3245
g73
(dp3246
g100
g101
ssg82
g3235
sg75
(lp3247
S':'
asbag68
(g89
g70
NtRp3248
(dp3249
g73
(dp3250
sg82
g3235
sg75
(lp3251
g68
(g69
g70
NtRp3252
(dp3253
g73
(dp3254
g81
I5
ssg82
g3248
sg75
(lp3255
g68
(g77
g70
NtRp3256
(dp3257
g73
(dp3258
g81
I4
ssg82
Nsg75
(lp3259
g68
(g84
g70
NtRp3260
(dp3261
g73
(dp3262
sg82
g3256
sg75
(lp3263
g68
(g89
g70
NtRp3264
(dp3265
g73
(dp3266
sg82
g3260
sg75
(lp3267
g68
(g69
g70
NtRp3268
(dp3269
g73
(dp3270
g81
I4
ssg82
g3264
sg75
(lp3271
S'{{'
p3272
asbasbasbag68
(g84
g70
NtRp3273
(dp3274
g73
(dp3275
sg82
g3256
sg75
(lp3276
g68
(g89
g70
NtRp3277
(dp3278
g73
(dp3279
sg82
g3273
sg75
(lp3280
g68
(g69
g70
NtRp3281
(dp3282
g73
(dp3283
g81
I4
ssg82
g3277
sg75
(lp3284
S'}}'
p3285
asbasbasbasbasbasbasbag68
(g84
g70
NtRp3286
(dp3287
g73
(dp3288
sg82
g3001
sg75
(lp3289
g68
(g89
g70
NtRp3290
(dp3291
g73
(dp3292
g93
g94
ssg82
g3286
sg75
(lp3293
S'files'
p3294
asbag68
(g89
g70
NtRp3295
(dp3296
g73
(dp3297
g100
g101
ssg82
g3286
sg75
(lp3298
S':'
asbag68
(g89
g70
NtRp3299
(dp3300
g73
(dp3301
sg82
g3286
sg75
(lp3302
g68
(g69
g70
NtRp3303
(dp3304
g73
(dp3305
g81
I5
ssg82
g3299
sg75
(lp3306
g68
(g77
g70
NtRp3307
(dp3308
g73
(dp3309
g81
I4
ssg82
Nsg75
(lp3310
sbasbasbasbag68
(g84
g70
NtRp3311
(dp3312
g73
(dp3313
sg82
g3001
sg75
(lp3314
g68
(g89
g70
NtRp3315
(dp3316
g73
(dp3317
g93
g94
ssg82
g3311
sg75
(lp3318
S'flash'
p3319
asbag68
(g89
g70
NtRp3320
(dp3321
g73
(dp3322
g100
g101
ssg82
g3311
sg75
(lp3323
S':'
asbag68
(g89
g70
NtRp3324
(dp3325
g73
(dp3326
sg82
g3311
sg75
(lp3327
g68
(g69
g70
NtRp3328
(dp3329
g73
(dp3330
g81
I5
ssg82
g3324
sg75
(lp3331
S''
asbasbasbag68
(g84
g70
NtRp3332
(dp3333
g73
(dp3334
sg82
g3001
sg75
(lp3335
g68
(g89
g70
NtRp3336
(dp3337
g73
(dp3338
g93
g94
ssg82
g3332
sg75
(lp3339
S'generic_patterns'
p3340
asbag68
(g89
g70
NtRp3341
(dp3342
g73
(dp3343
g100
g101
ssg82
g3332
sg75
(lp3344
S':'
asbag68
(g89
g70
NtRp3345
(dp3346
g73
(dp3347
sg82
g3332
sg75
(lp3348
g68
(g69
g70
NtRp3349
(dp3350
g73
(dp3351
g81
I5
ssg82
g3345
sg75
(lp3352
g68
(g77
g70
NtRp3353
(dp3354
g73
(dp3355
g81
I4
ssg82
Nsg75
(lp3356
g68
(g84
g70
NtRp3357
(dp3358
g73
(dp3359
sg82
g3353
sg75
(lp3360
g68
(g89
g70
NtRp3361
(dp3362
g73
(dp3363
sg82
g3357
sg75
(lp3364
g68
(g69
g70
NtRp3365
(dp3366
g73
(dp3367
g81
I4
ssg82
g3361
sg75
(lp3368
S'*'
asbasbasbasbasbasbasbag68
(g84
g70
NtRp3369
(dp3370
g73
(dp3371
sg82
g3001
sg75
(lp3372
g68
(g89
g70
NtRp3373
(dp3374
g73
(dp3375
g93
g94
ssg82
g3369
sg75
(lp3376
S'headers'
p3377
asbag68
(g89
g70
NtRp3378
(dp3379
g73
(dp3380
g100
g101
ssg82
g3369
sg75
(lp3381
S':'
asbag68
(g89
g70
NtRp3382
(dp3383
g73
(dp3384
sg82
g3369
sg75
(lp3385
g68
(g69
g70
NtRp3386
(dp3387
g73
(dp3388
g81
I5
ssg82
g3382
sg75
(lp3389
g68
(g77
g70
NtRp3390
(dp3391
g73
(dp3392
g81
I4
ssg82
Nsg75
(lp3393
g68
(g84
g70
NtRp3394
(dp3395
g73
(dp3396
sg82
g3390
sg75
(lp3397
g68
(g89
g70
NtRp3398
(dp3399
g73
(dp3400
g93
g94
ssg82
g3394
sg75
(lp3401
S'Cache-Control'
p3402
asbag68
(g89
g70
NtRp3403
(dp3404
g73
(dp3405
g100
g101
ssg82
g3394
sg75
(lp3406
S':'
asbag68
(g89
g70
NtRp3407
(dp3408
g73
(dp3409
sg82
g3394
sg75
(lp3410
g68
(g69
g70
NtRp3411
(dp3412
g73
(dp3413
g81
I4
ssg82
g3407
sg75
(lp3414
S'no-store, no-cache, must-revalidate, post-check=0, pre-check=0'
p3415
asbasbasbag68
(g84
g70
NtRp3416
(dp3417
g73
(dp3418
sg82
g3390
sg75
(lp3419
g68
(g89
g70
NtRp3420
(dp3421
g73
(dp3422
g93
g94
ssg82
g3416
sg75
(lp3423
S'Content-Type'
p3424
asbag68
(g89
g70
NtRp3425
(dp3426
g73
(dp3427
g100
g101
ssg82
g3416
sg75
(lp3428
S':'
asbag68
(g89
g70
NtRp3429
(dp3430
g73
(dp3431
sg82
g3416
sg75
(lp3432
g68
(g69
g70
NtRp3433
(dp3434
g73
(dp3435
g81
I4
ssg82
g3429
sg75
(lp3436
S'text/html; charset=utf-8'
p3437
asbasbasbag68
(g84
g70
NtRp3438
(dp3439
g73
(dp3440
sg82
g3390
sg75
(lp3441
g68
(g89
g70
NtRp3442
(dp3443
g73
(dp3444
g93
g94
ssg82
g3438
sg75
(lp3445
S'Expires'
p3446
asbag68
(g89
g70
NtRp3447
(dp3448
g73
(dp3449
g100
g101
ssg82
g3438
sg75
(lp3450
S':'
asbag68
(g89
g70
NtRp3451
(dp3452
g73
(dp3453
sg82
g3438
sg75
(lp3454
g68
(g69
g70
NtRp3455
(dp3456
g73
(dp3457
g81
I4
ssg82
g3451
sg75
(lp3458
S'Sat, 09 May 2015 10:22:11 GMT'
p3459
asbasbasbag68
(g84
g70
NtRp3460
(dp3461
g73
(dp3462
sg82
g3390
sg75
(lp3463
g68
(g89
g70
NtRp3464
(dp3465
g73
(dp3466
g93
g94
ssg82
g3460
sg75
(lp3467
S'Pragma'
p3468
asbag68
(g89
g70
NtRp3469
(dp3470
g73
(dp3471
g100
g101
ssg82
g3460
sg75
(lp3472
S':'
asbag68
(g89
g70
NtRp3473
(dp3474
g73
(dp3475
sg82
g3460
sg75
(lp3476
g68
(g69
g70
NtRp3477
(dp3478
g73
(dp3479
g81
I4
ssg82
g3473
sg75
(lp3480
S'no-cache'
p3481
asbasbasbag68
(g84
g70
NtRp3482
(dp3483
g73
(dp3484
sg82
g3390
sg75
(lp3485
g68
(g89
g70
NtRp3486
(dp3487
g73
(dp3488
g93
g94
ssg82
g3482
sg75
(lp3489
S'X-Powered-By'
p3490
asbag68
(g89
g70
NtRp3491
(dp3492
g73
(dp3493
g100
g101
ssg82
g3482
sg75
(lp3494
S':'
asbag68
(g89
g70
NtRp3495
(dp3496
g73
(dp3497
sg82
g3482
sg75
(lp3498
g68
(g69
g70
NtRp3499
(dp3500
g73
(dp3501
g81
I4
ssg82
g3495
sg75
(lp3502
S'web2py'
p3503
asbasbasbasbasbasbasbag68
(g84
g70
NtRp3504
(dp3505
g73
(dp3506
sg82
g3001
sg75
(lp3507
g68
(g89
g70
NtRp3508
(dp3509
g73
(dp3510
g93
g94
ssg82
g3504
sg75
(lp3511
S'menu'
p3512
asbag68
(g89
g70
NtRp3513
(dp3514
g73
(dp3515
g100
g101
ssg82
g3504
sg75
(lp3516
S':'
asbag68
(g89
g70
NtRp3517
(dp3518
g73
(dp3519
sg82
g3504
sg75
(lp3520
g68
(g69
g70
NtRp3521
(dp3522
g73
(dp3523
g81
I5
ssg82
g3517
sg75
(lp3524
g68
(g77
g70
NtRp3525
(dp3526
g73
(dp3527
g81
I4
ssg82
Nsg75
(lp3528
g68
(g84
g70
NtRp3529
(dp3530
g73
(dp3531
sg82
g3525
sg75
(lp3532
g68
(g89
g70
NtRp3533
(dp3534
g73
(dp3535
sg82
g3529
sg75
(lp3536
g68
(g69
g70
NtRp3537
(dp3538
g73
(dp3539
g81
I4
ssg82
g3533
sg75
(lp3540
g68
(g77
g70
NtRp3541
(dp3542
g73
(dp3543
g81
I3
ssg82
Nsg75
(lp3544
g68
(g84
g70
NtRp3545
(dp3546
g73
(dp3547
sg82
g3541
sg75
(lp3548
g68
(g89
g70
NtRp3549
(dp3550
g73
(dp3551
sg82
g3545
sg75
(lp3552
g68
(g69
g70
NtRp3553
(dp3554
g73
(dp3555
g81
I3
ssg82
g3549
sg75
(lp3556
cgluon.languages
lazyT_unpickle
p3557
(S't\x04\x00\x00\x00Home'
tRp3558
asbasbasbag68
(g84
g70
NtRp3559
(dp3560
g73
(dp3561
sg82
g3541
sg75
(lp3562
g68
(g89
g70
NtRp3563
(dp3564
g73
(dp3565
sg82
g3559
sg75
(lp3566
g68
(g69
g70
NtRp3567
(dp3568
g73
(dp3569
g81
I3
ssg82
g3563
sg75
(lp3570
g111
asbasbasbag68
(g84
g70
NtRp3571
(dp3572
g73
(dp3573
sg82
g3541
sg75
(lp3574
g68
(g89
g70
NtRp3575
(dp3576
g73
(dp3577
sg82
g3571
sg75
(lp3578
g68
(g69
g70
NtRp3579
(dp3580
g73
(dp3581
g81
I3
ssg82
g3575
sg75
(lp3582
S'/newsapp/default/index'
p3583
asbasbasbag68
(g84
g70
NtRp3584
(dp3585
g73
(dp3586
sg82
g3541
sg75
(lp3587
g68
(g89
g70
NtRp3588
(dp3589
g73
(dp3590
sg82
g3584
sg75
(lp3591
g68
(g69
g70
NtRp3592
(dp3593
g73
(dp3594
g81
I3
ssg82
g3588
sg75
(lp3595
g68
(g77
g70
NtRp3596
(dp3597
g73
(dp3598
g81
I2
ssg82
Nsg75
(lp3599
sbasbasbasbasbasbasbasbag68
(g84
g70
NtRp3600
(dp3601
g73
(dp3602
sg82
g3525
sg75
(lp3603
g68
(g89
g70
NtRp3604
(dp3605
g73
(dp3606
sg82
g3600
sg75
(lp3607
g68
(g69
g70
NtRp3608
(dp3609
g73
(dp3610
g81
I4
ssg82
g3604
sg75
(lp3611
g68
(g77
g70
NtRp3612
(dp3613
g73
(dp3614
g81
I3
ssg82
Nsg75
(lp3615
g68
(g84
g70
NtRp3616
(dp3617
g73
(dp3618
sg82
g3612
sg75
(lp3619
g68
(g89
g70
NtRp3620
(dp3621
g73
(dp3622
sg82
g3616
sg75
(lp3623
g68
(g69
g70
NtRp3624
(dp3625
g73
(dp3626
g81
I3
ssg82
g3620
sg75
(lp3627
g68
(cgluon.html
SPAN
p3628
g70
NtRp3629
(dp3630
g73
(dp3631
g93
S'color:yellow'
p3632
ssg82
Nsg75
(lp3633
g3503
asbasbasbasbag68
(g84
g70
NtRp3634
(dp3635
g73
(dp3636
sg82
g3612
sg75
(lp3637
g68
(g89
g70
NtRp3638
(dp3639
g73
(dp3640
sg82
g3634
sg75
(lp3641
g68
(g69
g70
NtRp3642
(dp3643
g73
(dp3644
g81
I3
ssg82
g3638
sg75
(lp3645
g111
asbasbasbag68
(g84
g70
NtRp3646
(dp3647
g73
(dp3648
sg82
g3612
sg75
(lp3649
g68
(g89
g70
NtRp3650
(dp3651
g73
(dp3652
sg82
g3646
sg75
(lp3653
g68
(g69
g70
NtRp3654
(dp3655
g73
(dp3656
g81
I3
ssg82
g3650
sg75
(lp3657
S'None'
p3658
asbasbasbag68
(g84
g70
NtRp3659
(dp3660
g73
(dp3661
sg82
g3612
sg75
(lp3662
g68
(g89
g70
NtRp3663
(dp3664
g73
(dp3665
sg82
g3659
sg75
(lp3666
g68
(g69
g70
NtRp3667
(dp3668
g73
(dp3669
g81
I3
ssg82
g3663
sg75
(lp3670
g68
(g77
g70
NtRp3671
(dp3672
g73
(dp3673
g81
I2
ssg82
Nsg75
(lp3674
g68
(g84
g70
NtRp3675
(dp3676
g73
(dp3677
sg82
g3671
sg75
(lp3678
g68
(g89
g70
NtRp3679
(dp3680
g73
(dp3681
sg82
g3675
sg75
(lp3682
g68
(g69
g70
NtRp3683
(dp3684
g73
(dp3685
g81
I2
ssg82
g3679
sg75
(lp3686
g68
(g77
g70
NtRp3687
(dp3688
g73
(dp3689
g81
I1
ssg82
Nsg75
(lp3690
g68
(g84
g70
NtRp3691
(dp3692
g73
(dp3693
sg82
g3687
sg75
(lp3694
g68
(g89
g70
NtRp3695
(dp3696
g73
(dp3697
sg82
g3691
sg75
(lp3698
g68
(g69
g70
NtRp3699
(dp3700
g73
(dp3701
g81
I1
ssg82
g3695
sg75
(lp3702
g3557
(S's\x08\x00\x00\x00My Sites'
tRp3703
asbasbasbag68
(g84
g70
NtRp3704
(dp3705
g73
(dp3706
sg82
g3687
sg75
(lp3707
g68
(g89
g70
NtRp3708
(dp3709
g73
(dp3710
sg82
g3704
sg75
(lp3711
g68
(g69
g70
NtRp3712
(dp3713
g73
(dp3714
g81
I1
ssg82
g3708
sg75
(lp3715
I00
asbasbasbag68
(g84
g70
NtRp3716
(dp3717
g73
(dp3718
sg82
g3687
sg75
(lp3719
g68
(g89
g70
NtRp3720
(dp3721
g73
(dp3722
sg82
g3716
sg75
(lp3723
g68
(g69
g70
NtRp3724
(dp3725
g73
(dp3726
g81
I1
ssg82
g3720
sg75
(lp3727
S'/admin/default/site'
p3728
asbasbasbasbasbasbasbag68
(g84
g70
NtRp3729
(dp3730
g73
(dp3731
sg82
g3671
sg75
(lp3732
g68
(g89
g70
NtRp3733
(dp3734
g73
(dp3735
sg82
g3729
sg75
(lp3736
g68
(g69
g70
NtRp3737
(dp3738
g73
(dp3739
g81
I2
ssg82
g3733
sg75
(lp3740
g68
(g77
g70
NtRp3741
(dp3742
g73
(dp3743
g81
I1
ssg82
Nsg75
(lp3744
g68
(g84
g70
NtRp3745
(dp3746
g73
(dp3747
sg82
g3741
sg75
(lp3748
g68
(g89
g70
NtRp3749
(dp3750
g73
(dp3751
sg82
g3745
sg75
(lp3752
g68
(g69
g70
NtRp3753
(dp3754
g73
(dp3755
g81
I1
ssg82
g3749
sg75
(lp3756
g3557
(S's\x08\x00\x00\x00This App'
tRp3757
asbasbasbag68
(g84
g70
NtRp3758
(dp3759
g73
(dp3760
sg82
g3741
sg75
(lp3761
g68
(g89
g70
NtRp3762
(dp3763
g73
(dp3764
sg82
g3758
sg75
(lp3765
g68
(g69
g70
NtRp3766
(dp3767
g73
(dp3768
g81
I1
ssg82
g3762
sg75
(lp3769
I00
asbasbasbag68
(g84
g70
NtRp3770
(dp3771
g73
(dp3772
sg82
g3741
sg75
(lp3773
g68
(g89
g70
NtRp3774
(dp3775
g73
(dp3776
sg82
g3770
sg75
(lp3777
g68
(g69
g70
NtRp3778
(dp3779
g73
(dp3780
g81
I1
ssg82
g3774
sg75
(lp3781
S'/admin/default/design/newsapp'
p3782
asbasbasbag68
(g84
g70
NtRp3783
(dp3784
g73
(dp3785
sg82
g3741
sg75
(lp3786
g68
(g89
g70
NtRp3787
(dp3788
g73
(dp3789
sg82
g3783
sg75
(lp3790
g68
(g69
g70
NtRp3791
(dp3792
g73
(dp3793
g81
I1
ssg82
g3787
sg75
(lp3794
(lp3795
(g3557
(S't\n\x00\x00\x00Controller'
tRp3796
I00
S'/admin/default/edit/newsapp/controllers/default.py'
tp3797
a(g3557
(S't\x04\x00\x00\x00View'
tRp3798
I00
S'/admin/default/edit/newsapp/views/default/index.html'
tp3799
a(g3557
(S't\x06\x00\x00\x00Layout'
tRp3800
I00
S'/admin/default/edit/newsapp/views/layout.html'
tp3801
a(g3557
(S't\n\x00\x00\x00Stylesheet'
tRp3802
I00
S'/admin/default/edit/newsapp/static/css/web2py.css'
tp3803
a(g3557
(S's\x08\x00\x00\x00DB Model'
tRp3804
I00
S'/admin/default/edit/newsapp/models/db.py'
tp3805
a(g3557
(S's\n\x00\x00\x00Menu Model'
tRp3806
I00
S'/admin/default/edit/newsapp/models/menu.py'
tp3807
a(g3557
(S't\x08\x00\x00\x00Database'
tRp3808
I00
S'/newsapp/appadmin/index'
tp3809
a(g3557
(S't\x06\x00\x00\x00Errors'
tRp3810
I00
S'/admin/default/errors/newsapp'
tp3811
a(g3557
(S't\x05\x00\x00\x00About'
tRp3812
I00
S'/admin/default/about/newsapp'
tp3813
aasbasbasbasbasbasbasbag68
(g84
g70
NtRp3814
(dp3815
g73
(dp3816
sg82
g3671
sg75
(lp3817
g68
(g89
g70
NtRp3818
(dp3819
g73
(dp3820
sg82
g3814
sg75
(lp3821
g68
(g69
g70
NtRp3822
(dp3823
g73
(dp3824
g81
I2
ssg82
g3818
sg75
(lp3825
g68
(g77
g70
NtRp3826
(dp3827
g73
(dp3828
g81
I1
ssg82
Nsg75
(lp3829
g68
(g84
g70
NtRp3830
(dp3831
g73
(dp3832
sg82
g3826
sg75
(lp3833
g68
(g89
g70
NtRp3834
(dp3835
g73
(dp3836
sg82
g3830
sg75
(lp3837
g68
(g69
g70
NtRp3838
(dp3839
g73
(dp3840
g81
I1
ssg82
g3834
sg75
(lp3841
S'web2py.com'
p3842
asbasbasbag68
(g84
g70
NtRp3843
(dp3844
g73
(dp3845
sg82
g3826
sg75
(lp3846
g68
(g89
g70
NtRp3847
(dp3848
g73
(dp3849
sg82
g3843
sg75
(lp3850
g68
(g69
g70
NtRp3851
(dp3852
g73
(dp3853
g81
I1
ssg82
g3847
sg75
(lp3854
I00
asbasbasbag68
(g84
g70
NtRp3855
(dp3856
g73
(dp3857
sg82
g3826
sg75
(lp3858
g68
(g89
g70
NtRp3859
(dp3860
g73
(dp3861
sg82
g3855
sg75
(lp3862
g68
(g69
g70
NtRp3863
(dp3864
g73
(dp3865
g81
I1
ssg82
g3859
sg75
(lp3866
S'http://www.web2py.com'
p3867
asbasbasbag68
(g84
g70
NtRp3868
(dp3869
g73
(dp3870
sg82
g3826
sg75
(lp3871
g68
(g89
g70
NtRp3872
(dp3873
g73
(dp3874
sg82
g3868
sg75
(lp3875
g68
(g69
g70
NtRp3876
(dp3877
g73
(dp3878
g81
I1
ssg82
g3872
sg75
(lp3879
(lp3880
(g3557
(S't\x08\x00\x00\x00Download'
tRp3881
I00
S'http://www.web2py.com/examples/default/download'
p3882
tp3883
a(g3557
(S't\x07\x00\x00\x00Support'
tRp3884
I00
S'http://www.web2py.com/examples/default/support'
p3885
tp3886
a(g3557
(S't\x04\x00\x00\x00Demo'
tRp3887
I00
S'http://web2py.com/demo_admin'
p3888
tp3889
a(g3557
(S's\x0e\x00\x00\x00Quick Examples'
tRp3890
I00
S'http://web2py.com/examples/default/examples'
p3891
tp3892
a(g3557
(S't\x03\x00\x00\x00FAQ'
tRp3893
I00
S'http://web2py.com/AlterEgo'
p3894
tp3895
a(g3557
(S't\x06\x00\x00\x00Videos'
tRp3896
I00
S'http://www.web2py.com/examples/default/videos/'
p3897
tp3898
a(g3557
(S's\x11\x00\x00\x00Free Applications'
tRp3899
I00
S'http://web2py.com/appliances'
p3900
tp3901
a(g3557
(S't\x07\x00\x00\x00Plugins'
tRp3902
I00
S'http://web2py.com/plugins'
p3903
tp3904
a(g3557
(S't\x07\x00\x00\x00Layouts'
tRp3905
I00
S'http://web2py.com/layouts'
p3906
tp3907
a(g3557
(S't\x07\x00\x00\x00Recipes'
tRp3908
I00
S'http://web2pyslices.com/'
p3909
tp3910
a(g3557
(S't\x08\x00\x00\x00Semantic'
tRp3911
I00
S'http://web2py.com/semantic'
p3912
tp3913
aasbasbasbasbasbasbasbag68
(g84
g70
NtRp3914
(dp3915
g73
(dp3916
sg82
g3671
sg75
(lp3917
g68
(g89
g70
NtRp3918
(dp3919
g73
(dp3920
sg82
g3914
sg75
(lp3921
g68
(g69
g70
NtRp3922
(dp3923
g73
(dp3924
g81
I2
ssg82
g3918
sg75
(lp3925
g68
(g77
g70
NtRp3926
(dp3927
g73
(dp3928
g81
I1
ssg82
Nsg75
(lp3929
g68
(g84
g70
NtRp3930
(dp3931
g73
(dp3932
sg82
g3926
sg75
(lp3933
g68
(g89
g70
NtRp3934
(dp3935
g73
(dp3936
sg82
g3930
sg75
(lp3937
g68
(g69
g70
NtRp3938
(dp3939
g73
(dp3940
g81
I1
ssg82
g3934
sg75
(lp3941
g3557
(S't\r\x00\x00\x00Documentation'
tRp3942
asbasbasbag68
(g84
g70
NtRp3943
(dp3944
g73
(dp3945
sg82
g3926
sg75
(lp3946
g68
(g89
g70
NtRp3947
(dp3948
g73
(dp3949
sg82
g3943
sg75
(lp3950
g68
(g69
g70
NtRp3951
(dp3952
g73
(dp3953
g81
I1
ssg82
g3947
sg75
(lp3954
I00
asbasbasbag68
(g84
g70
NtRp3955
(dp3956
g73
(dp3957
sg82
g3926
sg75
(lp3958
g68
(g89
g70
NtRp3959
(dp3960
g73
(dp3961
sg82
g3955
sg75
(lp3962
g68
(g69
g70
NtRp3963
(dp3964
g73
(dp3965
g81
I1
ssg82
g3959
sg75
(lp3966
S'http://www.web2py.com/book'
p3967
asbasbasbag68
(g84
g70
NtRp3968
(dp3969
g73
(dp3970
sg82
g3926
sg75
(lp3971
g68
(g89
g70
NtRp3972
(dp3973
g73
(dp3974
sg82
g3968
sg75
(lp3975
g68
(g69
g70
NtRp3976
(dp3977
g73
(dp3978
g81
I1
ssg82
g3972
sg75
(lp3979
(lp3980
(g3557
(S't\x07\x00\x00\x00Preface'
tRp3981
I00
S'http://www.web2py.com/book/default/chapter/00'
p3982
tp3983
a(g3557
(S't\x0c\x00\x00\x00Introduction'
tRp3984
I00
S'http://www.web2py.com/book/default/chapter/01'
p3985
tp3986
a(g3557
(S't\x06\x00\x00\x00Python'
tRp3987
I00
S'http://www.web2py.com/book/default/chapter/02'
p3988
tp3989
a(g3557
(S't\x08\x00\x00\x00Overview'
tRp3990
I00
S'http://www.web2py.com/book/default/chapter/03'
p3991
tp3992
a(g3557
(S's\x08\x00\x00\x00The Core'
tRp3993
I00
S'http://www.web2py.com/book/default/chapter/04'
p3994
tp3995
a(g3557
(S's\t\x00\x00\x00The Views'
tRp3996
I00
S'http://www.web2py.com/book/default/chapter/05'
p3997
tp3998
a(g3557
(S't\x08\x00\x00\x00Database'
tRp3999
I00
S'http://www.web2py.com/book/default/chapter/06'
p4000
tp4001
a(g3557
(S's\x14\x00\x00\x00Forms and Validators'
tRp4002
I00
S'http://www.web2py.com/book/default/chapter/07'
p4003
tp4004
a(g3557
(S's\r\x00\x00\x00Email and SMS'
tRp4005
I00
S'http://www.web2py.com/book/default/chapter/08'
p4006
tp4007
a(g3557
(S's\x0e\x00\x00\x00Access Control'
tRp4008
I00
S'http://www.web2py.com/book/default/chapter/09'
p4009
tp4010
a(g3557
(S't\x08\x00\x00\x00Services'
tRp4011
I00
S'http://www.web2py.com/book/default/chapter/10'
p4012
tp4013
a(g3557
(S's\x0c\x00\x00\x00Ajax Recipes'
tRp4014
I00
S'http://www.web2py.com/book/default/chapter/11'
p4015
tp4016
a(g3557
(S's\x16\x00\x00\x00Components and Plugins'
tRp4017
I00
S'http://www.web2py.com/book/default/chapter/12'
p4018
tp4019
a(g3557
(S's\x12\x00\x00\x00Deployment Recipes'
tRp4020
I00
S'http://www.web2py.com/book/default/chapter/13'
p4021
tp4022
a(g3557
(S's\r\x00\x00\x00Other Recipes'
tRp4023
I00
S'http://www.web2py.com/book/default/chapter/14'
p4024
tp4025
a(g3557
(S's\r\x00\x00\x00Buy this book'
tRp4026
I00
S'http://stores.lulu.com/web2py'
p4027
tp4028
aasbasbasbasbasbasbasbag68
(g84
g70
NtRp4029
(dp4030
g73
(dp4031
sg82
g3671
sg75
(lp4032
g68
(g89
g70
NtRp4033
(dp4034
g73
(dp4035
sg82
g4029
sg75
(lp4036
g68
(g69
g70
NtRp4037
(dp4038
g73
(dp4039
g81
I2
ssg82
g4033
sg75
(lp4040
g68
(g77
g70
NtRp4041
(dp4042
g73
(dp4043
g81
I1
ssg82
Nsg75
(lp4044
g68
(g84
g70
NtRp4045
(dp4046
g73
(dp4047
sg82
g4041
sg75
(lp4048
g68
(g89
g70
NtRp4049
(dp4050
g73
(dp4051
sg82
g4045
sg75
(lp4052
g68
(g69
g70
NtRp4053
(dp4054
g73
(dp4055
g81
I1
ssg82
g4049
sg75
(lp4056
g3557
(S't\t\x00\x00\x00Community'
tRp4057
asbasbasbag68
(g84
g70
NtRp4058
(dp4059
g73
(dp4060
sg82
g4041
sg75
(lp4061
g68
(g89
g70
NtRp4062
(dp4063
g73
(dp4064
sg82
g4058
sg75
(lp4065
g68
(g69
g70
NtRp4066
(dp4067
g73
(dp4068
g81
I1
ssg82
g4062
sg75
(lp4069
I00
asbasbasbag68
(g84
g70
NtRp4070
(dp4071
g73
(dp4072
sg82
g4041
sg75
(lp4073
g68
(g89
g70
NtRp4074
(dp4075
g73
(dp4076
sg82
g4070
sg75
(lp4077
g68
(g69
g70
NtRp4078
(dp4079
g73
(dp4080
g81
I1
ssg82
g4074
sg75
(lp4081
Nasbasbasbag68
(g84
g70
NtRp4082
(dp4083
g73
(dp4084
sg82
g4041
sg75
(lp4085
g68
(g89
g70
NtRp4086
(dp4087
g73
(dp4088
sg82
g4082
sg75
(lp4089
g68
(g69
g70
NtRp4090
(dp4091
g73
(dp4092
g81
I1
ssg82
g4086
sg75
(lp4093
(lp4094
(g3557
(S't\x06\x00\x00\x00Groups'
tRp4095
I00
S'http://www.web2py.com/examples/default/usergroups'
p4096
tp4097
a(g3557
(S't\x07\x00\x00\x00Twitter'
tRp4098
I00
S'http://twitter.com/web2py'
p4099
tp4100
a(g3557
(S's\t\x00\x00\x00Live Chat'
tRp4101
I00
S'http://webchat.freenode.net/?channels=web2py'
p4102
tp4103
aasbasbasbasbasbasbasbag68
(g84
g70
NtRp4104
(dp4105
g73
(dp4106
sg82
g3671
sg75
(lp4107
g68
(g89
g70
NtRp4108
(dp4109
g73
(dp4110
sg82
g4104
sg75
(lp4111
g68
(g69
g70
NtRp4112
(dp4113
g73
(dp4114
g81
I2
ssg82
g4108
sg75
(lp4115
g68
(g77
g70
NtRp4116
(dp4117
g73
(dp4118
g81
I1
ssg82
Nsg75
(lp4119
g68
(g84
g70
NtRp4120
(dp4121
g73
(dp4122
sg82
g4116
sg75
(lp4123
g68
(g89
g70
NtRp4124
(dp4125
g73
(dp4126
sg82
g4120
sg75
(lp4127
g68
(g69
g70
NtRp4128
(dp4129
g73
(dp4130
g81
I1
ssg82
g4124
sg75
(lp4131
g3557
(S't\x07\x00\x00\x00Plugins'
tRp4132
asbasbasbag68
(g84
g70
NtRp4133
(dp4134
g73
(dp4135
sg82
g4116
sg75
(lp4136
g68
(g89
g70
NtRp4137
(dp4138
g73
(dp4139
sg82
g4133
sg75
(lp4140
g68
(g69
g70
NtRp4141
(dp4142
g73
(dp4143
g81
I1
ssg82
g4137
sg75
(lp4144
I00
asbasbasbag68
(g84
g70
NtRp4145
(dp4146
g73
(dp4147
sg82
g4116
sg75
(lp4148
g68
(g89
g70
NtRp4149
(dp4150
g73
(dp4151
sg82
g4145
sg75
(lp4152
g68
(g69
g70
NtRp4153
(dp4154
g73
(dp4155
g81
I1
ssg82
g4149
sg75
(lp4156
Nasbasbasbag68
(g84
g70
NtRp4157
(dp4158
g73
(dp4159
sg82
g4116
sg75
(lp4160
g68
(g89
g70
NtRp4161
(dp4162
g73
(dp4163
sg82
g4157
sg75
(lp4164
g68
(g69
g70
NtRp4165
(dp4166
g73
(dp4167
g81
I1
ssg82
g4161
sg75
(lp4168
(lp4169
(S'plugin_wiki'
p4170
I00
S'http://web2py.com/examples/default/download'
p4171
tp4172
a(g3557
(S's\r\x00\x00\x00Other Plugins'
tRp4173
I00
g3903
tp4174
a(g3557
(S's\x0e\x00\x00\x00Layout Plugins'
tRp4175
I00
g3906
tp4176
aasbasbasbasbasbasbasbasbasbasbasbasbasbasbasbasbasbasbasbag68
(g84
g70
NtRp4177
(dp4178
g73
(dp4179
sg82
g3001
sg75
(lp4180
g68
(g89
g70
NtRp4181
(dp4182
g73
(dp4183
g93
g94
ssg82
g4177
sg75
(lp4184
S'meta'
p4185
asbag68
(g89
g70
NtRp4186
(dp4187
g73
(dp4188
g100
g101
ssg82
g4177
sg75
(lp4189
S':'
asbag68
(g89
g70
NtRp4190
(dp4191
g73
(dp4192
sg82
g4177
sg75
(lp4193
g68
(g69
g70
NtRp4194
(dp4195
g73
(dp4196
g81
I5
ssg82
g4190
sg75
(lp4197
g68
(g77
g70
NtRp4198
(dp4199
g73
(dp4200
g81
I4
ssg82
Nsg75
(lp4201
g68
(g84
g70
NtRp4202
(dp4203
g73
(dp4204
sg82
g4198
sg75
(lp4205
g68
(g89
g70
NtRp4206
(dp4207
g73
(dp4208
g93
g94
ssg82
g4202
sg75
(lp4209
S'author'
p4210
asbag68
(g89
g70
NtRp4211
(dp4212
g73
(dp4213
g100
g101
ssg82
g4202
sg75
(lp4214
S':'
asbag68
(g89
g70
NtRp4215
(dp4216
g73
(dp4217
sg82
g4202
sg75
(lp4218
g68
(g69
g70
NtRp4219
(dp4220
g73
(dp4221
g81
I4
ssg82
g4215
sg75
(lp4222
S'Your Name <you@example.com>'
p4223
asbasbasbag68
(g84
g70
NtRp4224
(dp4225
g73
(dp4226
sg82
g4198
sg75
(lp4227
g68
(g89
g70
NtRp4228
(dp4229
g73
(dp4230
g93
g94
ssg82
g4224
sg75
(lp4231
S'copyright'
p4232
asbag68
(g89
g70
NtRp4233
(dp4234
g73
(dp4235
g100
g101
ssg82
g4224
sg75
(lp4236
S':'
asbag68
(g89
g70
NtRp4237
(dp4238
g73
(dp4239
sg82
g4224
sg75
(lp4240
g68
(g69
g70
NtRp4241
(dp4242
g73
(dp4243
g81
I4
ssg82
g4237
sg75
(lp4244
S'Copyright 2011'
p4245
asbasbasbag68
(g84
g70
NtRp4246
(dp4247
g73
(dp4248
sg82
g4198
sg75
(lp4249
g68
(g89
g70
NtRp4250
(dp4251
g73
(dp4252
g93
g94
ssg82
g4246
sg75
(lp4253
S'description'
p4254
asbag68
(g89
g70
NtRp4255
(dp4256
g73
(dp4257
g100
g101
ssg82
g4246
sg75
(lp4258
S':'
asbag68
(g89
g70
NtRp4259
(dp4260
g73
(dp4261
sg82
g4246
sg75
(lp4262
g68
(g69
g70
NtRp4263
(dp4264
g73
(dp4265
g81
I4
ssg82
g4259
sg75
(lp4266
S'a cool new app'
p4267
asbasbasbag68
(g84
g70
NtRp4268
(dp4269
g73
(dp4270
sg82
g4198
sg75
(lp4271
g68
(g89
g70
NtRp4272
(dp4273
g73
(dp4274
g93
g94
ssg82
g4268
sg75
(lp4275
S'generator'
p4276
asbag68
(g89
g70
NtRp4277
(dp4278
g73
(dp4279
g100
g101
ssg82
g4268
sg75
(lp4280
S':'
asbag68
(g89
g70
NtRp4281
(dp4282
g73
(dp4283
sg82
g4268
sg75
(lp4284
g68
(g69
g70
NtRp4285
(dp4286
g73
(dp4287
g81
I4
ssg82
g4281
sg75
(lp4288
S'Web2py Web Framework'
p4289
asbasbasbag68
(g84
g70
NtRp4290
(dp4291
g73
(dp4292
sg82
g4198
sg75
(lp4293
g68
(g89
g70
NtRp4294
(dp4295
g73
(dp4296
g93
g94
ssg82
g4290
sg75
(lp4297
S'keywords'
p4298
asbag68
(g89
g70
NtRp4299
(dp4300
g73
(dp4301
g100
g101
ssg82
g4290
sg75
(lp4302
S':'
asbag68
(g89
g70
NtRp4303
(dp4304
g73
(dp4305
sg82
g4290
sg75
(lp4306
g68
(g69
g70
NtRp4307
(dp4308
g73
(dp4309
g81
I4
ssg82
g4303
sg75
(lp4310
S'web2py, python, framework'
p4311
asbasbasbasbasbasbasbag68
(g84
g70
NtRp4312
(dp4313
g73
(dp4314
sg82
g3001
sg75
(lp4315
g68
(g89
g70
NtRp4316
(dp4317
g73
(dp4318
g93
g94
ssg82
g4312
sg75
(lp4319
S'postprocessing'
p4320
asbag68
(g89
g70
NtRp4321
(dp4322
g73
(dp4323
g100
g101
ssg82
g4312
sg75
(lp4324
S':'
asbag68
(g89
g70
NtRp4325
(dp4326
g73
(dp4327
sg82
g4312
sg75
(lp4328
g68
(g69
g70
NtRp4329
(dp4330
g73
(dp4331
g81
I5
ssg82
g4325
sg75
(lp4332
g68
(g77
g70
NtRp4333
(dp4334
g73
(dp4335
g81
I4
ssg82
Nsg75
(lp4336
sbasbasbasbag68
(g84
g70
NtRp4337
(dp4338
g73
(dp4339
sg82
g3001
sg75
(lp4340
g68
(g89
g70
NtRp4341
(dp4342
g73
(dp4343
g93
g94
ssg82
g4337
sg75
(lp4344
S'session_filename'
p4345
asbag68
(g89
g70
NtRp4346
(dp4347
g73
(dp4348
g100
g101
ssg82
g4337
sg75
(lp4349
S':'
asbag68
(g89
g70
NtRp4350
(dp4351
g73
(dp4352
sg82
g4337
sg75
(lp4353
g68
(g69
g70
NtRp4354
(dp4355
g73
(dp4356
g81
I5
ssg82
g4350
sg75
(lp4357
S'/home/pooja/web2py/applications/newsapp/sessions/127.0.0.1-e105cd52-ff8a-41f7-adac-d049ad4d23f0'
p4358
asbasbasbag68
(g84
g70
NtRp4359
(dp4360
g73
(dp4361
sg82
g3001
sg75
(lp4362
g68
(g89
g70
NtRp4363
(dp4364
g73
(dp4365
g93
g94
ssg82
g4359
sg75
(lp4366
S'session_id'
p4367
asbag68
(g89
g70
NtRp4368
(dp4369
g73
(dp4370
g100
g101
ssg82
g4359
sg75
(lp4371
S':'
asbag68
(g89
g70
NtRp4372
(dp4373
g73
(dp4374
sg82
g4359
sg75
(lp4375
g68
(g69
g70
NtRp4376
(dp4377
g73
(dp4378
g81
I5
ssg82
g4372
sg75
(lp4379
S'127.0.0.1-e105cd52-ff8a-41f7-adac-d049ad4d23f0'
p4380
asbasbasbag68
(g84
g70
NtRp4381
(dp4382
g73
(dp4383
sg82
g3001
sg75
(lp4384
g68
(g89
g70
NtRp4385
(dp4386
g73
(dp4387
g93
g94
ssg82
g4381
sg75
(lp4388
S'session_id_name'
p4389
asbag68
(g89
g70
NtRp4390
(dp4391
g73
(dp4392
g100
g101
ssg82
g4381
sg75
(lp4393
S':'
asbag68
(g89
g70
NtRp4394
(dp4395
g73
(dp4396
sg82
g4381
sg75
(lp4397
g68
(g69
g70
NtRp4398
(dp4399
g73
(dp4400
g81
I5
ssg82
g4394
sg75
(lp4401
g3058
asbasbasbag68
(g84
g70
NtRp4402
(dp4403
g73
(dp4404
sg82
g3001
sg75
(lp4405
g68
(g89
g70
NtRp4406
(dp4407
g73
(dp4408
g93
g94
ssg82
g4402
sg75
(lp4409
S'session_new'
p4410
asbag68
(g89
g70
NtRp4411
(dp4412
g73
(dp4413
g100
g101
ssg82
g4402
sg75
(lp4414
S':'
asbag68
(g89
g70
NtRp4415
(dp4416
g73
(dp4417
sg82
g4402
sg75
(lp4418
g68
(g69
g70
NtRp4419
(dp4420
g73
(dp4421
g81
I5
ssg82
g4415
sg75
(lp4422
g1645
asbasbasbag68
(g84
g70
NtRp4423
(dp4424
g73
(dp4425
sg82
g3001
sg75
(lp4426
g68
(g89
g70
NtRp4427
(dp4428
g73
(dp4429
g93
g94
ssg82
g4423
sg75
(lp4430
S'status'
p4431
asbag68
(g89
g70
NtRp4432
(dp4433
g73
(dp4434
g100
g101
ssg82
g4423
sg75
(lp4435
S':'
asbag68
(g89
g70
NtRp4436
(dp4437
g73
(dp4438
sg82
g4423
sg75
(lp4439
g68
(g69
g70
NtRp4440
(dp4441
g73
(dp4442
g81
I5
ssg82
g4436
sg75
(lp4443
S'200'
p4444
asbasbasbag68
(g84
g70
NtRp4445
(dp4446
g73
(dp4447
sg82
g3001
sg75
(lp4448
g68
(g89
g70
NtRp4449
(dp4450
g73
(dp4451
g93
g94
ssg82
g4445
sg75
(lp4452
S'subtitle'
p4453
asbag68
(g89
g70
NtRp4454
(dp4455
g73
(dp4456
g100
g101
ssg82
g4445
sg75
(lp4457
S':'
asbag68
(g89
g70
NtRp4458
(dp4459
g73
(dp4460
sg82
g4445
sg75
(lp4461
g68
(g69
g70
NtRp4462
(dp4463
g73
(dp4464
g81
I5
ssg82
g4458
sg75
(lp4465
g3557
(S's\r\x00\x00\x00customize me!'
tRp4466
asbasbasbag68
(g84
g70
NtRp4467
(dp4468
g73
(dp4469
sg82
g3001
sg75
(lp4470
g68
(g89
g70
NtRp4471
(dp4472
g73
(dp4473
g93
g94
ssg82
g4467
sg75
(lp4474
S'title'
p4475
asbag68
(g89
g70
NtRp4476
(dp4477
g73
(dp4478
g100
g101
ssg82
g4467
sg75
(lp4479
S':'
asbag68
(g89
g70
NtRp4480
(dp4481
g73
(dp4482
sg82
g4467
sg75
(lp4483
g68
(g69
g70
NtRp4484
(dp4485
g73
(dp4486
g81
I5
ssg82
g4480
sg75
(lp4487
S'Newsapp'
p4488
asbasbasbag68
(g84
g70
NtRp4489
(dp4490
g73
(dp4491
sg82
g3001
sg75
(lp4492
g68
(g89
g70
NtRp4493
(dp4494
g73
(dp4495
g93
g94
ssg82
g4489
sg75
(lp4496
g2309
asbag68
(g89
g70
NtRp4497
(dp4498
g73
(dp4499
g100
g101
ssg82
g4489
sg75
(lp4500
S':'
asbag68
(g89
g70
NtRp4501
(dp4502
g73
(dp4503
sg82
g4489
sg75
(lp4504
g68
(g69
g70
NtRp4505
(dp4506
g73
(dp4507
g81
I5
ssg82
g4501
sg75
(lp4508
g2322
asbasbasbag68
(g84
g70
NtRp4509
(dp4510
g73
(dp4511
sg82
g3001
sg75
(lp4512
g68
(g89
g70
NtRp4513
(dp4514
g73
(dp4515
g93
g94
ssg82
g4509
sg75
(lp4516
S'view'
p4517
asbag68
(g89
g70
NtRp4518
(dp4519
g73
(dp4520
g100
g101
ssg82
g4509
sg75
(lp4521
S':'
asbag68
(g89
g70
NtRp4522
(dp4523
g73
(dp4524
sg82
g4509
sg75
(lp4525
g68
(g69
g70
NtRp4526
(dp4527
g73
(dp4528
g81
I5
ssg82
g4522
sg75
(lp4529
S'default/index.html'
p4530
asbasbasbasbasbsS'locals'
p4531
(dp4532
g4
S"'/home/pooja/web2py/applications/newsapp/controllers/default.py'"
p4533
sg6
S"'from oauth2 as oauth\\nimport urllib,urllib2\\nfrom ...n dict()\\n\\nresponse._vars=response._caller(index)\\n'"
p4534
sssS'traceback'
p4535
S'Traceback (most recent call last):\n  File "/usr/lib/pymodules/python2.7/gluon/restricted.py", line 204, in restricted\n    ccode = compile2(code,layer)\n  File "/usr/lib/pymodules/python2.7/gluon/restricted.py", line 189, in compile2\n    return compile(code.rstrip().replace(\'\\r\\n\',\'\\n\')+\'\\n\', layer, \'exec\')\n  File "/home/pooja/web2py/applications/newsapp/controllers/default.py", line 1\n    from oauth2 as oauth\n                 ^\nSyntaxError: invalid syntax\n'
p4536
s.