(dp1
S'output'
p2
S"<type 'exceptions.SyntaxError'> invalid syntax (index.html, line 3)"
p3
sS'layer'
p4
S'/home/pooja/web2py/applications/newsapp/views/default/index.html'
p5
sS'code'
p6
S'response.write(\'<!DOCTYPE html>\\n<html>\\n<body>\\n\\n<Button type="button" name ="tw_signin" onclick = \\\'window.location="\', escape=False)\nresponse.write(URL(\'default\', \'tw_signin\')\nresponse.write(\'";\\\'>\\n\\n</body>\\n</html>\\n\', escape=False)'
p7
sS'snapshot'
p8
(dp9
S'exception'
p10
(dp11
S'__getslice__'
p12
S"<method-wrapper '__getslice__' of exceptions.SyntaxError object>"
p13
sS'text'
p14
S'\'response.write(\\\'";\\\\\\\'>\\\\n\\\\n</body>\\\\n</html>\\\\n\\\', escape=False)\\n\''
p15
sS'__str__'
p16
S"<method-wrapper '__str__' of exceptions.SyntaxError object>"
p17
sS'__reduce__'
p18
S'<built-in method __reduce__ of exceptions.SyntaxError object>'
p19
sS'__dict__'
p20
S'{}'
p21
sS'__sizeof__'
p22
S'<built-in method __sizeof__ of exceptions.SyntaxError object>'
p23
sS'__init__'
p24
S"<method-wrapper '__init__' of exceptions.SyntaxError object>"
p25
sS'__setattr__'
p26
S"<method-wrapper '__setattr__' of exceptions.SyntaxError object>"
p27
sS'__reduce_ex__'
p28
S'<built-in method __reduce_ex__ of exceptions.SyntaxError object>'
p29
sS'__new__'
p30
S'<built-in method __new__ of type object>'
p31
sS'__format__'
p32
S'<built-in method __format__ of exceptions.SyntaxError object>'
p33
sS'__class__'
p34
S"<type 'exceptions.SyntaxError'>"
p35
sS'filename'
p36
S"'/home/pooja/web2py/applications/newsapp/views/default/index.html'"
p37
sS'lineno'
p38
S'3'
sS'msg'
p39
S"'invalid syntax'"
p40
sS'__doc__'
p41
S"'Invalid syntax.'"
p42
sS'__getitem__'
p43
S"<method-wrapper '__getitem__' of exceptions.SyntaxError object>"
p44
sS'__setstate__'
p45
S'<built-in method __setstate__ of exceptions.SyntaxError object>'
p46
sS'__getattribute__'
p47
S"<method-wrapper '__getattribute__' of exceptions.SyntaxError object>"
p48
sS'print_file_and_line'
p49
S'None'
p50
sS'args'
p51
S'(\'invalid syntax\', (\'/home/pooja/web2py/applications/newsapp/views/default/index.html\', 3, 8, \'response.write(\\\'";\\\\\\\'>\\\\n\\\\n</body>\\\\n</html>\\\\n\\\', escape=False)\\n\'))'
p52
sS'__subclasshook__'
p53
S'<built-in method __subclasshook__ of type object>'
p54
sS'offset'
p55
S'8'
sS'__unicode__'
p56
S'<built-in method __unicode__ of exceptions.SyntaxError object>'
p57
sS'__delattr__'
p58
S"<method-wrapper '__delattr__' of exceptions.SyntaxError object>"
p59
sS'__repr__'
p60
S"<method-wrapper '__repr__' of exceptions.SyntaxError object>"
p61
sS'__hash__'
p62
S"<method-wrapper '__hash__' of exceptions.SyntaxError object>"
p63
ssS'evalue'
p64
S'invalid syntax (index.html, line 3)'
p65
sS'request'
p66
ccopy_reg
_reconstructor
p67
(cgluon.html
BEAUTIFY
p68
c__builtin__
object
p69
NtRp70
(dp71
S'attributes'
p72
(dp73
sS'components'
p74
(lp75
g67
(cgluon.html
TABLE
p76
g69
NtRp77
(dp78
g72
(dp79
S'level'
p80
I5
ssS'parent'
p81
Nsg74
(lp82
g67
(cgluon.html
TR
p83
g69
NtRp84
(dp85
g72
(dp86
sg81
g77
sg74
(lp87
g67
(cgluon.html
TD
p88
g69
NtRp89
(dp90
g72
(dp91
S'_style'
p92
S'font-weight:bold;vertical-align:top'
p93
ssg81
g84
sg74
(lp94
S'ajax'
p95
asbag67
(g88
g69
NtRp96
(dp97
g72
(dp98
S'_valign'
p99
S'top'
p100
ssg81
g84
sg74
(lp101
S':'
asbag67
(g88
g69
NtRp102
(dp103
g72
(dp104
sg81
g84
sg74
(lp105
g67
(g68
g69
NtRp106
(dp107
g72
(dp108
g80
I5
ssg81
g102
sg74
(lp109
S'False'
p110
asbasbasbag67
(g83
g69
NtRp111
(dp112
g72
(dp113
sg81
g77
sg74
(lp114
g67
(g88
g69
NtRp115
(dp116
g72
(dp117
g92
g93
ssg81
g111
sg74
(lp118
S'application'
p119
asbag67
(g88
g69
NtRp120
(dp121
g72
(dp122
g99
g100
ssg81
g111
sg74
(lp123
S':'
asbag67
(g88
g69
NtRp124
(dp125
g72
(dp126
sg81
g111
sg74
(lp127
g67
(g68
g69
NtRp128
(dp129
g72
(dp130
g80
I5
ssg81
g124
sg74
(lp131
S'newsapp'
p132
asbasbasbag67
(g83
g69
NtRp133
(dp134
g72
(dp135
sg81
g77
sg74
(lp136
g67
(g88
g69
NtRp137
(dp138
g72
(dp139
g92
g93
ssg81
g133
sg74
(lp140
g51
asbag67
(g88
g69
NtRp141
(dp142
g72
(dp143
g99
g100
ssg81
g133
sg74
(lp144
S':'
asbag67
(g88
g69
NtRp145
(dp146
g72
(dp147
sg81
g133
sg74
(lp148
g67
(g68
g69
NtRp149
(dp150
g72
(dp151
g80
I5
ssg81
g145
sg74
(lp152
g67
(g76
g69
NtRp153
(dp154
g72
(dp155
g80
I4
ssg81
Nsg74
(lp156
sbasbasbasbag67
(g83
g69
NtRp157
(dp158
g72
(dp159
sg81
g77
sg74
(lp160
g67
(g88
g69
NtRp161
(dp162
g72
(dp163
g92
g93
ssg81
g157
sg74
(lp164
S'body'
p165
asbag67
(g88
g69
NtRp166
(dp167
g72
(dp168
g99
g100
ssg81
g157
sg74
(lp169
S':'
asbag67
(g88
g69
NtRp170
(dp171
g72
(dp172
sg81
g157
sg74
(lp173
g67
(g68
g69
NtRp174
(dp175
g72
(dp176
g80
I5
ssg81
g170
sg74
(lp177
S'<cStringIO.StringO object at 0x7f8e675472d0>'
p178
asbasbasbag67
(g83
g69
NtRp179
(dp180
g72
(dp181
sg81
g77
sg74
(lp182
g67
(g88
g69
NtRp183
(dp184
g72
(dp185
g92
g93
ssg81
g179
sg74
(lp186
S'client'
p187
asbag67
(g88
g69
NtRp188
(dp189
g72
(dp190
g99
g100
ssg81
g179
sg74
(lp191
S':'
asbag67
(g88
g69
NtRp192
(dp193
g72
(dp194
sg81
g179
sg74
(lp195
g67
(g68
g69
NtRp196
(dp197
g72
(dp198
g80
I5
ssg81
g192
sg74
(lp199
S'127.0.0.1'
p200
asbasbasbag67
(g83
g69
NtRp201
(dp202
g72
(dp203
sg81
g77
sg74
(lp204
g67
(g88
g69
NtRp205
(dp206
g72
(dp207
g92
g93
ssg81
g201
sg74
(lp208
S'controller'
p209
asbag67
(g88
g69
NtRp210
(dp211
g72
(dp212
g99
g100
ssg81
g201
sg74
(lp213
S':'
asbag67
(g88
g69
NtRp214
(dp215
g72
(dp216
sg81
g201
sg74
(lp217
g67
(g68
g69
NtRp218
(dp219
g72
(dp220
g80
I5
ssg81
g214
sg74
(lp221
S'default'
p222
asbasbasbag67
(g83
g69
NtRp223
(dp224
g72
(dp225
sg81
g77
sg74
(lp226
g67
(g88
g69
NtRp227
(dp228
g72
(dp229
g92
g93
ssg81
g223
sg74
(lp230
S'cookies'
p231
asbag67
(g88
g69
NtRp232
(dp233
g72
(dp234
g99
g100
ssg81
g223
sg74
(lp235
S':'
asbag67
(g88
g69
NtRp236
(dp237
g72
(dp238
sg81
g223
sg74
(lp239
g67
(g68
g69
NtRp240
(dp241
g72
(dp242
g80
I5
ssg81
g236
sg74
(lp243
g67
(g76
g69
NtRp244
(dp245
g72
(dp246
g80
I4
ssg81
Nsg74
(lp247
g67
(g83
g69
NtRp248
(dp249
g72
(dp250
sg81
g244
sg74
(lp251
g67
(g88
g69
NtRp252
(dp253
g72
(dp254
g92
g93
ssg81
g248
sg74
(lp255
S'session_id_admin'
p256
asbag67
(g88
g69
NtRp257
(dp258
g72
(dp259
g99
g100
ssg81
g248
sg74
(lp260
S':'
asbag67
(g88
g69
NtRp261
(dp262
g72
(dp263
sg81
g248
sg74
(lp264
g67
(g68
g69
NtRp265
(dp266
g72
(dp267
g80
I4
ssg81
g261
sg74
(lp268
g67
(g76
g69
NtRp269
(dp270
g72
(dp271
g80
I3
ssg81
Nsg74
(lp272
g67
(g83
g69
NtRp273
(dp274
g72
(dp275
sg81
g269
sg74
(lp276
g67
(g88
g69
NtRp277
(dp278
g72
(dp279
g92
g93
ssg81
g273
sg74
(lp280
S'comment'
p281
asbag67
(g88
g69
NtRp282
(dp283
g72
(dp284
g99
g100
ssg81
g273
sg74
(lp285
S':'
asbag67
(g88
g69
NtRp286
(dp287
g72
(dp288
sg81
g273
sg74
(lp289
g67
(g68
g69
NtRp290
(dp291
g72
(dp292
g80
I3
ssg81
g286
sg74
(lp293
S''
asbasbasbag67
(g83
g69
NtRp294
(dp295
g72
(dp296
sg81
g269
sg74
(lp297
g67
(g88
g69
NtRp298
(dp299
g72
(dp300
g92
g93
ssg81
g294
sg74
(lp301
S'domain'
p302
asbag67
(g88
g69
NtRp303
(dp304
g72
(dp305
g99
g100
ssg81
g294
sg74
(lp306
S':'
asbag67
(g88
g69
NtRp307
(dp308
g72
(dp309
sg81
g294
sg74
(lp310
g67
(g68
g69
NtRp311
(dp312
g72
(dp313
g80
I3
ssg81
g307
sg74
(lp314
S''
asbasbasbag67
(g83
g69
NtRp315
(dp316
g72
(dp317
sg81
g269
sg74
(lp318
g67
(g88
g69
NtRp319
(dp320
g72
(dp321
g92
g93
ssg81
g315
sg74
(lp322
S'expires'
p323
asbag67
(g88
g69
NtRp324
(dp325
g72
(dp326
g99
g100
ssg81
g315
sg74
(lp327
S':'
asbag67
(g88
g69
NtRp328
(dp329
g72
(dp330
sg81
g315
sg74
(lp331
g67
(g68
g69
NtRp332
(dp333
g72
(dp334
g80
I3
ssg81
g328
sg74
(lp335
S''
asbasbasbag67
(g83
g69
NtRp336
(dp337
g72
(dp338
sg81
g269
sg74
(lp339
g67
(g88
g69
NtRp340
(dp341
g72
(dp342
g92
g93
ssg81
g336
sg74
(lp343
S'httponly'
p344
asbag67
(g88
g69
NtRp345
(dp346
g72
(dp347
g99
g100
ssg81
g336
sg74
(lp348
S':'
asbag67
(g88
g69
NtRp349
(dp350
g72
(dp351
sg81
g336
sg74
(lp352
g67
(g68
g69
NtRp353
(dp354
g72
(dp355
g80
I3
ssg81
g349
sg74
(lp356
S''
asbasbasbag67
(g83
g69
NtRp357
(dp358
g72
(dp359
sg81
g269
sg74
(lp360
g67
(g88
g69
NtRp361
(dp362
g72
(dp363
g92
g93
ssg81
g357
sg74
(lp364
S'max-age'
p365
asbag67
(g88
g69
NtRp366
(dp367
g72
(dp368
g99
g100
ssg81
g357
sg74
(lp369
S':'
asbag67
(g88
g69
NtRp370
(dp371
g72
(dp372
sg81
g357
sg74
(lp373
g67
(g68
g69
NtRp374
(dp375
g72
(dp376
g80
I3
ssg81
g370
sg74
(lp377
S''
asbasbasbag67
(g83
g69
NtRp378
(dp379
g72
(dp380
sg81
g269
sg74
(lp381
g67
(g88
g69
NtRp382
(dp383
g72
(dp384
g92
g93
ssg81
g378
sg74
(lp385
S'path'
p386
asbag67
(g88
g69
NtRp387
(dp388
g72
(dp389
g99
g100
ssg81
g378
sg74
(lp390
S':'
asbag67
(g88
g69
NtRp391
(dp392
g72
(dp393
sg81
g378
sg74
(lp394
g67
(g68
g69
NtRp395
(dp396
g72
(dp397
g80
I3
ssg81
g391
sg74
(lp398
S''
asbasbasbag67
(g83
g69
NtRp399
(dp400
g72
(dp401
sg81
g269
sg74
(lp402
g67
(g88
g69
NtRp403
(dp404
g72
(dp405
g92
g93
ssg81
g399
sg74
(lp406
S'secure'
p407
asbag67
(g88
g69
NtRp408
(dp409
g72
(dp410
g99
g100
ssg81
g399
sg74
(lp411
S':'
asbag67
(g88
g69
NtRp412
(dp413
g72
(dp414
sg81
g399
sg74
(lp415
g67
(g68
g69
NtRp416
(dp417
g72
(dp418
g80
I3
ssg81
g412
sg74
(lp419
S''
asbasbasbag67
(g83
g69
NtRp420
(dp421
g72
(dp422
sg81
g269
sg74
(lp423
g67
(g88
g69
NtRp424
(dp425
g72
(dp426
g92
g93
ssg81
g420
sg74
(lp427
S'version'
p428
asbag67
(g88
g69
NtRp429
(dp430
g72
(dp431
g99
g100
ssg81
g420
sg74
(lp432
S':'
asbag67
(g88
g69
NtRp433
(dp434
g72
(dp435
sg81
g420
sg74
(lp436
g67
(g68
g69
NtRp437
(dp438
g72
(dp439
g80
I3
ssg81
g433
sg74
(lp440
S''
asbasbasbasbasbasbasbag67
(g83
g69
NtRp441
(dp442
g72
(dp443
sg81
g244
sg74
(lp444
g67
(g88
g69
NtRp445
(dp446
g72
(dp447
g92
g93
ssg81
g441
sg74
(lp448
S'session_id_newsapp'
p449
asbag67
(g88
g69
NtRp450
(dp451
g72
(dp452
g99
g100
ssg81
g441
sg74
(lp453
S':'
asbag67
(g88
g69
NtRp454
(dp455
g72
(dp456
sg81
g441
sg74
(lp457
g67
(g68
g69
NtRp458
(dp459
g72
(dp460
g80
I4
ssg81
g454
sg74
(lp461
g67
(g76
g69
NtRp462
(dp463
g72
(dp464
g80
I3
ssg81
Nsg74
(lp465
g67
(g83
g69
NtRp466
(dp467
g72
(dp468
sg81
g462
sg74
(lp469
g67
(g88
g69
NtRp470
(dp471
g72
(dp472
g92
g93
ssg81
g466
sg74
(lp473
g281
asbag67
(g88
g69
NtRp474
(dp475
g72
(dp476
g99
g100
ssg81
g466
sg74
(lp477
S':'
asbag67
(g88
g69
NtRp478
(dp479
g72
(dp480
sg81
g466
sg74
(lp481
g67
(g68
g69
NtRp482
(dp483
g72
(dp484
g80
I3
ssg81
g478
sg74
(lp485
S''
asbasbasbag67
(g83
g69
NtRp486
(dp487
g72
(dp488
sg81
g462
sg74
(lp489
g67
(g88
g69
NtRp490
(dp491
g72
(dp492
g92
g93
ssg81
g486
sg74
(lp493
g302
asbag67
(g88
g69
NtRp494
(dp495
g72
(dp496
g99
g100
ssg81
g486
sg74
(lp497
S':'
asbag67
(g88
g69
NtRp498
(dp499
g72
(dp500
sg81
g486
sg74
(lp501
g67
(g68
g69
NtRp502
(dp503
g72
(dp504
g80
I3
ssg81
g498
sg74
(lp505
S''
asbasbasbag67
(g83
g69
NtRp506
(dp507
g72
(dp508
sg81
g462
sg74
(lp509
g67
(g88
g69
NtRp510
(dp511
g72
(dp512
g92
g93
ssg81
g506
sg74
(lp513
g323
asbag67
(g88
g69
NtRp514
(dp515
g72
(dp516
g99
g100
ssg81
g506
sg74
(lp517
S':'
asbag67
(g88
g69
NtRp518
(dp519
g72
(dp520
sg81
g506
sg74
(lp521
g67
(g68
g69
NtRp522
(dp523
g72
(dp524
g80
I3
ssg81
g518
sg74
(lp525
S''
asbasbasbag67
(g83
g69
NtRp526
(dp527
g72
(dp528
sg81
g462
sg74
(lp529
g67
(g88
g69
NtRp530
(dp531
g72
(dp532
g92
g93
ssg81
g526
sg74
(lp533
g344
asbag67
(g88
g69
NtRp534
(dp535
g72
(dp536
g99
g100
ssg81
g526
sg74
(lp537
S':'
asbag67
(g88
g69
NtRp538
(dp539
g72
(dp540
sg81
g526
sg74
(lp541
g67
(g68
g69
NtRp542
(dp543
g72
(dp544
g80
I3
ssg81
g538
sg74
(lp545
S''
asbasbasbag67
(g83
g69
NtRp546
(dp547
g72
(dp548
sg81
g462
sg74
(lp549
g67
(g88
g69
NtRp550
(dp551
g72
(dp552
g92
g93
ssg81
g546
sg74
(lp553
g365
asbag67
(g88
g69
NtRp554
(dp555
g72
(dp556
g99
g100
ssg81
g546
sg74
(lp557
S':'
asbag67
(g88
g69
NtRp558
(dp559
g72
(dp560
sg81
g546
sg74
(lp561
g67
(g68
g69
NtRp562
(dp563
g72
(dp564
g80
I3
ssg81
g558
sg74
(lp565
S''
asbasbasbag67
(g83
g69
NtRp566
(dp567
g72
(dp568
sg81
g462
sg74
(lp569
g67
(g88
g69
NtRp570
(dp571
g72
(dp572
g92
g93
ssg81
g566
sg74
(lp573
g386
asbag67
(g88
g69
NtRp574
(dp575
g72
(dp576
g99
g100
ssg81
g566
sg74
(lp577
S':'
asbag67
(g88
g69
NtRp578
(dp579
g72
(dp580
sg81
g566
sg74
(lp581
g67
(g68
g69
NtRp582
(dp583
g72
(dp584
g80
I3
ssg81
g578
sg74
(lp585
S''
asbasbasbag67
(g83
g69
NtRp586
(dp587
g72
(dp588
sg81
g462
sg74
(lp589
g67
(g88
g69
NtRp590
(dp591
g72
(dp592
g92
g93
ssg81
g586
sg74
(lp593
g407
asbag67
(g88
g69
NtRp594
(dp595
g72
(dp596
g99
g100
ssg81
g586
sg74
(lp597
S':'
asbag67
(g88
g69
NtRp598
(dp599
g72
(dp600
sg81
g586
sg74
(lp601
g67
(g68
g69
NtRp602
(dp603
g72
(dp604
g80
I3
ssg81
g598
sg74
(lp605
S''
asbasbasbag67
(g83
g69
NtRp606
(dp607
g72
(dp608
sg81
g462
sg74
(lp609
g67
(g88
g69
NtRp610
(dp611
g72
(dp612
g92
g93
ssg81
g606
sg74
(lp613
g428
asbag67
(g88
g69
NtRp614
(dp615
g72
(dp616
g99
g100
ssg81
g606
sg74
(lp617
S':'
asbag67
(g88
g69
NtRp618
(dp619
g72
(dp620
sg81
g606
sg74
(lp621
g67
(g68
g69
NtRp622
(dp623
g72
(dp624
g80
I3
ssg81
g618
sg74
(lp625
S''
asbasbasbasbasbasbasbag67
(g83
g69
NtRp626
(dp627
g72
(dp628
sg81
g244
sg74
(lp629
g67
(g88
g69
NtRp630
(dp631
g72
(dp632
g92
g93
ssg81
g626
sg74
(lp633
S'session_id_welcome'
p634
asbag67
(g88
g69
NtRp635
(dp636
g72
(dp637
g99
g100
ssg81
g626
sg74
(lp638
S':'
asbag67
(g88
g69
NtRp639
(dp640
g72
(dp641
sg81
g626
sg74
(lp642
g67
(g68
g69
NtRp643
(dp644
g72
(dp645
g80
I4
ssg81
g639
sg74
(lp646
g67
(g76
g69
NtRp647
(dp648
g72
(dp649
g80
I3
ssg81
Nsg74
(lp650
g67
(g83
g69
NtRp651
(dp652
g72
(dp653
sg81
g647
sg74
(lp654
g67
(g88
g69
NtRp655
(dp656
g72
(dp657
g92
g93
ssg81
g651
sg74
(lp658
g281
asbag67
(g88
g69
NtRp659
(dp660
g72
(dp661
g99
g100
ssg81
g651
sg74
(lp662
S':'
asbag67
(g88
g69
NtRp663
(dp664
g72
(dp665
sg81
g651
sg74
(lp666
g67
(g68
g69
NtRp667
(dp668
g72
(dp669
g80
I3
ssg81
g663
sg74
(lp670
S''
asbasbasbag67
(g83
g69
NtRp671
(dp672
g72
(dp673
sg81
g647
sg74
(lp674
g67
(g88
g69
NtRp675
(dp676
g72
(dp677
g92
g93
ssg81
g671
sg74
(lp678
g302
asbag67
(g88
g69
NtRp679
(dp680
g72
(dp681
g99
g100
ssg81
g671
sg74
(lp682
S':'
asbag67
(g88
g69
NtRp683
(dp684
g72
(dp685
sg81
g671
sg74
(lp686
g67
(g68
g69
NtRp687
(dp688
g72
(dp689
g80
I3
ssg81
g683
sg74
(lp690
S''
asbasbasbag67
(g83
g69
NtRp691
(dp692
g72
(dp693
sg81
g647
sg74
(lp694
g67
(g88
g69
NtRp695
(dp696
g72
(dp697
g92
g93
ssg81
g691
sg74
(lp698
g323
asbag67
(g88
g69
NtRp699
(dp700
g72
(dp701
g99
g100
ssg81
g691
sg74
(lp702
S':'
asbag67
(g88
g69
NtRp703
(dp704
g72
(dp705
sg81
g691
sg74
(lp706
g67
(g68
g69
NtRp707
(dp708
g72
(dp709
g80
I3
ssg81
g703
sg74
(lp710
S''
asbasbasbag67
(g83
g69
NtRp711
(dp712
g72
(dp713
sg81
g647
sg74
(lp714
g67
(g88
g69
NtRp715
(dp716
g72
(dp717
g92
g93
ssg81
g711
sg74
(lp718
g344
asbag67
(g88
g69
NtRp719
(dp720
g72
(dp721
g99
g100
ssg81
g711
sg74
(lp722
S':'
asbag67
(g88
g69
NtRp723
(dp724
g72
(dp725
sg81
g711
sg74
(lp726
g67
(g68
g69
NtRp727
(dp728
g72
(dp729
g80
I3
ssg81
g723
sg74
(lp730
S''
asbasbasbag67
(g83
g69
NtRp731
(dp732
g72
(dp733
sg81
g647
sg74
(lp734
g67
(g88
g69
NtRp735
(dp736
g72
(dp737
g92
g93
ssg81
g731
sg74
(lp738
g365
asbag67
(g88
g69
NtRp739
(dp740
g72
(dp741
g99
g100
ssg81
g731
sg74
(lp742
S':'
asbag67
(g88
g69
NtRp743
(dp744
g72
(dp745
sg81
g731
sg74
(lp746
g67
(g68
g69
NtRp747
(dp748
g72
(dp749
g80
I3
ssg81
g743
sg74
(lp750
S''
asbasbasbag67
(g83
g69
NtRp751
(dp752
g72
(dp753
sg81
g647
sg74
(lp754
g67
(g88
g69
NtRp755
(dp756
g72
(dp757
g92
g93
ssg81
g751
sg74
(lp758
g386
asbag67
(g88
g69
NtRp759
(dp760
g72
(dp761
g99
g100
ssg81
g751
sg74
(lp762
S':'
asbag67
(g88
g69
NtRp763
(dp764
g72
(dp765
sg81
g751
sg74
(lp766
g67
(g68
g69
NtRp767
(dp768
g72
(dp769
g80
I3
ssg81
g763
sg74
(lp770
S''
asbasbasbag67
(g83
g69
NtRp771
(dp772
g72
(dp773
sg81
g647
sg74
(lp774
g67
(g88
g69
NtRp775
(dp776
g72
(dp777
g92
g93
ssg81
g771
sg74
(lp778
g407
asbag67
(g88
g69
NtRp779
(dp780
g72
(dp781
g99
g100
ssg81
g771
sg74
(lp782
S':'
asbag67
(g88
g69
NtRp783
(dp784
g72
(dp785
sg81
g771
sg74
(lp786
g67
(g68
g69
NtRp787
(dp788
g72
(dp789
g80
I3
ssg81
g783
sg74
(lp790
S''
asbasbasbag67
(g83
g69
NtRp791
(dp792
g72
(dp793
sg81
g647
sg74
(lp794
g67
(g88
g69
NtRp795
(dp796
g72
(dp797
g92
g93
ssg81
g791
sg74
(lp798
g428
asbag67
(g88
g69
NtRp799
(dp800
g72
(dp801
g99
g100
ssg81
g791
sg74
(lp802
S':'
asbag67
(g88
g69
NtRp803
(dp804
g72
(dp805
sg81
g791
sg74
(lp806
g67
(g68
g69
NtRp807
(dp808
g72
(dp809
g80
I3
ssg81
g803
sg74
(lp810
S''
asbasbasbasbasbasbasbasbasbasbasbag67
(g83
g69
NtRp811
(dp812
g72
(dp813
sg81
g77
sg74
(lp814
g67
(g88
g69
NtRp815
(dp816
g72
(dp817
g92
g93
ssg81
g811
sg74
(lp818
S'env'
p819
asbag67
(g88
g69
NtRp820
(dp821
g72
(dp822
g99
g100
ssg81
g811
sg74
(lp823
S':'
asbag67
(g88
g69
NtRp824
(dp825
g72
(dp826
sg81
g811
sg74
(lp827
g67
(g68
g69
NtRp828
(dp829
g72
(dp830
g80
I5
ssg81
g824
sg74
(lp831
g67
(g76
g69
NtRp832
(dp833
g72
(dp834
g80
I4
ssg81
Nsg74
(lp835
g67
(g83
g69
NtRp836
(dp837
g72
(dp838
sg81
g832
sg74
(lp839
g67
(g88
g69
NtRp840
(dp841
g72
(dp842
g92
g93
ssg81
g836
sg74
(lp843
S'app_folders'
p844
asbag67
(g88
g69
NtRp845
(dp846
g72
(dp847
g99
g100
ssg81
g836
sg74
(lp848
S':'
asbag67
(g88
g69
NtRp849
(dp850
g72
(dp851
sg81
g836
sg74
(lp852
g67
(g68
g69
NtRp853
(dp854
g72
(dp855
g80
I4
ssg81
g849
sg74
(lp856
S"set(['/home/pooja/web2py/applications/admin/', '/home/pooja/web2py/applications/newsapp/', '/home/pooja/web2py/applications/welcome/'])"
p857
asbasbasbag67
(g83
g69
NtRp858
(dp859
g72
(dp860
sg81
g832
sg74
(lp861
g67
(g88
g69
NtRp862
(dp863
g72
(dp864
g92
g93
ssg81
g858
sg74
(lp865
S'applications_parent'
p866
asbag67
(g88
g69
NtRp867
(dp868
g72
(dp869
g99
g100
ssg81
g858
sg74
(lp870
S':'
asbag67
(g88
g69
NtRp871
(dp872
g72
(dp873
sg81
g858
sg74
(lp874
g67
(g68
g69
NtRp875
(dp876
g72
(dp877
g80
I4
ssg81
g871
sg74
(lp878
S'/home/pooja/web2py'
p879
asbasbasbag67
(g83
g69
NtRp880
(dp881
g72
(dp882
sg81
g832
sg74
(lp883
g67
(g88
g69
NtRp884
(dp885
g72
(dp886
g92
g93
ssg81
g880
sg74
(lp887
S'cmd_args'
p888
asbag67
(g88
g69
NtRp889
(dp890
g72
(dp891
g99
g100
ssg81
g880
sg74
(lp892
S':'
asbag67
(g88
g69
NtRp893
(dp894
g72
(dp895
sg81
g880
sg74
(lp896
g67
(g68
g69
NtRp897
(dp898
g72
(dp899
g80
I4
ssg81
g893
sg74
(lp900
g67
(g76
g69
NtRp901
(dp902
g72
(dp903
g80
I3
ssg81
Nsg74
(lp904
sbasbasbasbag67
(g83
g69
NtRp905
(dp906
g72
(dp907
sg81
g832
sg74
(lp908
g67
(g88
g69
NtRp909
(dp910
g72
(dp911
g92
g93
ssg81
g905
sg74
(lp912
S'cmd_options'
p913
asbag67
(g88
g69
NtRp914
(dp915
g72
(dp916
g99
g100
ssg81
g905
sg74
(lp917
S':'
asbag67
(g88
g69
NtRp918
(dp919
g72
(dp920
sg81
g905
sg74
(lp921
g67
(g68
g69
NtRp922
(dp923
g72
(dp924
g80
I4
ssg81
g918
sg74
(lp925
S"<Values at 0x7f8ec06a5908: {'verbose': False, 'ip': '127.0.0.1', 'shutdown_timeout': 5, 'taskbar': False, 'nocron': False, 'pid_filename': 'httpserver.pid', 'maxthreads': None, 'softcron': False, 'server_name': 'pooja-HP-15-Notebook-PC', 'bpython': False, 'nogui': False, 'port': 8000, 'extcron': False, 'debuglevel': 30, 'test': None, 'folder': '/home/pooja/web2py', 'config': '', 'import_models': False, 'winservice': '', 'shell': None, 'run': '', 'log_filename': 'httpserver.log', 'args': [''], 'socket_timeout': 5, 'ssl_ca_certificate': None, 'scheduler': None, 'profiler_filename': None, 'ssl_private_key': '', 'password': '<ask>', 'request_queue_size': 5, 'ssl_certificate': '', 'cronjob': False, 'numthreads': None, 'quiet': False, 'interfaces': None, 'minthreads': None, 'timeout': 10, 'plain': False, 'nobanner': False}>"
p926
asbasbasbag67
(g83
g69
NtRp927
(dp928
g72
(dp929
sg81
g832
sg74
(lp930
g67
(g88
g69
NtRp931
(dp932
g72
(dp933
g92
g93
ssg81
g927
sg74
(lp934
S'db_sessions'
p935
asbag67
(g88
g69
NtRp936
(dp937
g72
(dp938
g99
g100
ssg81
g927
sg74
(lp939
S':'
asbag67
(g88
g69
NtRp940
(dp941
g72
(dp942
sg81
g927
sg74
(lp943
g67
(g68
g69
NtRp944
(dp945
g72
(dp946
g80
I4
ssg81
g940
sg74
(lp947
S'set([])'
p948
asbasbasbag67
(g83
g69
NtRp949
(dp950
g72
(dp951
sg81
g832
sg74
(lp952
g67
(g88
g69
NtRp953
(dp954
g72
(dp955
g92
g93
ssg81
g949
sg74
(lp956
S'debugging'
p957
asbag67
(g88
g69
NtRp958
(dp959
g72
(dp960
g99
g100
ssg81
g949
sg74
(lp961
S':'
asbag67
(g88
g69
NtRp962
(dp963
g72
(dp964
sg81
g949
sg74
(lp965
g67
(g68
g69
NtRp966
(dp967
g72
(dp968
g80
I4
ssg81
g962
sg74
(lp969
g110
asbasbasbag67
(g83
g69
NtRp970
(dp971
g72
(dp972
sg81
g832
sg74
(lp973
g67
(g88
g69
NtRp974
(dp975
g72
(dp976
g92
g93
ssg81
g970
sg74
(lp977
S'gluon_parent'
p978
asbag67
(g88
g69
NtRp979
(dp980
g72
(dp981
g99
g100
ssg81
g970
sg74
(lp982
S':'
asbag67
(g88
g69
NtRp983
(dp984
g72
(dp985
sg81
g970
sg74
(lp986
g67
(g68
g69
NtRp987
(dp988
g72
(dp989
g80
I4
ssg81
g983
sg74
(lp990
S'/usr/share/web2py'
p991
asbasbasbag67
(g83
g69
NtRp992
(dp993
g72
(dp994
sg81
g832
sg74
(lp995
g67
(g88
g69
NtRp996
(dp997
g72
(dp998
g92
g93
ssg81
g992
sg74
(lp999
S'http_accept'
p1000
asbag67
(g88
g69
NtRp1001
(dp1002
g72
(dp1003
g99
g100
ssg81
g992
sg74
(lp1004
S':'
asbag67
(g88
g69
NtRp1005
(dp1006
g72
(dp1007
sg81
g992
sg74
(lp1008
g67
(g68
g69
NtRp1009
(dp1010
g72
(dp1011
g80
I4
ssg81
g1005
sg74
(lp1012
S'text/html,application/xhtml+xml,application/xml;q=0.9,image/webp,*/*;q=0.8'
p1013
asbasbasbag67
(g83
g69
NtRp1014
(dp1015
g72
(dp1016
sg81
g832
sg74
(lp1017
g67
(g88
g69
NtRp1018
(dp1019
g72
(dp1020
g92
g93
ssg81
g1014
sg74
(lp1021
S'http_accept_encoding'
p1022
asbag67
(g88
g69
NtRp1023
(dp1024
g72
(dp1025
g99
g100
ssg81
g1014
sg74
(lp1026
S':'
asbag67
(g88
g69
NtRp1027
(dp1028
g72
(dp1029
sg81
g1014
sg74
(lp1030
g67
(g68
g69
NtRp1031
(dp1032
g72
(dp1033
g80
I4
ssg81
g1027
sg74
(lp1034
S'gzip, deflate, sdch'
p1035
asbasbasbag67
(g83
g69
NtRp1036
(dp1037
g72
(dp1038
sg81
g832
sg74
(lp1039
g67
(g88
g69
NtRp1040
(dp1041
g72
(dp1042
g92
g93
ssg81
g1036
sg74
(lp1043
S'http_accept_language'
p1044
asbag67
(g88
g69
NtRp1045
(dp1046
g72
(dp1047
g99
g100
ssg81
g1036
sg74
(lp1048
S':'
asbag67
(g88
g69
NtRp1049
(dp1050
g72
(dp1051
sg81
g1036
sg74
(lp1052
g67
(g68
g69
NtRp1053
(dp1054
g72
(dp1055
g80
I4
ssg81
g1049
sg74
(lp1056
S'en-US,en;q=0.8'
p1057
asbasbasbag67
(g83
g69
NtRp1058
(dp1059
g72
(dp1060
sg81
g832
sg74
(lp1061
g67
(g88
g69
NtRp1062
(dp1063
g72
(dp1064
g92
g93
ssg81
g1058
sg74
(lp1065
S'http_connection'
p1066
asbag67
(g88
g69
NtRp1067
(dp1068
g72
(dp1069
g99
g100
ssg81
g1058
sg74
(lp1070
S':'
asbag67
(g88
g69
NtRp1071
(dp1072
g72
(dp1073
sg81
g1058
sg74
(lp1074
g67
(g68
g69
NtRp1075
(dp1076
g72
(dp1077
g80
I4
ssg81
g1071
sg74
(lp1078
S'keep-alive'
p1079
asbasbasbag67
(g83
g69
NtRp1080
(dp1081
g72
(dp1082
sg81
g832
sg74
(lp1083
g67
(g88
g69
NtRp1084
(dp1085
g72
(dp1086
g92
g93
ssg81
g1080
sg74
(lp1087
S'http_cookie'
p1088
asbag67
(g88
g69
NtRp1089
(dp1090
g72
(dp1091
g99
g100
ssg81
g1080
sg74
(lp1092
S':'
asbag67
(g88
g69
NtRp1093
(dp1094
g72
(dp1095
sg81
g1080
sg74
(lp1096
g67
(g68
g69
NtRp1097
(dp1098
g72
(dp1099
g80
I4
ssg81
g1093
sg74
(lp1100
S'session_id_welcome=127.0.0.1-e327fa24-9b30-4806-b3b8-755f25a47489; session_id_newsapp=127.0.0.1-44b8080e-d961-4b91-89bf-6177ab52643d; session_id_admin=127.0.0.1-6c1408c5-0a78-46f6-bb4d-f35ffc7a0a2f'
p1101
asbasbasbag67
(g83
g69
NtRp1102
(dp1103
g72
(dp1104
sg81
g832
sg74
(lp1105
g67
(g88
g69
NtRp1106
(dp1107
g72
(dp1108
g92
g93
ssg81
g1102
sg74
(lp1109
S'http_host'
p1110
asbag67
(g88
g69
NtRp1111
(dp1112
g72
(dp1113
g99
g100
ssg81
g1102
sg74
(lp1114
S':'
asbag67
(g88
g69
NtRp1115
(dp1116
g72
(dp1117
sg81
g1102
sg74
(lp1118
g67
(g68
g69
NtRp1119
(dp1120
g72
(dp1121
g80
I4
ssg81
g1115
sg74
(lp1122
S'127.0.0.1:8000'
p1123
asbasbasbag67
(g83
g69
NtRp1124
(dp1125
g72
(dp1126
sg81
g832
sg74
(lp1127
g67
(g88
g69
NtRp1128
(dp1129
g72
(dp1130
g92
g93
ssg81
g1124
sg74
(lp1131
S'http_referer'
p1132
asbag67
(g88
g69
NtRp1133
(dp1134
g72
(dp1135
g99
g100
ssg81
g1124
sg74
(lp1136
S':'
asbag67
(g88
g69
NtRp1137
(dp1138
g72
(dp1139
sg81
g1124
sg74
(lp1140
g67
(g68
g69
NtRp1141
(dp1142
g72
(dp1143
g80
I4
ssg81
g1137
sg74
(lp1144
S'http://127.0.0.1:8000/admin/default/edit/newsapp/controllers/default.py'
p1145
asbasbasbag67
(g83
g69
NtRp1146
(dp1147
g72
(dp1148
sg81
g832
sg74
(lp1149
g67
(g88
g69
NtRp1150
(dp1151
g72
(dp1152
g92
g93
ssg81
g1146
sg74
(lp1153
S'http_user_agent'
p1154
asbag67
(g88
g69
NtRp1155
(dp1156
g72
(dp1157
g99
g100
ssg81
g1146
sg74
(lp1158
S':'
asbag67
(g88
g69
NtRp1159
(dp1160
g72
(dp1161
sg81
g1146
sg74
(lp1162
g67
(g68
g69
NtRp1163
(dp1164
g72
(dp1165
g80
I4
ssg81
g1159
sg74
(lp1166
S'Mozilla/5.0 (X11; Linux x86_64) AppleWebKit/537.36 (KHTML, like Gecko) Chrome/42.0.2311.135 Safari/537.36'
p1167
asbasbasbag67
(g83
g69
NtRp1168
(dp1169
g72
(dp1170
sg81
g832
sg74
(lp1171
g67
(g88
g69
NtRp1172
(dp1173
g72
(dp1174
g92
g93
ssg81
g1168
sg74
(lp1175
S'is_jython'
p1176
asbag67
(g88
g69
NtRp1177
(dp1178
g72
(dp1179
g99
g100
ssg81
g1168
sg74
(lp1180
S':'
asbag67
(g88
g69
NtRp1181
(dp1182
g72
(dp1183
sg81
g1168
sg74
(lp1184
g67
(g68
g69
NtRp1185
(dp1186
g72
(dp1187
g80
I4
ssg81
g1181
sg74
(lp1188
g110
asbasbasbag67
(g83
g69
NtRp1189
(dp1190
g72
(dp1191
sg81
g832
sg74
(lp1192
g67
(g88
g69
NtRp1193
(dp1194
g72
(dp1195
g92
g93
ssg81
g1189
sg74
(lp1196
S'is_pypy'
p1197
asbag67
(g88
g69
NtRp1198
(dp1199
g72
(dp1200
g99
g100
ssg81
g1189
sg74
(lp1201
S':'
asbag67
(g88
g69
NtRp1202
(dp1203
g72
(dp1204
sg81
g1189
sg74
(lp1205
g67
(g68
g69
NtRp1206
(dp1207
g72
(dp1208
g80
I4
ssg81
g1202
sg74
(lp1209
g110
asbasbasbag67
(g83
g69
NtRp1210
(dp1211
g72
(dp1212
sg81
g832
sg74
(lp1213
g67
(g88
g69
NtRp1214
(dp1215
g72
(dp1216
g92
g93
ssg81
g1210
sg74
(lp1217
S'path_info'
p1218
asbag67
(g88
g69
NtRp1219
(dp1220
g72
(dp1221
g99
g100
ssg81
g1210
sg74
(lp1222
S':'
asbag67
(g88
g69
NtRp1223
(dp1224
g72
(dp1225
sg81
g1210
sg74
(lp1226
g67
(g68
g69
NtRp1227
(dp1228
g72
(dp1229
g80
I4
ssg81
g1223
sg74
(lp1230
S'/newsapp/default/index'
p1231
asbasbasbag67
(g83
g69
NtRp1232
(dp1233
g72
(dp1234
sg81
g832
sg74
(lp1235
g67
(g88
g69
NtRp1236
(dp1237
g72
(dp1238
g92
g93
ssg81
g1232
sg74
(lp1239
S'query_string'
p1240
asbag67
(g88
g69
NtRp1241
(dp1242
g72
(dp1243
g99
g100
ssg81
g1232
sg74
(lp1244
S':'
asbag67
(g88
g69
NtRp1245
(dp1246
g72
(dp1247
sg81
g1232
sg74
(lp1248
g67
(g68
g69
NtRp1249
(dp1250
g72
(dp1251
g80
I4
ssg81
g1245
sg74
(lp1252
S''
asbasbasbag67
(g83
g69
NtRp1253
(dp1254
g72
(dp1255
sg81
g832
sg74
(lp1256
g67
(g88
g69
NtRp1257
(dp1258
g72
(dp1259
g92
g93
ssg81
g1253
sg74
(lp1260
S'remote_addr'
p1261
asbag67
(g88
g69
NtRp1262
(dp1263
g72
(dp1264
g99
g100
ssg81
g1253
sg74
(lp1265
S':'
asbag67
(g88
g69
NtRp1266
(dp1267
g72
(dp1268
sg81
g1253
sg74
(lp1269
g67
(g68
g69
NtRp1270
(dp1271
g72
(dp1272
g80
I4
ssg81
g1266
sg74
(lp1273
g200
asbasbasbag67
(g83
g69
NtRp1274
(dp1275
g72
(dp1276
sg81
g832
sg74
(lp1277
g67
(g88
g69
NtRp1278
(dp1279
g72
(dp1280
g92
g93
ssg81
g1274
sg74
(lp1281
S'remote_port'
p1282
asbag67
(g88
g69
NtRp1283
(dp1284
g72
(dp1285
g99
g100
ssg81
g1274
sg74
(lp1286
S':'
asbag67
(g88
g69
NtRp1287
(dp1288
g72
(dp1289
sg81
g1274
sg74
(lp1290
g67
(g68
g69
NtRp1291
(dp1292
g72
(dp1293
g80
I4
ssg81
g1287
sg74
(lp1294
S'47452'
p1295
asbasbasbag67
(g83
g69
NtRp1296
(dp1297
g72
(dp1298
sg81
g832
sg74
(lp1299
g67
(g88
g69
NtRp1300
(dp1301
g72
(dp1302
g92
g93
ssg81
g1296
sg74
(lp1303
S'request_method'
p1304
asbag67
(g88
g69
NtRp1305
(dp1306
g72
(dp1307
g99
g100
ssg81
g1296
sg74
(lp1308
S':'
asbag67
(g88
g69
NtRp1309
(dp1310
g72
(dp1311
sg81
g1296
sg74
(lp1312
g67
(g68
g69
NtRp1313
(dp1314
g72
(dp1315
g80
I4
ssg81
g1309
sg74
(lp1316
S'GET'
p1317
asbasbasbag67
(g83
g69
NtRp1318
(dp1319
g72
(dp1320
sg81
g832
sg74
(lp1321
g67
(g88
g69
NtRp1322
(dp1323
g72
(dp1324
g92
g93
ssg81
g1318
sg74
(lp1325
S'script_name'
p1326
asbag67
(g88
g69
NtRp1327
(dp1328
g72
(dp1329
g99
g100
ssg81
g1318
sg74
(lp1330
S':'
asbag67
(g88
g69
NtRp1331
(dp1332
g72
(dp1333
sg81
g1318
sg74
(lp1334
g67
(g68
g69
NtRp1335
(dp1336
g72
(dp1337
g80
I4
ssg81
g1331
sg74
(lp1338
S''
asbasbasbag67
(g83
g69
NtRp1339
(dp1340
g72
(dp1341
sg81
g832
sg74
(lp1342
g67
(g88
g69
NtRp1343
(dp1344
g72
(dp1345
g92
g93
ssg81
g1339
sg74
(lp1346
S'server_name'
p1347
asbag67
(g88
g69
NtRp1348
(dp1349
g72
(dp1350
g99
g100
ssg81
g1339
sg74
(lp1351
S':'
asbag67
(g88
g69
NtRp1352
(dp1353
g72
(dp1354
sg81
g1339
sg74
(lp1355
g67
(g68
g69
NtRp1356
(dp1357
g72
(dp1358
g80
I4
ssg81
g1352
sg74
(lp1359
S'pooja-HP-15-Notebook-PC'
p1360
asbasbasbag67
(g83
g69
NtRp1361
(dp1362
g72
(dp1363
sg81
g832
sg74
(lp1364
g67
(g88
g69
NtRp1365
(dp1366
g72
(dp1367
g92
g93
ssg81
g1361
sg74
(lp1368
S'server_port'
p1369
asbag67
(g88
g69
NtRp1370
(dp1371
g72
(dp1372
g99
g100
ssg81
g1361
sg74
(lp1373
S':'
asbag67
(g88
g69
NtRp1374
(dp1375
g72
(dp1376
sg81
g1361
sg74
(lp1377
g67
(g68
g69
NtRp1378
(dp1379
g72
(dp1380
g80
I4
ssg81
g1374
sg74
(lp1381
S'8000'
p1382
asbasbasbag67
(g83
g69
NtRp1383
(dp1384
g72
(dp1385
sg81
g832
sg74
(lp1386
g67
(g88
g69
NtRp1387
(dp1388
g72
(dp1389
g92
g93
ssg81
g1383
sg74
(lp1390
S'server_protocol'
p1391
asbag67
(g88
g69
NtRp1392
(dp1393
g72
(dp1394
g99
g100
ssg81
g1383
sg74
(lp1395
S':'
asbag67
(g88
g69
NtRp1396
(dp1397
g72
(dp1398
sg81
g1383
sg74
(lp1399
g67
(g68
g69
NtRp1400
(dp1401
g72
(dp1402
g80
I4
ssg81
g1396
sg74
(lp1403
S'HTTP/1.1'
p1404
asbasbasbag67
(g83
g69
NtRp1405
(dp1406
g72
(dp1407
sg81
g832
sg74
(lp1408
g67
(g88
g69
NtRp1409
(dp1410
g72
(dp1411
g92
g93
ssg81
g1405
sg74
(lp1412
S'server_software'
p1413
asbag67
(g88
g69
NtRp1414
(dp1415
g72
(dp1416
g99
g100
ssg81
g1405
sg74
(lp1417
S':'
asbag67
(g88
g69
NtRp1418
(dp1419
g72
(dp1420
sg81
g1405
sg74
(lp1421
g67
(g68
g69
NtRp1422
(dp1423
g72
(dp1424
g80
I4
ssg81
g1418
sg74
(lp1425
S'Rocket 1.2.4'
p1426
asbasbasbag67
(g83
g69
NtRp1427
(dp1428
g72
(dp1429
sg81
g832
sg74
(lp1430
g67
(g88
g69
NtRp1431
(dp1432
g72
(dp1433
g92
g93
ssg81
g1427
sg74
(lp1434
S'web2py_crontype'
p1435
asbag67
(g88
g69
NtRp1436
(dp1437
g72
(dp1438
g99
g100
ssg81
g1427
sg74
(lp1439
S':'
asbag67
(g88
g69
NtRp1440
(dp1441
g72
(dp1442
sg81
g1427
sg74
(lp1443
g67
(g68
g69
NtRp1444
(dp1445
g72
(dp1446
g80
I4
ssg81
g1440
sg74
(lp1447
S'hard'
p1448
asbasbasbag67
(g83
g69
NtRp1449
(dp1450
g72
(dp1451
sg81
g832
sg74
(lp1452
g67
(g88
g69
NtRp1453
(dp1454
g72
(dp1455
g92
g93
ssg81
g1449
sg74
(lp1456
S'web2py_path'
p1457
asbag67
(g88
g69
NtRp1458
(dp1459
g72
(dp1460
g99
g100
ssg81
g1449
sg74
(lp1461
S':'
asbag67
(g88
g69
NtRp1462
(dp1463
g72
(dp1464
sg81
g1449
sg74
(lp1465
g67
(g68
g69
NtRp1466
(dp1467
g72
(dp1468
g80
I4
ssg81
g1462
sg74
(lp1469
g879
asbasbasbag67
(g83
g69
NtRp1470
(dp1471
g72
(dp1472
sg81
g832
sg74
(lp1473
g67
(g88
g69
NtRp1474
(dp1475
g72
(dp1476
g92
g93
ssg81
g1470
sg74
(lp1477
S'web2py_version'
p1478
asbag67
(g88
g69
NtRp1479
(dp1480
g72
(dp1481
g99
g100
ssg81
g1470
sg74
(lp1482
S':'
asbag67
(g88
g69
NtRp1483
(dp1484
g72
(dp1485
sg81
g1470
sg74
(lp1486
g67
(g68
g69
NtRp1487
(dp1488
g72
(dp1489
g80
I4
ssg81
g1483
sg74
(lp1490
g67
(g76
g69
NtRp1491
(dp1492
g72
(dp1493
g80
I3
ssg81
Nsg74
(lp1494
g67
(g83
g69
NtRp1495
(dp1496
g72
(dp1497
sg81
g1491
sg74
(lp1498
g67
(g88
g69
NtRp1499
(dp1500
g72
(dp1501
sg81
g1495
sg74
(lp1502
g67
(g68
g69
NtRp1503
(dp1504
g72
(dp1505
g80
I3
ssg81
g1499
sg74
(lp1506
S'1'
asbasbasbag67
(g83
g69
NtRp1507
(dp1508
g72
(dp1509
sg81
g1491
sg74
(lp1510
g67
(g88
g69
NtRp1511
(dp1512
g72
(dp1513
sg81
g1507
sg74
(lp1514
g67
(g68
g69
NtRp1515
(dp1516
g72
(dp1517
g80
I3
ssg81
g1511
sg74
(lp1518
S'99'
p1519
asbasbasbag67
(g83
g69
NtRp1520
(dp1521
g72
(dp1522
sg81
g1491
sg74
(lp1523
g67
(g88
g69
NtRp1524
(dp1525
g72
(dp1526
sg81
g1520
sg74
(lp1527
g67
(g68
g69
NtRp1528
(dp1529
g72
(dp1530
g80
I3
ssg81
g1524
sg74
(lp1531
S'7'
asbasbasbag67
(g83
g69
NtRp1532
(dp1533
g72
(dp1534
sg81
g1491
sg74
(lp1535
g67
(g88
g69
NtRp1536
(dp1537
g72
(dp1538
sg81
g1532
sg74
(lp1539
g67
(g68
g69
NtRp1540
(dp1541
g72
(dp1542
g80
I3
ssg81
g1536
sg74
(lp1543
S'datetime.datetime(2012, 3, 4, 22, 12, 8)'
p1544
asbasbasbag67
(g83
g69
NtRp1545
(dp1546
g72
(dp1547
sg81
g1491
sg74
(lp1548
g67
(g88
g69
NtRp1549
(dp1550
g72
(dp1551
sg81
g1545
sg74
(lp1552
g67
(g68
g69
NtRp1553
(dp1554
g72
(dp1555
g80
I3
ssg81
g1549
sg74
(lp1556
S'stable'
p1557
asbasbasbasbasbasbasbag67
(g83
g69
NtRp1558
(dp1559
g72
(dp1560
sg81
g832
sg74
(lp1561
g67
(g88
g69
NtRp1562
(dp1563
g72
(dp1564
g92
g93
ssg81
g1558
sg74
(lp1565
S'wsgi_errors'
p1566
asbag67
(g88
g69
NtRp1567
(dp1568
g72
(dp1569
g99
g100
ssg81
g1558
sg74
(lp1570
S':'
asbag67
(g88
g69
NtRp1571
(dp1572
g72
(dp1573
sg81
g1558
sg74
(lp1574
g67
(g68
g69
NtRp1575
(dp1576
g72
(dp1577
g80
I4
ssg81
g1571
sg74
(lp1578
S"<open file '<stderr>', mode 'w' at 0x7f8ec51111e0>"
p1579
asbasbasbag67
(g83
g69
NtRp1580
(dp1581
g72
(dp1582
sg81
g832
sg74
(lp1583
g67
(g88
g69
NtRp1584
(dp1585
g72
(dp1586
g92
g93
ssg81
g1580
sg74
(lp1587
S'wsgi_file_wrapper'
p1588
asbag67
(g88
g69
NtRp1589
(dp1590
g72
(dp1591
g99
g100
ssg81
g1580
sg74
(lp1592
S':'
asbag67
(g88
g69
NtRp1593
(dp1594
g72
(dp1595
sg81
g1580
sg74
(lp1596
g67
(g68
g69
NtRp1597
(dp1598
g72
(dp1599
g80
I4
ssg81
g1593
sg74
(lp1600
S'<class wsgiref.util.FileWrapper at 0x7f8ec08a8870>'
p1601
asbasbasbag67
(g83
g69
NtRp1602
(dp1603
g72
(dp1604
sg81
g832
sg74
(lp1605
g67
(g88
g69
NtRp1606
(dp1607
g72
(dp1608
g92
g93
ssg81
g1602
sg74
(lp1609
S'wsgi_input'
p1610
asbag67
(g88
g69
NtRp1611
(dp1612
g72
(dp1613
g99
g100
ssg81
g1602
sg74
(lp1614
S':'
asbag67
(g88
g69
NtRp1615
(dp1616
g72
(dp1617
sg81
g1602
sg74
(lp1618
g67
(g68
g69
NtRp1619
(dp1620
g72
(dp1621
g80
I4
ssg81
g1615
sg74
(lp1622
S'<socket._fileobject object at 0x7f8e674c6bd0>'
p1623
asbasbasbag67
(g83
g69
NtRp1624
(dp1625
g72
(dp1626
sg81
g832
sg74
(lp1627
g67
(g88
g69
NtRp1628
(dp1629
g72
(dp1630
g92
g93
ssg81
g1624
sg74
(lp1631
S'wsgi_multiprocess'
p1632
asbag67
(g88
g69
NtRp1633
(dp1634
g72
(dp1635
g99
g100
ssg81
g1624
sg74
(lp1636
S':'
asbag67
(g88
g69
NtRp1637
(dp1638
g72
(dp1639
sg81
g1624
sg74
(lp1640
g67
(g68
g69
NtRp1641
(dp1642
g72
(dp1643
g80
I4
ssg81
g1637
sg74
(lp1644
g110
asbasbasbag67
(g83
g69
NtRp1645
(dp1646
g72
(dp1647
sg81
g832
sg74
(lp1648
g67
(g88
g69
NtRp1649
(dp1650
g72
(dp1651
g92
g93
ssg81
g1645
sg74
(lp1652
S'wsgi_multithread'
p1653
asbag67
(g88
g69
NtRp1654
(dp1655
g72
(dp1656
g99
g100
ssg81
g1645
sg74
(lp1657
S':'
asbag67
(g88
g69
NtRp1658
(dp1659
g72
(dp1660
sg81
g1645
sg74
(lp1661
g67
(g68
g69
NtRp1662
(dp1663
g72
(dp1664
g80
I4
ssg81
g1658
sg74
(lp1665
S'True'
p1666
asbasbasbag67
(g83
g69
NtRp1667
(dp1668
g72
(dp1669
sg81
g832
sg74
(lp1670
g67
(g88
g69
NtRp1671
(dp1672
g72
(dp1673
g92
g93
ssg81
g1667
sg74
(lp1674
S'wsgi_run_once'
p1675
asbag67
(g88
g69
NtRp1676
(dp1677
g72
(dp1678
g99
g100
ssg81
g1667
sg74
(lp1679
S':'
asbag67
(g88
g69
NtRp1680
(dp1681
g72
(dp1682
sg81
g1667
sg74
(lp1683
g67
(g68
g69
NtRp1684
(dp1685
g72
(dp1686
g80
I4
ssg81
g1680
sg74
(lp1687
g110
asbasbasbag67
(g83
g69
NtRp1688
(dp1689
g72
(dp1690
sg81
g832
sg74
(lp1691
g67
(g88
g69
NtRp1692
(dp1693
g72
(dp1694
g92
g93
ssg81
g1688
sg74
(lp1695
S'wsgi_url_scheme'
p1696
asbag67
(g88
g69
NtRp1697
(dp1698
g72
(dp1699
g99
g100
ssg81
g1688
sg74
(lp1700
S':'
asbag67
(g88
g69
NtRp1701
(dp1702
g72
(dp1703
sg81
g1688
sg74
(lp1704
g67
(g68
g69
NtRp1705
(dp1706
g72
(dp1707
g80
I4
ssg81
g1701
sg74
(lp1708
S'http'
p1709
asbasbasbag67
(g83
g69
NtRp1710
(dp1711
g72
(dp1712
sg81
g832
sg74
(lp1713
g67
(g88
g69
NtRp1714
(dp1715
g72
(dp1716
g92
g93
ssg81
g1710
sg74
(lp1717
S'wsgi_version'
p1718
asbag67
(g88
g69
NtRp1719
(dp1720
g72
(dp1721
g99
g100
ssg81
g1710
sg74
(lp1722
S':'
asbag67
(g88
g69
NtRp1723
(dp1724
g72
(dp1725
sg81
g1710
sg74
(lp1726
g67
(g68
g69
NtRp1727
(dp1728
g72
(dp1729
g80
I4
ssg81
g1723
sg74
(lp1730
g67
(g76
g69
NtRp1731
(dp1732
g72
(dp1733
g80
I3
ssg81
Nsg74
(lp1734
g67
(g83
g69
NtRp1735
(dp1736
g72
(dp1737
sg81
g1731
sg74
(lp1738
g67
(g88
g69
NtRp1739
(dp1740
g72
(dp1741
sg81
g1735
sg74
(lp1742
g67
(g68
g69
NtRp1743
(dp1744
g72
(dp1745
g80
I3
ssg81
g1739
sg74
(lp1746
S'1'
asbasbasbag67
(g83
g69
NtRp1747
(dp1748
g72
(dp1749
sg81
g1731
sg74
(lp1750
g67
(g88
g69
NtRp1751
(dp1752
g72
(dp1753
sg81
g1747
sg74
(lp1754
g67
(g68
g69
NtRp1755
(dp1756
g72
(dp1757
g80
I3
ssg81
g1751
sg74
(lp1758
S'0'
asbasbasbasbasbasbasbasbasbasbasbag67
(g83
g69
NtRp1759
(dp1760
g72
(dp1761
sg81
g77
sg74
(lp1762
g67
(g88
g69
NtRp1763
(dp1764
g72
(dp1765
g92
g93
ssg81
g1759
sg74
(lp1766
S'extension'
p1767
asbag67
(g88
g69
NtRp1768
(dp1769
g72
(dp1770
g99
g100
ssg81
g1759
sg74
(lp1771
S':'
asbag67
(g88
g69
NtRp1772
(dp1773
g72
(dp1774
sg81
g1759
sg74
(lp1775
g67
(g68
g69
NtRp1776
(dp1777
g72
(dp1778
g80
I5
ssg81
g1772
sg74
(lp1779
S'html'
p1780
asbasbasbag67
(g83
g69
NtRp1781
(dp1782
g72
(dp1783
sg81
g77
sg74
(lp1784
g67
(g88
g69
NtRp1785
(dp1786
g72
(dp1787
g92
g93
ssg81
g1781
sg74
(lp1788
S'folder'
p1789
asbag67
(g88
g69
NtRp1790
(dp1791
g72
(dp1792
g99
g100
ssg81
g1781
sg74
(lp1793
S':'
asbag67
(g88
g69
NtRp1794
(dp1795
g72
(dp1796
sg81
g1781
sg74
(lp1797
g67
(g68
g69
NtRp1798
(dp1799
g72
(dp1800
g80
I5
ssg81
g1794
sg74
(lp1801
S'/home/pooja/web2py/applications/newsapp/'
p1802
asbasbasbag67
(g83
g69
NtRp1803
(dp1804
g72
(dp1805
sg81
g77
sg74
(lp1806
g67
(g88
g69
NtRp1807
(dp1808
g72
(dp1809
g92
g93
ssg81
g1803
sg74
(lp1810
S'function'
p1811
asbag67
(g88
g69
NtRp1812
(dp1813
g72
(dp1814
g99
g100
ssg81
g1803
sg74
(lp1815
S':'
asbag67
(g88
g69
NtRp1816
(dp1817
g72
(dp1818
sg81
g1803
sg74
(lp1819
g67
(g68
g69
NtRp1820
(dp1821
g72
(dp1822
g80
I5
ssg81
g1816
sg74
(lp1823
S'index'
p1824
asbasbasbag67
(g83
g69
NtRp1825
(dp1826
g72
(dp1827
sg81
g77
sg74
(lp1828
g67
(g88
g69
NtRp1829
(dp1830
g72
(dp1831
g92
g93
ssg81
g1825
sg74
(lp1832
S'get_vars'
p1833
asbag67
(g88
g69
NtRp1834
(dp1835
g72
(dp1836
g99
g100
ssg81
g1825
sg74
(lp1837
S':'
asbag67
(g88
g69
NtRp1838
(dp1839
g72
(dp1840
sg81
g1825
sg74
(lp1841
g67
(g68
g69
NtRp1842
(dp1843
g72
(dp1844
g80
I5
ssg81
g1838
sg74
(lp1845
g67
(g76
g69
NtRp1846
(dp1847
g72
(dp1848
g80
I4
ssg81
Nsg74
(lp1849
sbasbasbasbag67
(g83
g69
NtRp1850
(dp1851
g72
(dp1852
sg81
g77
sg74
(lp1853
g67
(g88
g69
NtRp1854
(dp1855
g72
(dp1856
g92
g93
ssg81
g1850
sg74
(lp1857
S'global_settings'
p1858
asbag67
(g88
g69
NtRp1859
(dp1860
g72
(dp1861
g99
g100
ssg81
g1850
sg74
(lp1862
S':'
asbag67
(g88
g69
NtRp1863
(dp1864
g72
(dp1865
sg81
g1850
sg74
(lp1866
g67
(g68
g69
NtRp1867
(dp1868
g72
(dp1869
g80
I5
ssg81
g1863
sg74
(lp1870
g67
(g76
g69
NtRp1871
(dp1872
g72
(dp1873
g80
I4
ssg81
Nsg74
(lp1874
g67
(g83
g69
NtRp1875
(dp1876
g72
(dp1877
sg81
g1871
sg74
(lp1878
g67
(g88
g69
NtRp1879
(dp1880
g72
(dp1881
g92
g93
ssg81
g1875
sg74
(lp1882
g844
asbag67
(g88
g69
NtRp1883
(dp1884
g72
(dp1885
g99
g100
ssg81
g1875
sg74
(lp1886
S':'
asbag67
(g88
g69
NtRp1887
(dp1888
g72
(dp1889
sg81
g1875
sg74
(lp1890
g67
(g68
g69
NtRp1891
(dp1892
g72
(dp1893
g80
I4
ssg81
g1887
sg74
(lp1894
S"set(['/home/pooja/web2py/applications/admin/', '/home/pooja/web2py/applications/newsapp/', '/home/pooja/web2py/applications/welcome/'])"
p1895
asbasbasbag67
(g83
g69
NtRp1896
(dp1897
g72
(dp1898
sg81
g1871
sg74
(lp1899
g67
(g88
g69
NtRp1900
(dp1901
g72
(dp1902
g92
g93
ssg81
g1896
sg74
(lp1903
g866
asbag67
(g88
g69
NtRp1904
(dp1905
g72
(dp1906
g99
g100
ssg81
g1896
sg74
(lp1907
S':'
asbag67
(g88
g69
NtRp1908
(dp1909
g72
(dp1910
sg81
g1896
sg74
(lp1911
g67
(g68
g69
NtRp1912
(dp1913
g72
(dp1914
g80
I4
ssg81
g1908
sg74
(lp1915
g879
asbasbasbag67
(g83
g69
NtRp1916
(dp1917
g72
(dp1918
sg81
g1871
sg74
(lp1919
g67
(g88
g69
NtRp1920
(dp1921
g72
(dp1922
g92
g93
ssg81
g1916
sg74
(lp1923
g888
asbag67
(g88
g69
NtRp1924
(dp1925
g72
(dp1926
g99
g100
ssg81
g1916
sg74
(lp1927
S':'
asbag67
(g88
g69
NtRp1928
(dp1929
g72
(dp1930
sg81
g1916
sg74
(lp1931
g67
(g68
g69
NtRp1932
(dp1933
g72
(dp1934
g80
I4
ssg81
g1928
sg74
(lp1935
g67
(g76
g69
NtRp1936
(dp1937
g72
(dp1938
g80
I3
ssg81
Nsg74
(lp1939
sbasbasbasbag67
(g83
g69
NtRp1940
(dp1941
g72
(dp1942
sg81
g1871
sg74
(lp1943
g67
(g88
g69
NtRp1944
(dp1945
g72
(dp1946
g92
g93
ssg81
g1940
sg74
(lp1947
g913
asbag67
(g88
g69
NtRp1948
(dp1949
g72
(dp1950
g99
g100
ssg81
g1940
sg74
(lp1951
S':'
asbag67
(g88
g69
NtRp1952
(dp1953
g72
(dp1954
sg81
g1940
sg74
(lp1955
g67
(g68
g69
NtRp1956
(dp1957
g72
(dp1958
g80
I4
ssg81
g1952
sg74
(lp1959
S"<Values at 0x7f8ec06a5908: {'verbose': False, 'ip': '127.0.0.1', 'shutdown_timeout': 5, 'taskbar': False, 'nocron': False, 'pid_filename': 'httpserver.pid', 'maxthreads': None, 'softcron': False, 'server_name': 'pooja-HP-15-Notebook-PC', 'bpython': False, 'nogui': False, 'port': 8000, 'extcron': False, 'debuglevel': 30, 'test': None, 'folder': '/home/pooja/web2py', 'config': '', 'import_models': False, 'winservice': '', 'shell': None, 'run': '', 'log_filename': 'httpserver.log', 'args': [''], 'socket_timeout': 5, 'ssl_ca_certificate': None, 'scheduler': None, 'profiler_filename': None, 'ssl_private_key': '', 'password': '<ask>', 'request_queue_size': 5, 'ssl_certificate': '', 'cronjob': False, 'numthreads': None, 'quiet': False, 'interfaces': None, 'minthreads': None, 'timeout': 10, 'plain': False, 'nobanner': False}>"
p1960
asbasbasbag67
(g83
g69
NtRp1961
(dp1962
g72
(dp1963
sg81
g1871
sg74
(lp1964
g67
(g88
g69
NtRp1965
(dp1966
g72
(dp1967
g92
g93
ssg81
g1961
sg74
(lp1968
g935
asbag67
(g88
g69
NtRp1969
(dp1970
g72
(dp1971
g99
g100
ssg81
g1961
sg74
(lp1972
S':'
asbag67
(g88
g69
NtRp1973
(dp1974
g72
(dp1975
sg81
g1961
sg74
(lp1976
g67
(g68
g69
NtRp1977
(dp1978
g72
(dp1979
g80
I4
ssg81
g1973
sg74
(lp1980
S'set([])'
p1981
asbasbasbag67
(g83
g69
NtRp1982
(dp1983
g72
(dp1984
sg81
g1871
sg74
(lp1985
g67
(g88
g69
NtRp1986
(dp1987
g72
(dp1988
g92
g93
ssg81
g1982
sg74
(lp1989
g957
asbag67
(g88
g69
NtRp1990
(dp1991
g72
(dp1992
g99
g100
ssg81
g1982
sg74
(lp1993
S':'
asbag67
(g88
g69
NtRp1994
(dp1995
g72
(dp1996
sg81
g1982
sg74
(lp1997
g67
(g68
g69
NtRp1998
(dp1999
g72
(dp2000
g80
I4
ssg81
g1994
sg74
(lp2001
g110
asbasbasbag67
(g83
g69
NtRp2002
(dp2003
g72
(dp2004
sg81
g1871
sg74
(lp2005
g67
(g88
g69
NtRp2006
(dp2007
g72
(dp2008
g92
g93
ssg81
g2002
sg74
(lp2009
g978
asbag67
(g88
g69
NtRp2010
(dp2011
g72
(dp2012
g99
g100
ssg81
g2002
sg74
(lp2013
S':'
asbag67
(g88
g69
NtRp2014
(dp2015
g72
(dp2016
sg81
g2002
sg74
(lp2017
g67
(g68
g69
NtRp2018
(dp2019
g72
(dp2020
g80
I4
ssg81
g2014
sg74
(lp2021
g991
asbasbasbag67
(g83
g69
NtRp2022
(dp2023
g72
(dp2024
sg81
g1871
sg74
(lp2025
g67
(g88
g69
NtRp2026
(dp2027
g72
(dp2028
g92
g93
ssg81
g2022
sg74
(lp2029
g1176
asbag67
(g88
g69
NtRp2030
(dp2031
g72
(dp2032
g99
g100
ssg81
g2022
sg74
(lp2033
S':'
asbag67
(g88
g69
NtRp2034
(dp2035
g72
(dp2036
sg81
g2022
sg74
(lp2037
g67
(g68
g69
NtRp2038
(dp2039
g72
(dp2040
g80
I4
ssg81
g2034
sg74
(lp2041
g110
asbasbasbag67
(g83
g69
NtRp2042
(dp2043
g72
(dp2044
sg81
g1871
sg74
(lp2045
g67
(g88
g69
NtRp2046
(dp2047
g72
(dp2048
g92
g93
ssg81
g2042
sg74
(lp2049
g1197
asbag67
(g88
g69
NtRp2050
(dp2051
g72
(dp2052
g99
g100
ssg81
g2042
sg74
(lp2053
S':'
asbag67
(g88
g69
NtRp2054
(dp2055
g72
(dp2056
sg81
g2042
sg74
(lp2057
g67
(g68
g69
NtRp2058
(dp2059
g72
(dp2060
g80
I4
ssg81
g2054
sg74
(lp2061
g110
asbasbasbag67
(g83
g69
NtRp2062
(dp2063
g72
(dp2064
sg81
g1871
sg74
(lp2065
g67
(g88
g69
NtRp2066
(dp2067
g72
(dp2068
g92
g93
ssg81
g2062
sg74
(lp2069
g1435
asbag67
(g88
g69
NtRp2070
(dp2071
g72
(dp2072
g99
g100
ssg81
g2062
sg74
(lp2073
S':'
asbag67
(g88
g69
NtRp2074
(dp2075
g72
(dp2076
sg81
g2062
sg74
(lp2077
g67
(g68
g69
NtRp2078
(dp2079
g72
(dp2080
g80
I4
ssg81
g2074
sg74
(lp2081
g1448
asbasbasbag67
(g83
g69
NtRp2082
(dp2083
g72
(dp2084
sg81
g1871
sg74
(lp2085
g67
(g88
g69
NtRp2086
(dp2087
g72
(dp2088
g92
g93
ssg81
g2082
sg74
(lp2089
g1478
asbag67
(g88
g69
NtRp2090
(dp2091
g72
(dp2092
g99
g100
ssg81
g2082
sg74
(lp2093
S':'
asbag67
(g88
g69
NtRp2094
(dp2095
g72
(dp2096
sg81
g2082
sg74
(lp2097
g67
(g68
g69
NtRp2098
(dp2099
g72
(dp2100
g80
I4
ssg81
g2094
sg74
(lp2101
g67
(g76
g69
NtRp2102
(dp2103
g72
(dp2104
g80
I3
ssg81
Nsg74
(lp2105
g67
(g83
g69
NtRp2106
(dp2107
g72
(dp2108
sg81
g2102
sg74
(lp2109
g67
(g88
g69
NtRp2110
(dp2111
g72
(dp2112
sg81
g2106
sg74
(lp2113
g67
(g68
g69
NtRp2114
(dp2115
g72
(dp2116
g80
I3
ssg81
g2110
sg74
(lp2117
S'1'
asbasbasbag67
(g83
g69
NtRp2118
(dp2119
g72
(dp2120
sg81
g2102
sg74
(lp2121
g67
(g88
g69
NtRp2122
(dp2123
g72
(dp2124
sg81
g2118
sg74
(lp2125
g67
(g68
g69
NtRp2126
(dp2127
g72
(dp2128
g80
I3
ssg81
g2122
sg74
(lp2129
S'99'
p2130
asbasbasbag67
(g83
g69
NtRp2131
(dp2132
g72
(dp2133
sg81
g2102
sg74
(lp2134
g67
(g88
g69
NtRp2135
(dp2136
g72
(dp2137
sg81
g2131
sg74
(lp2138
g67
(g68
g69
NtRp2139
(dp2140
g72
(dp2141
g80
I3
ssg81
g2135
sg74
(lp2142
S'7'
asbasbasbag67
(g83
g69
NtRp2143
(dp2144
g72
(dp2145
sg81
g2102
sg74
(lp2146
g67
(g88
g69
NtRp2147
(dp2148
g72
(dp2149
sg81
g2143
sg74
(lp2150
g67
(g68
g69
NtRp2151
(dp2152
g72
(dp2153
g80
I3
ssg81
g2147
sg74
(lp2154
S'datetime.datetime(2012, 3, 4, 22, 12, 8)'
p2155
asbasbasbag67
(g83
g69
NtRp2156
(dp2157
g72
(dp2158
sg81
g2102
sg74
(lp2159
g67
(g88
g69
NtRp2160
(dp2161
g72
(dp2162
sg81
g2156
sg74
(lp2163
g67
(g68
g69
NtRp2164
(dp2165
g72
(dp2166
g80
I3
ssg81
g2160
sg74
(lp2167
g1557
asbasbasbasbasbasbasbasbasbasbasbag67
(g83
g69
NtRp2168
(dp2169
g72
(dp2170
sg81
g77
sg74
(lp2171
g67
(g88
g69
NtRp2172
(dp2173
g72
(dp2174
g92
g93
ssg81
g2168
sg74
(lp2175
S'is_https'
p2176
asbag67
(g88
g69
NtRp2177
(dp2178
g72
(dp2179
g99
g100
ssg81
g2168
sg74
(lp2180
S':'
asbag67
(g88
g69
NtRp2181
(dp2182
g72
(dp2183
sg81
g2168
sg74
(lp2184
g67
(g68
g69
NtRp2185
(dp2186
g72
(dp2187
g80
I5
ssg81
g2181
sg74
(lp2188
g110
asbasbasbag67
(g83
g69
NtRp2189
(dp2190
g72
(dp2191
sg81
g77
sg74
(lp2192
g67
(g88
g69
NtRp2193
(dp2194
g72
(dp2195
g92
g93
ssg81
g2189
sg74
(lp2196
S'is_local'
p2197
asbag67
(g88
g69
NtRp2198
(dp2199
g72
(dp2200
g99
g100
ssg81
g2189
sg74
(lp2201
S':'
asbag67
(g88
g69
NtRp2202
(dp2203
g72
(dp2204
sg81
g2189
sg74
(lp2205
g67
(g68
g69
NtRp2206
(dp2207
g72
(dp2208
g80
I5
ssg81
g2202
sg74
(lp2209
g1666
asbasbasbag67
(g83
g69
NtRp2210
(dp2211
g72
(dp2212
sg81
g77
sg74
(lp2213
g67
(g88
g69
NtRp2214
(dp2215
g72
(dp2216
g92
g93
ssg81
g2210
sg74
(lp2217
S'is_restful'
p2218
asbag67
(g88
g69
NtRp2219
(dp2220
g72
(dp2221
g99
g100
ssg81
g2210
sg74
(lp2222
S':'
asbag67
(g88
g69
NtRp2223
(dp2224
g72
(dp2225
sg81
g2210
sg74
(lp2226
g67
(g68
g69
NtRp2227
(dp2228
g72
(dp2229
g80
I5
ssg81
g2223
sg74
(lp2230
g110
asbasbasbag67
(g83
g69
NtRp2231
(dp2232
g72
(dp2233
sg81
g77
sg74
(lp2234
g67
(g88
g69
NtRp2235
(dp2236
g72
(dp2237
g92
g93
ssg81
g2231
sg74
(lp2238
S'now'
p2239
asbag67
(g88
g69
NtRp2240
(dp2241
g72
(dp2242
g99
g100
ssg81
g2231
sg74
(lp2243
S':'
asbag67
(g88
g69
NtRp2244
(dp2245
g72
(dp2246
sg81
g2231
sg74
(lp2247
g67
(g68
g69
NtRp2248
(dp2249
g72
(dp2250
g80
I5
ssg81
g2244
sg74
(lp2251
S'datetime.datetime(2015, 5, 9, 15, 24, 55, 475330)'
p2252
asbasbasbag67
(g83
g69
NtRp2253
(dp2254
g72
(dp2255
sg81
g77
sg74
(lp2256
g67
(g88
g69
NtRp2257
(dp2258
g72
(dp2259
g92
g93
ssg81
g2253
sg74
(lp2260
S'post_vars'
p2261
asbag67
(g88
g69
NtRp2262
(dp2263
g72
(dp2264
g99
g100
ssg81
g2253
sg74
(lp2265
S':'
asbag67
(g88
g69
NtRp2266
(dp2267
g72
(dp2268
sg81
g2253
sg74
(lp2269
g67
(g68
g69
NtRp2270
(dp2271
g72
(dp2272
g80
I5
ssg81
g2266
sg74
(lp2273
g67
(g76
g69
NtRp2274
(dp2275
g72
(dp2276
g80
I4
ssg81
Nsg74
(lp2277
sbasbasbasbag67
(g83
g69
NtRp2278
(dp2279
g72
(dp2280
sg81
g77
sg74
(lp2281
g67
(g88
g69
NtRp2282
(dp2283
g72
(dp2284
g92
g93
ssg81
g2278
sg74
(lp2285
S'url'
p2286
asbag67
(g88
g69
NtRp2287
(dp2288
g72
(dp2289
g99
g100
ssg81
g2278
sg74
(lp2290
S':'
asbag67
(g88
g69
NtRp2291
(dp2292
g72
(dp2293
sg81
g2278
sg74
(lp2294
g67
(g68
g69
NtRp2295
(dp2296
g72
(dp2297
g80
I5
ssg81
g2291
sg74
(lp2298
S'/newsapp/default/index'
p2299
asbasbasbag67
(g83
g69
NtRp2300
(dp2301
g72
(dp2302
sg81
g77
sg74
(lp2303
g67
(g88
g69
NtRp2304
(dp2305
g72
(dp2306
g92
g93
ssg81
g2300
sg74
(lp2307
S'utcnow'
p2308
asbag67
(g88
g69
NtRp2309
(dp2310
g72
(dp2311
g99
g100
ssg81
g2300
sg74
(lp2312
S':'
asbag67
(g88
g69
NtRp2313
(dp2314
g72
(dp2315
sg81
g2300
sg74
(lp2316
g67
(g68
g69
NtRp2317
(dp2318
g72
(dp2319
g80
I5
ssg81
g2313
sg74
(lp2320
S'datetime.datetime(2015, 5, 9, 9, 54, 55, 475382)'
p2321
asbasbasbag67
(g83
g69
NtRp2322
(dp2323
g72
(dp2324
sg81
g77
sg74
(lp2325
g67
(g88
g69
NtRp2326
(dp2327
g72
(dp2328
g92
g93
ssg81
g2322
sg74
(lp2329
S'uuid'
p2330
asbag67
(g88
g69
NtRp2331
(dp2332
g72
(dp2333
g99
g100
ssg81
g2322
sg74
(lp2334
S':'
asbag67
(g88
g69
NtRp2335
(dp2336
g72
(dp2337
sg81
g2322
sg74
(lp2338
g67
(g68
g69
NtRp2339
(dp2340
g72
(dp2341
g80
I5
ssg81
g2335
sg74
(lp2342
S'newsapp/127.0.0.1.2015-05-09.15-24-55.e97e1692-65c9-4ac4-9c7c-a943e1b97a25'
p2343
asbasbasbag67
(g83
g69
NtRp2344
(dp2345
g72
(dp2346
sg81
g77
sg74
(lp2347
g67
(g88
g69
NtRp2348
(dp2349
g72
(dp2350
g92
g93
ssg81
g2344
sg74
(lp2351
S'vars'
p2352
asbag67
(g88
g69
NtRp2353
(dp2354
g72
(dp2355
g99
g100
ssg81
g2344
sg74
(lp2356
S':'
asbag67
(g88
g69
NtRp2357
(dp2358
g72
(dp2359
sg81
g2344
sg74
(lp2360
g67
(g68
g69
NtRp2361
(dp2362
g72
(dp2363
g80
I5
ssg81
g2357
sg74
(lp2364
g67
(g76
g69
NtRp2365
(dp2366
g72
(dp2367
g80
I4
ssg81
Nsg74
(lp2368
sbasbasbasbag67
(g83
g69
NtRp2369
(dp2370
g72
(dp2371
sg81
g77
sg74
(lp2372
g67
(g88
g69
NtRp2373
(dp2374
g72
(dp2375
g92
g93
ssg81
g2369
sg74
(lp2376
S'wsgi'
p2377
asbag67
(g88
g69
NtRp2378
(dp2379
g72
(dp2380
g99
g100
ssg81
g2369
sg74
(lp2381
S':'
asbag67
(g88
g69
NtRp2382
(dp2383
g72
(dp2384
sg81
g2369
sg74
(lp2385
g67
(g68
g69
NtRp2386
(dp2387
g72
(dp2388
g80
I5
ssg81
g2382
sg74
(lp2389
g67
(g76
g69
NtRp2390
(dp2391
g72
(dp2392
g80
I4
ssg81
Nsg74
(lp2393
g67
(g83
g69
NtRp2394
(dp2395
g72
(dp2396
sg81
g2390
sg74
(lp2397
g67
(g88
g69
NtRp2398
(dp2399
g72
(dp2400
g92
g93
ssg81
g2394
sg74
(lp2401
S'environ'
p2402
asbag67
(g88
g69
NtRp2403
(dp2404
g72
(dp2405
g99
g100
ssg81
g2394
sg74
(lp2406
S':'
asbag67
(g88
g69
NtRp2407
(dp2408
g72
(dp2409
sg81
g2394
sg74
(lp2410
g67
(g68
g69
NtRp2411
(dp2412
g72
(dp2413
g80
I4
ssg81
g2407
sg74
(lp2414
g67
(g76
g69
NtRp2415
(dp2416
g72
(dp2417
g80
I3
ssg81
Nsg74
(lp2418
g67
(g83
g69
NtRp2419
(dp2420
g72
(dp2421
sg81
g2415
sg74
(lp2422
g67
(g88
g69
NtRp2423
(dp2424
g72
(dp2425
g92
g93
ssg81
g2419
sg74
(lp2426
S'HTTP_ACCEPT'
p2427
asbag67
(g88
g69
NtRp2428
(dp2429
g72
(dp2430
g99
g100
ssg81
g2419
sg74
(lp2431
S':'
asbag67
(g88
g69
NtRp2432
(dp2433
g72
(dp2434
sg81
g2419
sg74
(lp2435
g67
(g68
g69
NtRp2436
(dp2437
g72
(dp2438
g80
I3
ssg81
g2432
sg74
(lp2439
g1013
asbasbasbag67
(g83
g69
NtRp2440
(dp2441
g72
(dp2442
sg81
g2415
sg74
(lp2443
g67
(g88
g69
NtRp2444
(dp2445
g72
(dp2446
g92
g93
ssg81
g2440
sg74
(lp2447
S'HTTP_ACCEPT_ENCODING'
p2448
asbag67
(g88
g69
NtRp2449
(dp2450
g72
(dp2451
g99
g100
ssg81
g2440
sg74
(lp2452
S':'
asbag67
(g88
g69
NtRp2453
(dp2454
g72
(dp2455
sg81
g2440
sg74
(lp2456
g67
(g68
g69
NtRp2457
(dp2458
g72
(dp2459
g80
I3
ssg81
g2453
sg74
(lp2460
g1035
asbasbasbag67
(g83
g69
NtRp2461
(dp2462
g72
(dp2463
sg81
g2415
sg74
(lp2464
g67
(g88
g69
NtRp2465
(dp2466
g72
(dp2467
g92
g93
ssg81
g2461
sg74
(lp2468
S'HTTP_ACCEPT_LANGUAGE'
p2469
asbag67
(g88
g69
NtRp2470
(dp2471
g72
(dp2472
g99
g100
ssg81
g2461
sg74
(lp2473
S':'
asbag67
(g88
g69
NtRp2474
(dp2475
g72
(dp2476
sg81
g2461
sg74
(lp2477
g67
(g68
g69
NtRp2478
(dp2479
g72
(dp2480
g80
I3
ssg81
g2474
sg74
(lp2481
g1057
asbasbasbag67
(g83
g69
NtRp2482
(dp2483
g72
(dp2484
sg81
g2415
sg74
(lp2485
g67
(g88
g69
NtRp2486
(dp2487
g72
(dp2488
g92
g93
ssg81
g2482
sg74
(lp2489
S'HTTP_CONNECTION'
p2490
asbag67
(g88
g69
NtRp2491
(dp2492
g72
(dp2493
g99
g100
ssg81
g2482
sg74
(lp2494
S':'
asbag67
(g88
g69
NtRp2495
(dp2496
g72
(dp2497
sg81
g2482
sg74
(lp2498
g67
(g68
g69
NtRp2499
(dp2500
g72
(dp2501
g80
I3
ssg81
g2495
sg74
(lp2502
g1079
asbasbasbag67
(g83
g69
NtRp2503
(dp2504
g72
(dp2505
sg81
g2415
sg74
(lp2506
g67
(g88
g69
NtRp2507
(dp2508
g72
(dp2509
g92
g93
ssg81
g2503
sg74
(lp2510
S'HTTP_COOKIE'
p2511
asbag67
(g88
g69
NtRp2512
(dp2513
g72
(dp2514
g99
g100
ssg81
g2503
sg74
(lp2515
S':'
asbag67
(g88
g69
NtRp2516
(dp2517
g72
(dp2518
sg81
g2503
sg74
(lp2519
g67
(g68
g69
NtRp2520
(dp2521
g72
(dp2522
g80
I3
ssg81
g2516
sg74
(lp2523
g1101
asbasbasbag67
(g83
g69
NtRp2524
(dp2525
g72
(dp2526
sg81
g2415
sg74
(lp2527
g67
(g88
g69
NtRp2528
(dp2529
g72
(dp2530
g92
g93
ssg81
g2524
sg74
(lp2531
S'HTTP_HOST'
p2532
asbag67
(g88
g69
NtRp2533
(dp2534
g72
(dp2535
g99
g100
ssg81
g2524
sg74
(lp2536
S':'
asbag67
(g88
g69
NtRp2537
(dp2538
g72
(dp2539
sg81
g2524
sg74
(lp2540
g67
(g68
g69
NtRp2541
(dp2542
g72
(dp2543
g80
I3
ssg81
g2537
sg74
(lp2544
g1123
asbasbasbag67
(g83
g69
NtRp2545
(dp2546
g72
(dp2547
sg81
g2415
sg74
(lp2548
g67
(g88
g69
NtRp2549
(dp2550
g72
(dp2551
g92
g93
ssg81
g2545
sg74
(lp2552
S'HTTP_REFERER'
p2553
asbag67
(g88
g69
NtRp2554
(dp2555
g72
(dp2556
g99
g100
ssg81
g2545
sg74
(lp2557
S':'
asbag67
(g88
g69
NtRp2558
(dp2559
g72
(dp2560
sg81
g2545
sg74
(lp2561
g67
(g68
g69
NtRp2562
(dp2563
g72
(dp2564
g80
I3
ssg81
g2558
sg74
(lp2565
g1145
asbasbasbag67
(g83
g69
NtRp2566
(dp2567
g72
(dp2568
sg81
g2415
sg74
(lp2569
g67
(g88
g69
NtRp2570
(dp2571
g72
(dp2572
g92
g93
ssg81
g2566
sg74
(lp2573
S'HTTP_USER_AGENT'
p2574
asbag67
(g88
g69
NtRp2575
(dp2576
g72
(dp2577
g99
g100
ssg81
g2566
sg74
(lp2578
S':'
asbag67
(g88
g69
NtRp2579
(dp2580
g72
(dp2581
sg81
g2566
sg74
(lp2582
g67
(g68
g69
NtRp2583
(dp2584
g72
(dp2585
g80
I3
ssg81
g2579
sg74
(lp2586
g1167
asbasbasbag67
(g83
g69
NtRp2587
(dp2588
g72
(dp2589
sg81
g2415
sg74
(lp2590
g67
(g88
g69
NtRp2591
(dp2592
g72
(dp2593
g92
g93
ssg81
g2587
sg74
(lp2594
S'PATH_INFO'
p2595
asbag67
(g88
g69
NtRp2596
(dp2597
g72
(dp2598
g99
g100
ssg81
g2587
sg74
(lp2599
S':'
asbag67
(g88
g69
NtRp2600
(dp2601
g72
(dp2602
sg81
g2587
sg74
(lp2603
g67
(g68
g69
NtRp2604
(dp2605
g72
(dp2606
g80
I3
ssg81
g2600
sg74
(lp2607
g1231
asbasbasbag67
(g83
g69
NtRp2608
(dp2609
g72
(dp2610
sg81
g2415
sg74
(lp2611
g67
(g88
g69
NtRp2612
(dp2613
g72
(dp2614
g92
g93
ssg81
g2608
sg74
(lp2615
S'QUERY_STRING'
p2616
asbag67
(g88
g69
NtRp2617
(dp2618
g72
(dp2619
g99
g100
ssg81
g2608
sg74
(lp2620
S':'
asbag67
(g88
g69
NtRp2621
(dp2622
g72
(dp2623
sg81
g2608
sg74
(lp2624
g67
(g68
g69
NtRp2625
(dp2626
g72
(dp2627
g80
I3
ssg81
g2621
sg74
(lp2628
S''
asbasbasbag67
(g83
g69
NtRp2629
(dp2630
g72
(dp2631
sg81
g2415
sg74
(lp2632
g67
(g88
g69
NtRp2633
(dp2634
g72
(dp2635
g92
g93
ssg81
g2629
sg74
(lp2636
S'REMOTE_ADDR'
p2637
asbag67
(g88
g69
NtRp2638
(dp2639
g72
(dp2640
g99
g100
ssg81
g2629
sg74
(lp2641
S':'
asbag67
(g88
g69
NtRp2642
(dp2643
g72
(dp2644
sg81
g2629
sg74
(lp2645
g67
(g68
g69
NtRp2646
(dp2647
g72
(dp2648
g80
I3
ssg81
g2642
sg74
(lp2649
g200
asbasbasbag67
(g83
g69
NtRp2650
(dp2651
g72
(dp2652
sg81
g2415
sg74
(lp2653
g67
(g88
g69
NtRp2654
(dp2655
g72
(dp2656
g92
g93
ssg81
g2650
sg74
(lp2657
S'REMOTE_PORT'
p2658
asbag67
(g88
g69
NtRp2659
(dp2660
g72
(dp2661
g99
g100
ssg81
g2650
sg74
(lp2662
S':'
asbag67
(g88
g69
NtRp2663
(dp2664
g72
(dp2665
sg81
g2650
sg74
(lp2666
g67
(g68
g69
NtRp2667
(dp2668
g72
(dp2669
g80
I3
ssg81
g2663
sg74
(lp2670
g1295
asbasbasbag67
(g83
g69
NtRp2671
(dp2672
g72
(dp2673
sg81
g2415
sg74
(lp2674
g67
(g88
g69
NtRp2675
(dp2676
g72
(dp2677
g92
g93
ssg81
g2671
sg74
(lp2678
S'REQUEST_METHOD'
p2679
asbag67
(g88
g69
NtRp2680
(dp2681
g72
(dp2682
g99
g100
ssg81
g2671
sg74
(lp2683
S':'
asbag67
(g88
g69
NtRp2684
(dp2685
g72
(dp2686
sg81
g2671
sg74
(lp2687
g67
(g68
g69
NtRp2688
(dp2689
g72
(dp2690
g80
I3
ssg81
g2684
sg74
(lp2691
g1317
asbasbasbag67
(g83
g69
NtRp2692
(dp2693
g72
(dp2694
sg81
g2415
sg74
(lp2695
g67
(g88
g69
NtRp2696
(dp2697
g72
(dp2698
g92
g93
ssg81
g2692
sg74
(lp2699
S'SCRIPT_NAME'
p2700
asbag67
(g88
g69
NtRp2701
(dp2702
g72
(dp2703
g99
g100
ssg81
g2692
sg74
(lp2704
S':'
asbag67
(g88
g69
NtRp2705
(dp2706
g72
(dp2707
sg81
g2692
sg74
(lp2708
g67
(g68
g69
NtRp2709
(dp2710
g72
(dp2711
g80
I3
ssg81
g2705
sg74
(lp2712
S''
asbasbasbag67
(g83
g69
NtRp2713
(dp2714
g72
(dp2715
sg81
g2415
sg74
(lp2716
g67
(g88
g69
NtRp2717
(dp2718
g72
(dp2719
g92
g93
ssg81
g2713
sg74
(lp2720
S'SERVER_NAME'
p2721
asbag67
(g88
g69
NtRp2722
(dp2723
g72
(dp2724
g99
g100
ssg81
g2713
sg74
(lp2725
S':'
asbag67
(g88
g69
NtRp2726
(dp2727
g72
(dp2728
sg81
g2713
sg74
(lp2729
g67
(g68
g69
NtRp2730
(dp2731
g72
(dp2732
g80
I3
ssg81
g2726
sg74
(lp2733
g1360
asbasbasbag67
(g83
g69
NtRp2734
(dp2735
g72
(dp2736
sg81
g2415
sg74
(lp2737
g67
(g88
g69
NtRp2738
(dp2739
g72
(dp2740
g92
g93
ssg81
g2734
sg74
(lp2741
S'SERVER_PORT'
p2742
asbag67
(g88
g69
NtRp2743
(dp2744
g72
(dp2745
g99
g100
ssg81
g2734
sg74
(lp2746
S':'
asbag67
(g88
g69
NtRp2747
(dp2748
g72
(dp2749
sg81
g2734
sg74
(lp2750
g67
(g68
g69
NtRp2751
(dp2752
g72
(dp2753
g80
I3
ssg81
g2747
sg74
(lp2754
g1382
asbasbasbag67
(g83
g69
NtRp2755
(dp2756
g72
(dp2757
sg81
g2415
sg74
(lp2758
g67
(g88
g69
NtRp2759
(dp2760
g72
(dp2761
g92
g93
ssg81
g2755
sg74
(lp2762
S'SERVER_PROTOCOL'
p2763
asbag67
(g88
g69
NtRp2764
(dp2765
g72
(dp2766
g99
g100
ssg81
g2755
sg74
(lp2767
S':'
asbag67
(g88
g69
NtRp2768
(dp2769
g72
(dp2770
sg81
g2755
sg74
(lp2771
g67
(g68
g69
NtRp2772
(dp2773
g72
(dp2774
g80
I3
ssg81
g2768
sg74
(lp2775
g1404
asbasbasbag67
(g83
g69
NtRp2776
(dp2777
g72
(dp2778
sg81
g2415
sg74
(lp2779
g67
(g88
g69
NtRp2780
(dp2781
g72
(dp2782
g92
g93
ssg81
g2776
sg74
(lp2783
S'SERVER_SOFTWARE'
p2784
asbag67
(g88
g69
NtRp2785
(dp2786
g72
(dp2787
g99
g100
ssg81
g2776
sg74
(lp2788
S':'
asbag67
(g88
g69
NtRp2789
(dp2790
g72
(dp2791
sg81
g2776
sg74
(lp2792
g67
(g68
g69
NtRp2793
(dp2794
g72
(dp2795
g80
I3
ssg81
g2789
sg74
(lp2796
g1426
asbasbasbag67
(g83
g69
NtRp2797
(dp2798
g72
(dp2799
sg81
g2415
sg74
(lp2800
g67
(g88
g69
NtRp2801
(dp2802
g72
(dp2803
g92
g93
ssg81
g2797
sg74
(lp2804
S'wsgi.errors'
p2805
asbag67
(g88
g69
NtRp2806
(dp2807
g72
(dp2808
g99
g100
ssg81
g2797
sg74
(lp2809
S':'
asbag67
(g88
g69
NtRp2810
(dp2811
g72
(dp2812
sg81
g2797
sg74
(lp2813
g67
(g68
g69
NtRp2814
(dp2815
g72
(dp2816
g80
I3
ssg81
g2810
sg74
(lp2817
S"<open file '<stderr>', mode 'w' at 0x7f8ec51111e0>"
p2818
asbasbasbag67
(g83
g69
NtRp2819
(dp2820
g72
(dp2821
sg81
g2415
sg74
(lp2822
g67
(g88
g69
NtRp2823
(dp2824
g72
(dp2825
g92
g93
ssg81
g2819
sg74
(lp2826
S'wsgi.file_wrapper'
p2827
asbag67
(g88
g69
NtRp2828
(dp2829
g72
(dp2830
g99
g100
ssg81
g2819
sg74
(lp2831
S':'
asbag67
(g88
g69
NtRp2832
(dp2833
g72
(dp2834
sg81
g2819
sg74
(lp2835
g67
(g68
g69
NtRp2836
(dp2837
g72
(dp2838
g80
I3
ssg81
g2832
sg74
(lp2839
S'<class wsgiref.util.FileWrapper at 0x7f8ec08a8870>'
p2840
asbasbasbag67
(g83
g69
NtRp2841
(dp2842
g72
(dp2843
sg81
g2415
sg74
(lp2844
g67
(g88
g69
NtRp2845
(dp2846
g72
(dp2847
g92
g93
ssg81
g2841
sg74
(lp2848
S'wsgi.input'
p2849
asbag67
(g88
g69
NtRp2850
(dp2851
g72
(dp2852
g99
g100
ssg81
g2841
sg74
(lp2853
S':'
asbag67
(g88
g69
NtRp2854
(dp2855
g72
(dp2856
sg81
g2841
sg74
(lp2857
g67
(g68
g69
NtRp2858
(dp2859
g72
(dp2860
g80
I3
ssg81
g2854
sg74
(lp2861
S'<cStringIO.StringO object at 0x7f8e675472d0>'
p2862
asbasbasbag67
(g83
g69
NtRp2863
(dp2864
g72
(dp2865
sg81
g2415
sg74
(lp2866
g67
(g88
g69
NtRp2867
(dp2868
g72
(dp2869
g92
g93
ssg81
g2863
sg74
(lp2870
S'wsgi.multiprocess'
p2871
asbag67
(g88
g69
NtRp2872
(dp2873
g72
(dp2874
g99
g100
ssg81
g2863
sg74
(lp2875
S':'
asbag67
(g88
g69
NtRp2876
(dp2877
g72
(dp2878
sg81
g2863
sg74
(lp2879
g67
(g68
g69
NtRp2880
(dp2881
g72
(dp2882
g80
I3
ssg81
g2876
sg74
(lp2883
g110
asbasbasbag67
(g83
g69
NtRp2884
(dp2885
g72
(dp2886
sg81
g2415
sg74
(lp2887
g67
(g88
g69
NtRp2888
(dp2889
g72
(dp2890
g92
g93
ssg81
g2884
sg74
(lp2891
S'wsgi.multithread'
p2892
asbag67
(g88
g69
NtRp2893
(dp2894
g72
(dp2895
g99
g100
ssg81
g2884
sg74
(lp2896
S':'
asbag67
(g88
g69
NtRp2897
(dp2898
g72
(dp2899
sg81
g2884
sg74
(lp2900
g67
(g68
g69
NtRp2901
(dp2902
g72
(dp2903
g80
I3
ssg81
g2897
sg74
(lp2904
g1666
asbasbasbag67
(g83
g69
NtRp2905
(dp2906
g72
(dp2907
sg81
g2415
sg74
(lp2908
g67
(g88
g69
NtRp2909
(dp2910
g72
(dp2911
g92
g93
ssg81
g2905
sg74
(lp2912
S'wsgi.run_once'
p2913
asbag67
(g88
g69
NtRp2914
(dp2915
g72
(dp2916
g99
g100
ssg81
g2905
sg74
(lp2917
S':'
asbag67
(g88
g69
NtRp2918
(dp2919
g72
(dp2920
sg81
g2905
sg74
(lp2921
g67
(g68
g69
NtRp2922
(dp2923
g72
(dp2924
g80
I3
ssg81
g2918
sg74
(lp2925
g110
asbasbasbag67
(g83
g69
NtRp2926
(dp2927
g72
(dp2928
sg81
g2415
sg74
(lp2929
g67
(g88
g69
NtRp2930
(dp2931
g72
(dp2932
g92
g93
ssg81
g2926
sg74
(lp2933
S'wsgi.url_scheme'
p2934
asbag67
(g88
g69
NtRp2935
(dp2936
g72
(dp2937
g99
g100
ssg81
g2926
sg74
(lp2938
S':'
asbag67
(g88
g69
NtRp2939
(dp2940
g72
(dp2941
sg81
g2926
sg74
(lp2942
g67
(g68
g69
NtRp2943
(dp2944
g72
(dp2945
g80
I3
ssg81
g2939
sg74
(lp2946
g1709
asbasbasbag67
(g83
g69
NtRp2947
(dp2948
g72
(dp2949
sg81
g2415
sg74
(lp2950
g67
(g88
g69
NtRp2951
(dp2952
g72
(dp2953
g92
g93
ssg81
g2947
sg74
(lp2954
S'wsgi.version'
p2955
asbag67
(g88
g69
NtRp2956
(dp2957
g72
(dp2958
g99
g100
ssg81
g2947
sg74
(lp2959
S':'
asbag67
(g88
g69
NtRp2960
(dp2961
g72
(dp2962
sg81
g2947
sg74
(lp2963
g67
(g68
g69
NtRp2964
(dp2965
g72
(dp2966
g80
I3
ssg81
g2960
sg74
(lp2967
S'1'
asbasbasbasbasbasbasbasbasbasbasbasbasbsS'frames'
p2968
(lp2969
(dp2970
S'file'
p2971
S'/usr/lib/pymodules/python2.7/gluon/restricted.py'
p2972
sS'dump'
p2973
(dp2974
S'code'
p2975
S'\'response.write(\\\'<!DOCTYPE html>\\\\n<html>\\\\n<body>\\\\...rite(\\\'";\\\\\\\'>\\\\n\\\\n</body>\\\\n</html>\\\\n\\\', escape=False)\''
p2976
sS'layer'
p2977
S"'/home/pooja/web2py/applications/newsapp/views/default/index.html'"
p2978
sS'global compile2'
p2979
S'<function compile2>'
p2980
sS'ccode'
p2981
S'undefined'
p2982
ssS'lnum'
p2983
I204
sS'lines'
p2984
(dp2985
I199
S"    environment['__name__'] = '__restricted__'"
p2986
sI200
S'    try:'
p2987
sI201
S'        if type(code) == types.CodeType:'
p2988
sI202
S'            ccode = code'
p2989
sI203
S'        else:'
p2990
sI204
S'            ccode = compile2(code,layer)'
p2991
sI205
S'        exec ccode in environment'
p2992
sI206
S'    except HTTP:'
p2993
sI207
S'        raise'
p2994
sI208
S'    except RestrictedError:'
p2995
ssS'call'
p2996
S'(code=\'response.write(\\\'<!DOCTYPE html>\\\\n<html>\\\\n<body>\\\\...rite(\\\'";\\\\\\\'>\\\\n\\\\n</body>\\\\n</html>\\\\n\\\', escape=False)\', environment={\'A\': <class \'gluon.html.A\'>, \'Auth\': <class \'gluon.tools.Auth\'>, \'B\': <class \'gluon.html.B\'>, \'BEAUTIFY\': <class \'gluon.html.BEAUTIFY\'>, \'BODY\': <class \'gluon.html.BODY\'>, \'BR\': <class \'gluon.html.BR\'>, \'BUTTON\': <class \'gluon.html.BUTTON\'>, \'CAT\': <class \'gluon.html.CAT\'>, \'CENTER\': <class \'gluon.html.CENTER\'>, \'CLEANUP\': <class \'gluon.validators.CLEANUP\'>, ...}, layer=\'/home/pooja/web2py/applications/newsapp/views/default/index.html\')'
p2997
sS'func'
p2998
S'restricted'
p2999
sa(dp3000
g2971
S'/usr/lib/pymodules/python2.7/gluon/restricted.py'
p3001
sg2973
(dp3002
S'builtincompile'
p3003
S'<built-in function compile>'
p3004
sS'code'
p3005
S'\'response.write(\\\'<!DOCTYPE html>\\\\n<html>\\\\n<body>\\\\...rite(\\\'";\\\\\\\'>\\\\n\\\\n</body>\\\\n</html>\\\\n\\\', escape=False)\''
p3006
sS'code.rstrip'
p3007
S'<built-in method rstrip of str object>'
p3008
sS').replace'
p3009
g2982
sS'layer'
p3010
S"'/home/pooja/web2py/applications/newsapp/views/default/index.html'"
p3011
ssg2983
I189
sg2984
(dp3012
I192
S'    """'
p3013
sI193
S'    runs code in environment and returns the output. if an exception occurs'
p3014
sI184
S''
sI185
S'def compile2(code,layer):'
p3015
sI186
S'    """'
p3016
sI187
S"    The +'\\n' is necessary else compile fails when code ends in a comment."
p3017
sI188
S'    """'
p3018
sI189
S"    return compile(code.rstrip().replace('\\r\\n','\\n')+'\\n', layer, 'exec')"
p3019
sI190
S''
sI191
S"def restricted(code, environment=None, layer='Unknown'):"
p3020
ssg2996
S'(code=\'response.write(\\\'<!DOCTYPE html>\\\\n<html>\\\\n<body>\\\\...rite(\\\'";\\\\\\\'>\\\\n\\\\n</body>\\\\n</html>\\\\n\\\', escape=False)\', layer=\'/home/pooja/web2py/applications/newsapp/views/default/index.html\')'
p3021
sg2998
S'compile2'
p3022
sasS'pyver'
p3023
S'Python 2.7.6: /usr/bin/python'
p3024
sS'session'
p3025
g67
(g68
g69
NtRp3026
(dp3027
g72
(dp3028
sg74
(lp3029
g67
(g76
g69
NtRp3030
(dp3031
g72
(dp3032
g80
I5
ssg81
Nsg74
(lp3033
sbasbsS'etype'
p3034
S"<type 'exceptions.SyntaxError'>"
p3035
sS'date'
p3036
S'Sat May  9 15:24:55 2015'
p3037
sS'response'
p3038
g67
(g68
g69
NtRp3039
(dp3040
g72
(dp3041
sg74
(lp3042
g67
(g76
g69
NtRp3043
(dp3044
g72
(dp3045
g80
I5
ssg81
Nsg74
(lp3046
g67
(g83
g69
NtRp3047
(dp3048
g72
(dp3049
sg81
g3043
sg74
(lp3050
g67
(g88
g69
NtRp3051
(dp3052
g72
(dp3053
g92
g93
ssg81
g3047
sg74
(lp3054
g165
asbag67
(g88
g69
NtRp3055
(dp3056
g72
(dp3057
g99
g100
ssg81
g3047
sg74
(lp3058
S':'
asbag67
(g88
g69
NtRp3059
(dp3060
g72
(dp3061
sg81
g3047
sg74
(lp3062
g67
(g68
g69
NtRp3063
(dp3064
g72
(dp3065
g80
I5
ssg81
g3059
sg74
(lp3066
S'<cStringIO.StringO object at 0x7f8e67201ed8>'
p3067
asbasbasbag67
(g83
g69
NtRp3068
(dp3069
g72
(dp3070
sg81
g3043
sg74
(lp3071
g67
(g88
g69
NtRp3072
(dp3073
g72
(dp3074
g92
g93
ssg81
g3068
sg74
(lp3075
g231
asbag67
(g88
g69
NtRp3076
(dp3077
g72
(dp3078
g99
g100
ssg81
g3068
sg74
(lp3079
S':'
asbag67
(g88
g69
NtRp3080
(dp3081
g72
(dp3082
sg81
g3068
sg74
(lp3083
g67
(g68
g69
NtRp3084
(dp3085
g72
(dp3086
g80
I5
ssg81
g3080
sg74
(lp3087
g67
(g76
g69
NtRp3088
(dp3089
g72
(dp3090
g80
I4
ssg81
Nsg74
(lp3091
g67
(g83
g69
NtRp3092
(dp3093
g72
(dp3094
sg81
g3088
sg74
(lp3095
g67
(g88
g69
NtRp3096
(dp3097
g72
(dp3098
g92
g93
ssg81
g3092
sg74
(lp3099
S'session_id_newsapp'
p3100
asbag67
(g88
g69
NtRp3101
(dp3102
g72
(dp3103
g99
g100
ssg81
g3092
sg74
(lp3104
S':'
asbag67
(g88
g69
NtRp3105
(dp3106
g72
(dp3107
sg81
g3092
sg74
(lp3108
g67
(g68
g69
NtRp3109
(dp3110
g72
(dp3111
g80
I4
ssg81
g3105
sg74
(lp3112
g67
(g76
g69
NtRp3113
(dp3114
g72
(dp3115
g80
I3
ssg81
Nsg74
(lp3116
g67
(g83
g69
NtRp3117
(dp3118
g72
(dp3119
sg81
g3113
sg74
(lp3120
g67
(g88
g69
NtRp3121
(dp3122
g72
(dp3123
g92
g93
ssg81
g3117
sg74
(lp3124
g281
asbag67
(g88
g69
NtRp3125
(dp3126
g72
(dp3127
g99
g100
ssg81
g3117
sg74
(lp3128
S':'
asbag67
(g88
g69
NtRp3129
(dp3130
g72
(dp3131
sg81
g3117
sg74
(lp3132
g67
(g68
g69
NtRp3133
(dp3134
g72
(dp3135
g80
I3
ssg81
g3129
sg74
(lp3136
S''
asbasbasbag67
(g83
g69
NtRp3137
(dp3138
g72
(dp3139
sg81
g3113
sg74
(lp3140
g67
(g88
g69
NtRp3141
(dp3142
g72
(dp3143
g92
g93
ssg81
g3137
sg74
(lp3144
g302
asbag67
(g88
g69
NtRp3145
(dp3146
g72
(dp3147
g99
g100
ssg81
g3137
sg74
(lp3148
S':'
asbag67
(g88
g69
NtRp3149
(dp3150
g72
(dp3151
sg81
g3137
sg74
(lp3152
g67
(g68
g69
NtRp3153
(dp3154
g72
(dp3155
g80
I3
ssg81
g3149
sg74
(lp3156
S''
asbasbasbag67
(g83
g69
NtRp3157
(dp3158
g72
(dp3159
sg81
g3113
sg74
(lp3160
g67
(g88
g69
NtRp3161
(dp3162
g72
(dp3163
g92
g93
ssg81
g3157
sg74
(lp3164
g323
asbag67
(g88
g69
NtRp3165
(dp3166
g72
(dp3167
g99
g100
ssg81
g3157
sg74
(lp3168
S':'
asbag67
(g88
g69
NtRp3169
(dp3170
g72
(dp3171
sg81
g3157
sg74
(lp3172
g67
(g68
g69
NtRp3173
(dp3174
g72
(dp3175
g80
I3
ssg81
g3169
sg74
(lp3176
S''
asbasbasbag67
(g83
g69
NtRp3177
(dp3178
g72
(dp3179
sg81
g3113
sg74
(lp3180
g67
(g88
g69
NtRp3181
(dp3182
g72
(dp3183
g92
g93
ssg81
g3177
sg74
(lp3184
g344
asbag67
(g88
g69
NtRp3185
(dp3186
g72
(dp3187
g99
g100
ssg81
g3177
sg74
(lp3188
S':'
asbag67
(g88
g69
NtRp3189
(dp3190
g72
(dp3191
sg81
g3177
sg74
(lp3192
g67
(g68
g69
NtRp3193
(dp3194
g72
(dp3195
g80
I3
ssg81
g3189
sg74
(lp3196
S''
asbasbasbag67
(g83
g69
NtRp3197
(dp3198
g72
(dp3199
sg81
g3113
sg74
(lp3200
g67
(g88
g69
NtRp3201
(dp3202
g72
(dp3203
g92
g93
ssg81
g3197
sg74
(lp3204
g365
asbag67
(g88
g69
NtRp3205
(dp3206
g72
(dp3207
g99
g100
ssg81
g3197
sg74
(lp3208
S':'
asbag67
(g88
g69
NtRp3209
(dp3210
g72
(dp3211
sg81
g3197
sg74
(lp3212
g67
(g68
g69
NtRp3213
(dp3214
g72
(dp3215
g80
I3
ssg81
g3209
sg74
(lp3216
S''
asbasbasbag67
(g83
g69
NtRp3217
(dp3218
g72
(dp3219
sg81
g3113
sg74
(lp3220
g67
(g88
g69
NtRp3221
(dp3222
g72
(dp3223
g92
g93
ssg81
g3217
sg74
(lp3224
g386
asbag67
(g88
g69
NtRp3225
(dp3226
g72
(dp3227
g99
g100
ssg81
g3217
sg74
(lp3228
S':'
asbag67
(g88
g69
NtRp3229
(dp3230
g72
(dp3231
sg81
g3217
sg74
(lp3232
g67
(g68
g69
NtRp3233
(dp3234
g72
(dp3235
g80
I3
ssg81
g3229
sg74
(lp3236
S'/'
asbasbasbag67
(g83
g69
NtRp3237
(dp3238
g72
(dp3239
sg81
g3113
sg74
(lp3240
g67
(g88
g69
NtRp3241
(dp3242
g72
(dp3243
g92
g93
ssg81
g3237
sg74
(lp3244
g407
asbag67
(g88
g69
NtRp3245
(dp3246
g72
(dp3247
g99
g100
ssg81
g3237
sg74
(lp3248
S':'
asbag67
(g88
g69
NtRp3249
(dp3250
g72
(dp3251
sg81
g3237
sg74
(lp3252
g67
(g68
g69
NtRp3253
(dp3254
g72
(dp3255
g80
I3
ssg81
g3249
sg74
(lp3256
S''
asbasbasbag67
(g83
g69
NtRp3257
(dp3258
g72
(dp3259
sg81
g3113
sg74
(lp3260
g67
(g88
g69
NtRp3261
(dp3262
g72
(dp3263
g92
g93
ssg81
g3257
sg74
(lp3264
g428
asbag67
(g88
g69
NtRp3265
(dp3266
g72
(dp3267
g99
g100
ssg81
g3257
sg74
(lp3268
S':'
asbag67
(g88
g69
NtRp3269
(dp3270
g72
(dp3271
sg81
g3257
sg74
(lp3272
g67
(g68
g69
NtRp3273
(dp3274
g72
(dp3275
g80
I3
ssg81
g3269
sg74
(lp3276
S''
asbasbasbasbasbasbasbasbasbasbasbag67
(g83
g69
NtRp3277
(dp3278
g72
(dp3279
sg81
g3043
sg74
(lp3280
g67
(g88
g69
NtRp3281
(dp3282
g72
(dp3283
g92
g93
ssg81
g3277
sg74
(lp3284
S'delimiters'
p3285
asbag67
(g88
g69
NtRp3286
(dp3287
g72
(dp3288
g99
g100
ssg81
g3277
sg74
(lp3289
S':'
asbag67
(g88
g69
NtRp3290
(dp3291
g72
(dp3292
sg81
g3277
sg74
(lp3293
g67
(g68
g69
NtRp3294
(dp3295
g72
(dp3296
g80
I5
ssg81
g3290
sg74
(lp3297
g67
(g76
g69
NtRp3298
(dp3299
g72
(dp3300
g80
I4
ssg81
Nsg74
(lp3301
g67
(g83
g69
NtRp3302
(dp3303
g72
(dp3304
sg81
g3298
sg74
(lp3305
g67
(g88
g69
NtRp3306
(dp3307
g72
(dp3308
sg81
g3302
sg74
(lp3309
g67
(g68
g69
NtRp3310
(dp3311
g72
(dp3312
g80
I4
ssg81
g3306
sg74
(lp3313
S'{{'
p3314
asbasbasbag67
(g83
g69
NtRp3315
(dp3316
g72
(dp3317
sg81
g3298
sg74
(lp3318
g67
(g88
g69
NtRp3319
(dp3320
g72
(dp3321
sg81
g3315
sg74
(lp3322
g67
(g68
g69
NtRp3323
(dp3324
g72
(dp3325
g80
I4
ssg81
g3319
sg74
(lp3326
S'}}'
p3327
asbasbasbasbasbasbasbag67
(g83
g69
NtRp3328
(dp3329
g72
(dp3330
sg81
g3043
sg74
(lp3331
g67
(g88
g69
NtRp3332
(dp3333
g72
(dp3334
g92
g93
ssg81
g3328
sg74
(lp3335
S'files'
p3336
asbag67
(g88
g69
NtRp3337
(dp3338
g72
(dp3339
g99
g100
ssg81
g3328
sg74
(lp3340
S':'
asbag67
(g88
g69
NtRp3341
(dp3342
g72
(dp3343
sg81
g3328
sg74
(lp3344
g67
(g68
g69
NtRp3345
(dp3346
g72
(dp3347
g80
I5
ssg81
g3341
sg74
(lp3348
g67
(g76
g69
NtRp3349
(dp3350
g72
(dp3351
g80
I4
ssg81
Nsg74
(lp3352
sbasbasbasbag67
(g83
g69
NtRp3353
(dp3354
g72
(dp3355
sg81
g3043
sg74
(lp3356
g67
(g88
g69
NtRp3357
(dp3358
g72
(dp3359
g92
g93
ssg81
g3353
sg74
(lp3360
S'flash'
p3361
asbag67
(g88
g69
NtRp3362
(dp3363
g72
(dp3364
g99
g100
ssg81
g3353
sg74
(lp3365
S':'
asbag67
(g88
g69
NtRp3366
(dp3367
g72
(dp3368
sg81
g3353
sg74
(lp3369
g67
(g68
g69
NtRp3370
(dp3371
g72
(dp3372
g80
I5
ssg81
g3366
sg74
(lp3373
S''
asbasbasbag67
(g83
g69
NtRp3374
(dp3375
g72
(dp3376
sg81
g3043
sg74
(lp3377
g67
(g88
g69
NtRp3378
(dp3379
g72
(dp3380
g92
g93
ssg81
g3374
sg74
(lp3381
S'generic_patterns'
p3382
asbag67
(g88
g69
NtRp3383
(dp3384
g72
(dp3385
g99
g100
ssg81
g3374
sg74
(lp3386
S':'
asbag67
(g88
g69
NtRp3387
(dp3388
g72
(dp3389
sg81
g3374
sg74
(lp3390
g67
(g68
g69
NtRp3391
(dp3392
g72
(dp3393
g80
I5
ssg81
g3387
sg74
(lp3394
g67
(g76
g69
NtRp3395
(dp3396
g72
(dp3397
g80
I4
ssg81
Nsg74
(lp3398
g67
(g83
g69
NtRp3399
(dp3400
g72
(dp3401
sg81
g3395
sg74
(lp3402
g67
(g88
g69
NtRp3403
(dp3404
g72
(dp3405
sg81
g3399
sg74
(lp3406
g67
(g68
g69
NtRp3407
(dp3408
g72
(dp3409
g80
I4
ssg81
g3403
sg74
(lp3410
S'*'
asbasbasbasbasbasbasbag67
(g83
g69
NtRp3411
(dp3412
g72
(dp3413
sg81
g3043
sg74
(lp3414
g67
(g88
g69
NtRp3415
(dp3416
g72
(dp3417
g92
g93
ssg81
g3411
sg74
(lp3418
S'headers'
p3419
asbag67
(g88
g69
NtRp3420
(dp3421
g72
(dp3422
g99
g100
ssg81
g3411
sg74
(lp3423
S':'
asbag67
(g88
g69
NtRp3424
(dp3425
g72
(dp3426
sg81
g3411
sg74
(lp3427
g67
(g68
g69
NtRp3428
(dp3429
g72
(dp3430
g80
I5
ssg81
g3424
sg74
(lp3431
g67
(g76
g69
NtRp3432
(dp3433
g72
(dp3434
g80
I4
ssg81
Nsg74
(lp3435
g67
(g83
g69
NtRp3436
(dp3437
g72
(dp3438
sg81
g3432
sg74
(lp3439
g67
(g88
g69
NtRp3440
(dp3441
g72
(dp3442
g92
g93
ssg81
g3436
sg74
(lp3443
S'Cache-Control'
p3444
asbag67
(g88
g69
NtRp3445
(dp3446
g72
(dp3447
g99
g100
ssg81
g3436
sg74
(lp3448
S':'
asbag67
(g88
g69
NtRp3449
(dp3450
g72
(dp3451
sg81
g3436
sg74
(lp3452
g67
(g68
g69
NtRp3453
(dp3454
g72
(dp3455
g80
I4
ssg81
g3449
sg74
(lp3456
S'no-store, no-cache, must-revalidate, post-check=0, pre-check=0'
p3457
asbasbasbag67
(g83
g69
NtRp3458
(dp3459
g72
(dp3460
sg81
g3432
sg74
(lp3461
g67
(g88
g69
NtRp3462
(dp3463
g72
(dp3464
g92
g93
ssg81
g3458
sg74
(lp3465
S'Content-Type'
p3466
asbag67
(g88
g69
NtRp3467
(dp3468
g72
(dp3469
g99
g100
ssg81
g3458
sg74
(lp3470
S':'
asbag67
(g88
g69
NtRp3471
(dp3472
g72
(dp3473
sg81
g3458
sg74
(lp3474
g67
(g68
g69
NtRp3475
(dp3476
g72
(dp3477
g80
I4
ssg81
g3471
sg74
(lp3478
S'text/html; charset=utf-8'
p3479
asbasbasbag67
(g83
g69
NtRp3480
(dp3481
g72
(dp3482
sg81
g3432
sg74
(lp3483
g67
(g88
g69
NtRp3484
(dp3485
g72
(dp3486
g92
g93
ssg81
g3480
sg74
(lp3487
S'Expires'
p3488
asbag67
(g88
g69
NtRp3489
(dp3490
g72
(dp3491
g99
g100
ssg81
g3480
sg74
(lp3492
S':'
asbag67
(g88
g69
NtRp3493
(dp3494
g72
(dp3495
sg81
g3480
sg74
(lp3496
g67
(g68
g69
NtRp3497
(dp3498
g72
(dp3499
g80
I4
ssg81
g3493
sg74
(lp3500
S'Sat, 09 May 2015 09:54:55 GMT'
p3501
asbasbasbag67
(g83
g69
NtRp3502
(dp3503
g72
(dp3504
sg81
g3432
sg74
(lp3505
g67
(g88
g69
NtRp3506
(dp3507
g72
(dp3508
g92
g93
ssg81
g3502
sg74
(lp3509
S'Pragma'
p3510
asbag67
(g88
g69
NtRp3511
(dp3512
g72
(dp3513
g99
g100
ssg81
g3502
sg74
(lp3514
S':'
asbag67
(g88
g69
NtRp3515
(dp3516
g72
(dp3517
sg81
g3502
sg74
(lp3518
g67
(g68
g69
NtRp3519
(dp3520
g72
(dp3521
g80
I4
ssg81
g3515
sg74
(lp3522
S'no-cache'
p3523
asbasbasbag67
(g83
g69
NtRp3524
(dp3525
g72
(dp3526
sg81
g3432
sg74
(lp3527
g67
(g88
g69
NtRp3528
(dp3529
g72
(dp3530
g92
g93
ssg81
g3524
sg74
(lp3531
S'X-Powered-By'
p3532
asbag67
(g88
g69
NtRp3533
(dp3534
g72
(dp3535
g99
g100
ssg81
g3524
sg74
(lp3536
S':'
asbag67
(g88
g69
NtRp3537
(dp3538
g72
(dp3539
sg81
g3524
sg74
(lp3540
g67
(g68
g69
NtRp3541
(dp3542
g72
(dp3543
g80
I4
ssg81
g3537
sg74
(lp3544
S'web2py'
p3545
asbasbasbasbasbasbasbag67
(g83
g69
NtRp3546
(dp3547
g72
(dp3548
sg81
g3043
sg74
(lp3549
g67
(g88
g69
NtRp3550
(dp3551
g72
(dp3552
g92
g93
ssg81
g3546
sg74
(lp3553
S'menu'
p3554
asbag67
(g88
g69
NtRp3555
(dp3556
g72
(dp3557
g99
g100
ssg81
g3546
sg74
(lp3558
S':'
asbag67
(g88
g69
NtRp3559
(dp3560
g72
(dp3561
sg81
g3546
sg74
(lp3562
g67
(g68
g69
NtRp3563
(dp3564
g72
(dp3565
g80
I5
ssg81
g3559
sg74
(lp3566
g67
(g76
g69
NtRp3567
(dp3568
g72
(dp3569
g80
I4
ssg81
Nsg74
(lp3570
g67
(g83
g69
NtRp3571
(dp3572
g72
(dp3573
sg81
g3567
sg74
(lp3574
g67
(g88
g69
NtRp3575
(dp3576
g72
(dp3577
sg81
g3571
sg74
(lp3578
g67
(g68
g69
NtRp3579
(dp3580
g72
(dp3581
g80
I4
ssg81
g3575
sg74
(lp3582
g67
(g76
g69
NtRp3583
(dp3584
g72
(dp3585
g80
I3
ssg81
Nsg74
(lp3586
g67
(g83
g69
NtRp3587
(dp3588
g72
(dp3589
sg81
g3583
sg74
(lp3590
g67
(g88
g69
NtRp3591
(dp3592
g72
(dp3593
sg81
g3587
sg74
(lp3594
g67
(g68
g69
NtRp3595
(dp3596
g72
(dp3597
g80
I3
ssg81
g3591
sg74
(lp3598
cgluon.languages
lazyT_unpickle
p3599
(S't\x04\x00\x00\x00Home'
tRp3600
asbasbasbag67
(g83
g69
NtRp3601
(dp3602
g72
(dp3603
sg81
g3583
sg74
(lp3604
g67
(g88
g69
NtRp3605
(dp3606
g72
(dp3607
sg81
g3601
sg74
(lp3608
g67
(g68
g69
NtRp3609
(dp3610
g72
(dp3611
g80
I3
ssg81
g3605
sg74
(lp3612
g110
asbasbasbag67
(g83
g69
NtRp3613
(dp3614
g72
(dp3615
sg81
g3583
sg74
(lp3616
g67
(g88
g69
NtRp3617
(dp3618
g72
(dp3619
sg81
g3613
sg74
(lp3620
g67
(g68
g69
NtRp3621
(dp3622
g72
(dp3623
g80
I3
ssg81
g3617
sg74
(lp3624
S'/newsapp/default/index'
p3625
asbasbasbag67
(g83
g69
NtRp3626
(dp3627
g72
(dp3628
sg81
g3583
sg74
(lp3629
g67
(g88
g69
NtRp3630
(dp3631
g72
(dp3632
sg81
g3626
sg74
(lp3633
g67
(g68
g69
NtRp3634
(dp3635
g72
(dp3636
g80
I3
ssg81
g3630
sg74
(lp3637
g67
(g76
g69
NtRp3638
(dp3639
g72
(dp3640
g80
I2
ssg81
Nsg74
(lp3641
sbasbasbasbasbasbasbasbag67
(g83
g69
NtRp3642
(dp3643
g72
(dp3644
sg81
g3567
sg74
(lp3645
g67
(g88
g69
NtRp3646
(dp3647
g72
(dp3648
sg81
g3642
sg74
(lp3649
g67
(g68
g69
NtRp3650
(dp3651
g72
(dp3652
g80
I4
ssg81
g3646
sg74
(lp3653
g67
(g76
g69
NtRp3654
(dp3655
g72
(dp3656
g80
I3
ssg81
Nsg74
(lp3657
g67
(g83
g69
NtRp3658
(dp3659
g72
(dp3660
sg81
g3654
sg74
(lp3661
g67
(g88
g69
NtRp3662
(dp3663
g72
(dp3664
sg81
g3658
sg74
(lp3665
g67
(g68
g69
NtRp3666
(dp3667
g72
(dp3668
g80
I3
ssg81
g3662
sg74
(lp3669
g67
(cgluon.html
SPAN
p3670
g69
NtRp3671
(dp3672
g72
(dp3673
g92
S'color:yellow'
p3674
ssg81
Nsg74
(lp3675
g3545
asbasbasbasbag67
(g83
g69
NtRp3676
(dp3677
g72
(dp3678
sg81
g3654
sg74
(lp3679
g67
(g88
g69
NtRp3680
(dp3681
g72
(dp3682
sg81
g3676
sg74
(lp3683
g67
(g68
g69
NtRp3684
(dp3685
g72
(dp3686
g80
I3
ssg81
g3680
sg74
(lp3687
g110
asbasbasbag67
(g83
g69
NtRp3688
(dp3689
g72
(dp3690
sg81
g3654
sg74
(lp3691
g67
(g88
g69
NtRp3692
(dp3693
g72
(dp3694
sg81
g3688
sg74
(lp3695
g67
(g68
g69
NtRp3696
(dp3697
g72
(dp3698
g80
I3
ssg81
g3692
sg74
(lp3699
S'None'
p3700
asbasbasbag67
(g83
g69
NtRp3701
(dp3702
g72
(dp3703
sg81
g3654
sg74
(lp3704
g67
(g88
g69
NtRp3705
(dp3706
g72
(dp3707
sg81
g3701
sg74
(lp3708
g67
(g68
g69
NtRp3709
(dp3710
g72
(dp3711
g80
I3
ssg81
g3705
sg74
(lp3712
g67
(g76
g69
NtRp3713
(dp3714
g72
(dp3715
g80
I2
ssg81
Nsg74
(lp3716
g67
(g83
g69
NtRp3717
(dp3718
g72
(dp3719
sg81
g3713
sg74
(lp3720
g67
(g88
g69
NtRp3721
(dp3722
g72
(dp3723
sg81
g3717
sg74
(lp3724
g67
(g68
g69
NtRp3725
(dp3726
g72
(dp3727
g80
I2
ssg81
g3721
sg74
(lp3728
g67
(g76
g69
NtRp3729
(dp3730
g72
(dp3731
g80
I1
ssg81
Nsg74
(lp3732
g67
(g83
g69
NtRp3733
(dp3734
g72
(dp3735
sg81
g3729
sg74
(lp3736
g67
(g88
g69
NtRp3737
(dp3738
g72
(dp3739
sg81
g3733
sg74
(lp3740
g67
(g68
g69
NtRp3741
(dp3742
g72
(dp3743
g80
I1
ssg81
g3737
sg74
(lp3744
g3599
(S's\x08\x00\x00\x00My Sites'
tRp3745
asbasbasbag67
(g83
g69
NtRp3746
(dp3747
g72
(dp3748
sg81
g3729
sg74
(lp3749
g67
(g88
g69
NtRp3750
(dp3751
g72
(dp3752
sg81
g3746
sg74
(lp3753
g67
(g68
g69
NtRp3754
(dp3755
g72
(dp3756
g80
I1
ssg81
g3750
sg74
(lp3757
I00
asbasbasbag67
(g83
g69
NtRp3758
(dp3759
g72
(dp3760
sg81
g3729
sg74
(lp3761
g67
(g88
g69
NtRp3762
(dp3763
g72
(dp3764
sg81
g3758
sg74
(lp3765
g67
(g68
g69
NtRp3766
(dp3767
g72
(dp3768
g80
I1
ssg81
g3762
sg74
(lp3769
S'/admin/default/site'
p3770
asbasbasbasbasbasbasbag67
(g83
g69
NtRp3771
(dp3772
g72
(dp3773
sg81
g3713
sg74
(lp3774
g67
(g88
g69
NtRp3775
(dp3776
g72
(dp3777
sg81
g3771
sg74
(lp3778
g67
(g68
g69
NtRp3779
(dp3780
g72
(dp3781
g80
I2
ssg81
g3775
sg74
(lp3782
g67
(g76
g69
NtRp3783
(dp3784
g72
(dp3785
g80
I1
ssg81
Nsg74
(lp3786
g67
(g83
g69
NtRp3787
(dp3788
g72
(dp3789
sg81
g3783
sg74
(lp3790
g67
(g88
g69
NtRp3791
(dp3792
g72
(dp3793
sg81
g3787
sg74
(lp3794
g67
(g68
g69
NtRp3795
(dp3796
g72
(dp3797
g80
I1
ssg81
g3791
sg74
(lp3798
g3599
(S's\x08\x00\x00\x00This App'
tRp3799
asbasbasbag67
(g83
g69
NtRp3800
(dp3801
g72
(dp3802
sg81
g3783
sg74
(lp3803
g67
(g88
g69
NtRp3804
(dp3805
g72
(dp3806
sg81
g3800
sg74
(lp3807
g67
(g68
g69
NtRp3808
(dp3809
g72
(dp3810
g80
I1
ssg81
g3804
sg74
(lp3811
I00
asbasbasbag67
(g83
g69
NtRp3812
(dp3813
g72
(dp3814
sg81
g3783
sg74
(lp3815
g67
(g88
g69
NtRp3816
(dp3817
g72
(dp3818
sg81
g3812
sg74
(lp3819
g67
(g68
g69
NtRp3820
(dp3821
g72
(dp3822
g80
I1
ssg81
g3816
sg74
(lp3823
S'/admin/default/design/newsapp'
p3824
asbasbasbag67
(g83
g69
NtRp3825
(dp3826
g72
(dp3827
sg81
g3783
sg74
(lp3828
g67
(g88
g69
NtRp3829
(dp3830
g72
(dp3831
sg81
g3825
sg74
(lp3832
g67
(g68
g69
NtRp3833
(dp3834
g72
(dp3835
g80
I1
ssg81
g3829
sg74
(lp3836
(lp3837
(g3599
(S't\n\x00\x00\x00Controller'
tRp3838
I00
S'/admin/default/edit/newsapp/controllers/default.py'
tp3839
a(g3599
(S't\x04\x00\x00\x00View'
tRp3840
I00
S'/admin/default/edit/newsapp/views/default/index.html'
tp3841
a(g3599
(S't\x06\x00\x00\x00Layout'
tRp3842
I00
S'/admin/default/edit/newsapp/views/layout.html'
tp3843
a(g3599
(S't\n\x00\x00\x00Stylesheet'
tRp3844
I00
S'/admin/default/edit/newsapp/static/css/web2py.css'
tp3845
a(g3599
(S's\x08\x00\x00\x00DB Model'
tRp3846
I00
S'/admin/default/edit/newsapp/models/db.py'
tp3847
a(g3599
(S's\n\x00\x00\x00Menu Model'
tRp3848
I00
S'/admin/default/edit/newsapp/models/menu.py'
tp3849
a(g3599
(S't\x08\x00\x00\x00Database'
tRp3850
I00
S'/newsapp/appadmin/index'
tp3851
a(g3599
(S't\x06\x00\x00\x00Errors'
tRp3852
I00
S'/admin/default/errors/newsapp'
tp3853
a(g3599
(S't\x05\x00\x00\x00About'
tRp3854
I00
S'/admin/default/about/newsapp'
tp3855
aasbasbasbasbasbasbasbag67
(g83
g69
NtRp3856
(dp3857
g72
(dp3858
sg81
g3713
sg74
(lp3859
g67
(g88
g69
NtRp3860
(dp3861
g72
(dp3862
sg81
g3856
sg74
(lp3863
g67
(g68
g69
NtRp3864
(dp3865
g72
(dp3866
g80
I2
ssg81
g3860
sg74
(lp3867
g67
(g76
g69
NtRp3868
(dp3869
g72
(dp3870
g80
I1
ssg81
Nsg74
(lp3871
g67
(g83
g69
NtRp3872
(dp3873
g72
(dp3874
sg81
g3868
sg74
(lp3875
g67
(g88
g69
NtRp3876
(dp3877
g72
(dp3878
sg81
g3872
sg74
(lp3879
g67
(g68
g69
NtRp3880
(dp3881
g72
(dp3882
g80
I1
ssg81
g3876
sg74
(lp3883
S'web2py.com'
p3884
asbasbasbag67
(g83
g69
NtRp3885
(dp3886
g72
(dp3887
sg81
g3868
sg74
(lp3888
g67
(g88
g69
NtRp3889
(dp3890
g72
(dp3891
sg81
g3885
sg74
(lp3892
g67
(g68
g69
NtRp3893
(dp3894
g72
(dp3895
g80
I1
ssg81
g3889
sg74
(lp3896
I00
asbasbasbag67
(g83
g69
NtRp3897
(dp3898
g72
(dp3899
sg81
g3868
sg74
(lp3900
g67
(g88
g69
NtRp3901
(dp3902
g72
(dp3903
sg81
g3897
sg74
(lp3904
g67
(g68
g69
NtRp3905
(dp3906
g72
(dp3907
g80
I1
ssg81
g3901
sg74
(lp3908
S'http://www.web2py.com'
p3909
asbasbasbag67
(g83
g69
NtRp3910
(dp3911
g72
(dp3912
sg81
g3868
sg74
(lp3913
g67
(g88
g69
NtRp3914
(dp3915
g72
(dp3916
sg81
g3910
sg74
(lp3917
g67
(g68
g69
NtRp3918
(dp3919
g72
(dp3920
g80
I1
ssg81
g3914
sg74
(lp3921
(lp3922
(g3599
(S't\x08\x00\x00\x00Download'
tRp3923
I00
S'http://www.web2py.com/examples/default/download'
p3924
tp3925
a(g3599
(S't\x07\x00\x00\x00Support'
tRp3926
I00
S'http://www.web2py.com/examples/default/support'
p3927
tp3928
a(g3599
(S't\x04\x00\x00\x00Demo'
tRp3929
I00
S'http://web2py.com/demo_admin'
p3930
tp3931
a(g3599
(S's\x0e\x00\x00\x00Quick Examples'
tRp3932
I00
S'http://web2py.com/examples/default/examples'
p3933
tp3934
a(g3599
(S't\x03\x00\x00\x00FAQ'
tRp3935
I00
S'http://web2py.com/AlterEgo'
p3936
tp3937
a(g3599
(S't\x06\x00\x00\x00Videos'
tRp3938
I00
S'http://www.web2py.com/examples/default/videos/'
p3939
tp3940
a(g3599
(S's\x11\x00\x00\x00Free Applications'
tRp3941
I00
S'http://web2py.com/appliances'
p3942
tp3943
a(g3599
(S't\x07\x00\x00\x00Plugins'
tRp3944
I00
S'http://web2py.com/plugins'
p3945
tp3946
a(g3599
(S't\x07\x00\x00\x00Layouts'
tRp3947
I00
S'http://web2py.com/layouts'
p3948
tp3949
a(g3599
(S't\x07\x00\x00\x00Recipes'
tRp3950
I00
S'http://web2pyslices.com/'
p3951
tp3952
a(g3599
(S't\x08\x00\x00\x00Semantic'
tRp3953
I00
S'http://web2py.com/semantic'
p3954
tp3955
aasbasbasbasbasbasbasbag67
(g83
g69
NtRp3956
(dp3957
g72
(dp3958
sg81
g3713
sg74
(lp3959
g67
(g88
g69
NtRp3960
(dp3961
g72
(dp3962
sg81
g3956
sg74
(lp3963
g67
(g68
g69
NtRp3964
(dp3965
g72
(dp3966
g80
I2
ssg81
g3960
sg74
(lp3967
g67
(g76
g69
NtRp3968
(dp3969
g72
(dp3970
g80
I1
ssg81
Nsg74
(lp3971
g67
(g83
g69
NtRp3972
(dp3973
g72
(dp3974
sg81
g3968
sg74
(lp3975
g67
(g88
g69
NtRp3976
(dp3977
g72
(dp3978
sg81
g3972
sg74
(lp3979
g67
(g68
g69
NtRp3980
(dp3981
g72
(dp3982
g80
I1
ssg81
g3976
sg74
(lp3983
g3599
(S't\r\x00\x00\x00Documentation'
tRp3984
asbasbasbag67
(g83
g69
NtRp3985
(dp3986
g72
(dp3987
sg81
g3968
sg74
(lp3988
g67
(g88
g69
NtRp3989
(dp3990
g72
(dp3991
sg81
g3985
sg74
(lp3992
g67
(g68
g69
NtRp3993
(dp3994
g72
(dp3995
g80
I1
ssg81
g3989
sg74
(lp3996
I00
asbasbasbag67
(g83
g69
NtRp3997
(dp3998
g72
(dp3999
sg81
g3968
sg74
(lp4000
g67
(g88
g69
NtRp4001
(dp4002
g72
(dp4003
sg81
g3997
sg74
(lp4004
g67
(g68
g69
NtRp4005
(dp4006
g72
(dp4007
g80
I1
ssg81
g4001
sg74
(lp4008
S'http://www.web2py.com/book'
p4009
asbasbasbag67
(g83
g69
NtRp4010
(dp4011
g72
(dp4012
sg81
g3968
sg74
(lp4013
g67
(g88
g69
NtRp4014
(dp4015
g72
(dp4016
sg81
g4010
sg74
(lp4017
g67
(g68
g69
NtRp4018
(dp4019
g72
(dp4020
g80
I1
ssg81
g4014
sg74
(lp4021
(lp4022
(g3599
(S't\x07\x00\x00\x00Preface'
tRp4023
I00
S'http://www.web2py.com/book/default/chapter/00'
p4024
tp4025
a(g3599
(S't\x0c\x00\x00\x00Introduction'
tRp4026
I00
S'http://www.web2py.com/book/default/chapter/01'
p4027
tp4028
a(g3599
(S't\x06\x00\x00\x00Python'
tRp4029
I00
S'http://www.web2py.com/book/default/chapter/02'
p4030
tp4031
a(g3599
(S't\x08\x00\x00\x00Overview'
tRp4032
I00
S'http://www.web2py.com/book/default/chapter/03'
p4033
tp4034
a(g3599
(S's\x08\x00\x00\x00The Core'
tRp4035
I00
S'http://www.web2py.com/book/default/chapter/04'
p4036
tp4037
a(g3599
(S's\t\x00\x00\x00The Views'
tRp4038
I00
S'http://www.web2py.com/book/default/chapter/05'
p4039
tp4040
a(g3599
(S't\x08\x00\x00\x00Database'
tRp4041
I00
S'http://www.web2py.com/book/default/chapter/06'
p4042
tp4043
a(g3599
(S's\x14\x00\x00\x00Forms and Validators'
tRp4044
I00
S'http://www.web2py.com/book/default/chapter/07'
p4045
tp4046
a(g3599
(S's\r\x00\x00\x00Email and SMS'
tRp4047
I00
S'http://www.web2py.com/book/default/chapter/08'
p4048
tp4049
a(g3599
(S's\x0e\x00\x00\x00Access Control'
tRp4050
I00
S'http://www.web2py.com/book/default/chapter/09'
p4051
tp4052
a(g3599
(S't\x08\x00\x00\x00Services'
tRp4053
I00
S'http://www.web2py.com/book/default/chapter/10'
p4054
tp4055
a(g3599
(S's\x0c\x00\x00\x00Ajax Recipes'
tRp4056
I00
S'http://www.web2py.com/book/default/chapter/11'
p4057
tp4058
a(g3599
(S's\x16\x00\x00\x00Components and Plugins'
tRp4059
I00
S'http://www.web2py.com/book/default/chapter/12'
p4060
tp4061
a(g3599
(S's\x12\x00\x00\x00Deployment Recipes'
tRp4062
I00
S'http://www.web2py.com/book/default/chapter/13'
p4063
tp4064
a(g3599
(S's\r\x00\x00\x00Other Recipes'
tRp4065
I00
S'http://www.web2py.com/book/default/chapter/14'
p4066
tp4067
a(g3599
(S's\r\x00\x00\x00Buy this book'
tRp4068
I00
S'http://stores.lulu.com/web2py'
p4069
tp4070
aasbasbasbasbasbasbasbag67
(g83
g69
NtRp4071
(dp4072
g72
(dp4073
sg81
g3713
sg74
(lp4074
g67
(g88
g69
NtRp4075
(dp4076
g72
(dp4077
sg81
g4071
sg74
(lp4078
g67
(g68
g69
NtRp4079
(dp4080
g72
(dp4081
g80
I2
ssg81
g4075
sg74
(lp4082
g67
(g76
g69
NtRp4083
(dp4084
g72
(dp4085
g80
I1
ssg81
Nsg74
(lp4086
g67
(g83
g69
NtRp4087
(dp4088
g72
(dp4089
sg81
g4083
sg74
(lp4090
g67
(g88
g69
NtRp4091
(dp4092
g72
(dp4093
sg81
g4087
sg74
(lp4094
g67
(g68
g69
NtRp4095
(dp4096
g72
(dp4097
g80
I1
ssg81
g4091
sg74
(lp4098
g3599
(S't\t\x00\x00\x00Community'
tRp4099
asbasbasbag67
(g83
g69
NtRp4100
(dp4101
g72
(dp4102
sg81
g4083
sg74
(lp4103
g67
(g88
g69
NtRp4104
(dp4105
g72
(dp4106
sg81
g4100
sg74
(lp4107
g67
(g68
g69
NtRp4108
(dp4109
g72
(dp4110
g80
I1
ssg81
g4104
sg74
(lp4111
I00
asbasbasbag67
(g83
g69
NtRp4112
(dp4113
g72
(dp4114
sg81
g4083
sg74
(lp4115
g67
(g88
g69
NtRp4116
(dp4117
g72
(dp4118
sg81
g4112
sg74
(lp4119
g67
(g68
g69
NtRp4120
(dp4121
g72
(dp4122
g80
I1
ssg81
g4116
sg74
(lp4123
Nasbasbasbag67
(g83
g69
NtRp4124
(dp4125
g72
(dp4126
sg81
g4083
sg74
(lp4127
g67
(g88
g69
NtRp4128
(dp4129
g72
(dp4130
sg81
g4124
sg74
(lp4131
g67
(g68
g69
NtRp4132
(dp4133
g72
(dp4134
g80
I1
ssg81
g4128
sg74
(lp4135
(lp4136
(g3599
(S't\x06\x00\x00\x00Groups'
tRp4137
I00
S'http://www.web2py.com/examples/default/usergroups'
p4138
tp4139
a(g3599
(S't\x07\x00\x00\x00Twitter'
tRp4140
I00
S'http://twitter.com/web2py'
p4141
tp4142
a(g3599
(S's\t\x00\x00\x00Live Chat'
tRp4143
I00
S'http://webchat.freenode.net/?channels=web2py'
p4144
tp4145
aasbasbasbasbasbasbasbag67
(g83
g69
NtRp4146
(dp4147
g72
(dp4148
sg81
g3713
sg74
(lp4149
g67
(g88
g69
NtRp4150
(dp4151
g72
(dp4152
sg81
g4146
sg74
(lp4153
g67
(g68
g69
NtRp4154
(dp4155
g72
(dp4156
g80
I2
ssg81
g4150
sg74
(lp4157
g67
(g76
g69
NtRp4158
(dp4159
g72
(dp4160
g80
I1
ssg81
Nsg74
(lp4161
g67
(g83
g69
NtRp4162
(dp4163
g72
(dp4164
sg81
g4158
sg74
(lp4165
g67
(g88
g69
NtRp4166
(dp4167
g72
(dp4168
sg81
g4162
sg74
(lp4169
g67
(g68
g69
NtRp4170
(dp4171
g72
(dp4172
g80
I1
ssg81
g4166
sg74
(lp4173
g3599
(S't\x07\x00\x00\x00Plugins'
tRp4174
asbasbasbag67
(g83
g69
NtRp4175
(dp4176
g72
(dp4177
sg81
g4158
sg74
(lp4178
g67
(g88
g69
NtRp4179
(dp4180
g72
(dp4181
sg81
g4175
sg74
(lp4182
g67
(g68
g69
NtRp4183
(dp4184
g72
(dp4185
g80
I1
ssg81
g4179
sg74
(lp4186
I00
asbasbasbag67
(g83
g69
NtRp4187
(dp4188
g72
(dp4189
sg81
g4158
sg74
(lp4190
g67
(g88
g69
NtRp4191
(dp4192
g72
(dp4193
sg81
g4187
sg74
(lp4194
g67
(g68
g69
NtRp4195
(dp4196
g72
(dp4197
g80
I1
ssg81
g4191
sg74
(lp4198
Nasbasbasbag67
(g83
g69
NtRp4199
(dp4200
g72
(dp4201
sg81
g4158
sg74
(lp4202
g67
(g88
g69
NtRp4203
(dp4204
g72
(dp4205
sg81
g4199
sg74
(lp4206
g67
(g68
g69
NtRp4207
(dp4208
g72
(dp4209
g80
I1
ssg81
g4203
sg74
(lp4210
(lp4211
(S'plugin_wiki'
p4212
I00
S'http://web2py.com/examples/default/download'
p4213
tp4214
a(g3599
(S's\r\x00\x00\x00Other Plugins'
tRp4215
I00
g3945
tp4216
a(g3599
(S's\x0e\x00\x00\x00Layout Plugins'
tRp4217
I00
g3948
tp4218
aasbasbasbasbasbasbasbasbasbasbasbasbasbasbasbasbasbasbasbag67
(g83
g69
NtRp4219
(dp4220
g72
(dp4221
sg81
g3043
sg74
(lp4222
g67
(g88
g69
NtRp4223
(dp4224
g72
(dp4225
g92
g93
ssg81
g4219
sg74
(lp4226
S'meta'
p4227
asbag67
(g88
g69
NtRp4228
(dp4229
g72
(dp4230
g99
g100
ssg81
g4219
sg74
(lp4231
S':'
asbag67
(g88
g69
NtRp4232
(dp4233
g72
(dp4234
sg81
g4219
sg74
(lp4235
g67
(g68
g69
NtRp4236
(dp4237
g72
(dp4238
g80
I5
ssg81
g4232
sg74
(lp4239
g67
(g76
g69
NtRp4240
(dp4241
g72
(dp4242
g80
I4
ssg81
Nsg74
(lp4243
g67
(g83
g69
NtRp4244
(dp4245
g72
(dp4246
sg81
g4240
sg74
(lp4247
g67
(g88
g69
NtRp4248
(dp4249
g72
(dp4250
g92
g93
ssg81
g4244
sg74
(lp4251
S'author'
p4252
asbag67
(g88
g69
NtRp4253
(dp4254
g72
(dp4255
g99
g100
ssg81
g4244
sg74
(lp4256
S':'
asbag67
(g88
g69
NtRp4257
(dp4258
g72
(dp4259
sg81
g4244
sg74
(lp4260
g67
(g68
g69
NtRp4261
(dp4262
g72
(dp4263
g80
I4
ssg81
g4257
sg74
(lp4264
S'Your Name <you@example.com>'
p4265
asbasbasbag67
(g83
g69
NtRp4266
(dp4267
g72
(dp4268
sg81
g4240
sg74
(lp4269
g67
(g88
g69
NtRp4270
(dp4271
g72
(dp4272
g92
g93
ssg81
g4266
sg74
(lp4273
S'copyright'
p4274
asbag67
(g88
g69
NtRp4275
(dp4276
g72
(dp4277
g99
g100
ssg81
g4266
sg74
(lp4278
S':'
asbag67
(g88
g69
NtRp4279
(dp4280
g72
(dp4281
sg81
g4266
sg74
(lp4282
g67
(g68
g69
NtRp4283
(dp4284
g72
(dp4285
g80
I4
ssg81
g4279
sg74
(lp4286
S'Copyright 2011'
p4287
asbasbasbag67
(g83
g69
NtRp4288
(dp4289
g72
(dp4290
sg81
g4240
sg74
(lp4291
g67
(g88
g69
NtRp4292
(dp4293
g72
(dp4294
g92
g93
ssg81
g4288
sg74
(lp4295
S'description'
p4296
asbag67
(g88
g69
NtRp4297
(dp4298
g72
(dp4299
g99
g100
ssg81
g4288
sg74
(lp4300
S':'
asbag67
(g88
g69
NtRp4301
(dp4302
g72
(dp4303
sg81
g4288
sg74
(lp4304
g67
(g68
g69
NtRp4305
(dp4306
g72
(dp4307
g80
I4
ssg81
g4301
sg74
(lp4308
S'a cool new app'
p4309
asbasbasbag67
(g83
g69
NtRp4310
(dp4311
g72
(dp4312
sg81
g4240
sg74
(lp4313
g67
(g88
g69
NtRp4314
(dp4315
g72
(dp4316
g92
g93
ssg81
g4310
sg74
(lp4317
S'generator'
p4318
asbag67
(g88
g69
NtRp4319
(dp4320
g72
(dp4321
g99
g100
ssg81
g4310
sg74
(lp4322
S':'
asbag67
(g88
g69
NtRp4323
(dp4324
g72
(dp4325
sg81
g4310
sg74
(lp4326
g67
(g68
g69
NtRp4327
(dp4328
g72
(dp4329
g80
I4
ssg81
g4323
sg74
(lp4330
S'Web2py Web Framework'
p4331
asbasbasbag67
(g83
g69
NtRp4332
(dp4333
g72
(dp4334
sg81
g4240
sg74
(lp4335
g67
(g88
g69
NtRp4336
(dp4337
g72
(dp4338
g92
g93
ssg81
g4332
sg74
(lp4339
S'keywords'
p4340
asbag67
(g88
g69
NtRp4341
(dp4342
g72
(dp4343
g99
g100
ssg81
g4332
sg74
(lp4344
S':'
asbag67
(g88
g69
NtRp4345
(dp4346
g72
(dp4347
sg81
g4332
sg74
(lp4348
g67
(g68
g69
NtRp4349
(dp4350
g72
(dp4351
g80
I4
ssg81
g4345
sg74
(lp4352
S'web2py, python, framework'
p4353
asbasbasbasbasbasbasbag67
(g83
g69
NtRp4354
(dp4355
g72
(dp4356
sg81
g3043
sg74
(lp4357
g67
(g88
g69
NtRp4358
(dp4359
g72
(dp4360
g92
g93
ssg81
g4354
sg74
(lp4361
S'postprocessing'
p4362
asbag67
(g88
g69
NtRp4363
(dp4364
g72
(dp4365
g99
g100
ssg81
g4354
sg74
(lp4366
S':'
asbag67
(g88
g69
NtRp4367
(dp4368
g72
(dp4369
sg81
g4354
sg74
(lp4370
g67
(g68
g69
NtRp4371
(dp4372
g72
(dp4373
g80
I5
ssg81
g4367
sg74
(lp4374
g67
(g76
g69
NtRp4375
(dp4376
g72
(dp4377
g80
I4
ssg81
Nsg74
(lp4378
sbasbasbasbag67
(g83
g69
NtRp4379
(dp4380
g72
(dp4381
sg81
g3043
sg74
(lp4382
g67
(g88
g69
NtRp4383
(dp4384
g72
(dp4385
g92
g93
ssg81
g4379
sg74
(lp4386
S'session_filename'
p4387
asbag67
(g88
g69
NtRp4388
(dp4389
g72
(dp4390
g99
g100
ssg81
g4379
sg74
(lp4391
S':'
asbag67
(g88
g69
NtRp4392
(dp4393
g72
(dp4394
sg81
g4379
sg74
(lp4395
g67
(g68
g69
NtRp4396
(dp4397
g72
(dp4398
g80
I5
ssg81
g4392
sg74
(lp4399
S'/home/pooja/web2py/applications/newsapp/sessions/127.0.0.1-7b2deba0-fa0c-474e-90f4-ac4a212ea824'
p4400
asbasbasbag67
(g83
g69
NtRp4401
(dp4402
g72
(dp4403
sg81
g3043
sg74
(lp4404
g67
(g88
g69
NtRp4405
(dp4406
g72
(dp4407
g92
g93
ssg81
g4401
sg74
(lp4408
S'session_id'
p4409
asbag67
(g88
g69
NtRp4410
(dp4411
g72
(dp4412
g99
g100
ssg81
g4401
sg74
(lp4413
S':'
asbag67
(g88
g69
NtRp4414
(dp4415
g72
(dp4416
sg81
g4401
sg74
(lp4417
g67
(g68
g69
NtRp4418
(dp4419
g72
(dp4420
g80
I5
ssg81
g4414
sg74
(lp4421
S'127.0.0.1-7b2deba0-fa0c-474e-90f4-ac4a212ea824'
p4422
asbasbasbag67
(g83
g69
NtRp4423
(dp4424
g72
(dp4425
sg81
g3043
sg74
(lp4426
g67
(g88
g69
NtRp4427
(dp4428
g72
(dp4429
g92
g93
ssg81
g4423
sg74
(lp4430
S'session_id_name'
p4431
asbag67
(g88
g69
NtRp4432
(dp4433
g72
(dp4434
g99
g100
ssg81
g4423
sg74
(lp4435
S':'
asbag67
(g88
g69
NtRp4436
(dp4437
g72
(dp4438
sg81
g4423
sg74
(lp4439
g67
(g68
g69
NtRp4440
(dp4441
g72
(dp4442
g80
I5
ssg81
g4436
sg74
(lp4443
g3100
asbasbasbag67
(g83
g69
NtRp4444
(dp4445
g72
(dp4446
sg81
g3043
sg74
(lp4447
g67
(g88
g69
NtRp4448
(dp4449
g72
(dp4450
g92
g93
ssg81
g4444
sg74
(lp4451
S'session_new'
p4452
asbag67
(g88
g69
NtRp4453
(dp4454
g72
(dp4455
g99
g100
ssg81
g4444
sg74
(lp4456
S':'
asbag67
(g88
g69
NtRp4457
(dp4458
g72
(dp4459
sg81
g4444
sg74
(lp4460
g67
(g68
g69
NtRp4461
(dp4462
g72
(dp4463
g80
I5
ssg81
g4457
sg74
(lp4464
g1666
asbasbasbag67
(g83
g69
NtRp4465
(dp4466
g72
(dp4467
sg81
g3043
sg74
(lp4468
g67
(g88
g69
NtRp4469
(dp4470
g72
(dp4471
g92
g93
ssg81
g4465
sg74
(lp4472
S'status'
p4473
asbag67
(g88
g69
NtRp4474
(dp4475
g72
(dp4476
g99
g100
ssg81
g4465
sg74
(lp4477
S':'
asbag67
(g88
g69
NtRp4478
(dp4479
g72
(dp4480
sg81
g4465
sg74
(lp4481
g67
(g68
g69
NtRp4482
(dp4483
g72
(dp4484
g80
I5
ssg81
g4478
sg74
(lp4485
S'200'
p4486
asbasbasbag67
(g83
g69
NtRp4487
(dp4488
g72
(dp4489
sg81
g3043
sg74
(lp4490
g67
(g88
g69
NtRp4491
(dp4492
g72
(dp4493
g92
g93
ssg81
g4487
sg74
(lp4494
S'subtitle'
p4495
asbag67
(g88
g69
NtRp4496
(dp4497
g72
(dp4498
g99
g100
ssg81
g4487
sg74
(lp4499
S':'
asbag67
(g88
g69
NtRp4500
(dp4501
g72
(dp4502
sg81
g4487
sg74
(lp4503
g67
(g68
g69
NtRp4504
(dp4505
g72
(dp4506
g80
I5
ssg81
g4500
sg74
(lp4507
g3599
(S's\r\x00\x00\x00customize me!'
tRp4508
asbasbasbag67
(g83
g69
NtRp4509
(dp4510
g72
(dp4511
sg81
g3043
sg74
(lp4512
g67
(g88
g69
NtRp4513
(dp4514
g72
(dp4515
g92
g93
ssg81
g4509
sg74
(lp4516
S'title'
p4517
asbag67
(g88
g69
NtRp4518
(dp4519
g72
(dp4520
g99
g100
ssg81
g4509
sg74
(lp4521
S':'
asbag67
(g88
g69
NtRp4522
(dp4523
g72
(dp4524
sg81
g4509
sg74
(lp4525
g67
(g68
g69
NtRp4526
(dp4527
g72
(dp4528
g80
I5
ssg81
g4522
sg74
(lp4529
S'Newsapp'
p4530
asbasbasbag67
(g83
g69
NtRp4531
(dp4532
g72
(dp4533
sg81
g3043
sg74
(lp4534
g67
(g88
g69
NtRp4535
(dp4536
g72
(dp4537
g92
g93
ssg81
g4531
sg74
(lp4538
g2330
asbag67
(g88
g69
NtRp4539
(dp4540
g72
(dp4541
g99
g100
ssg81
g4531
sg74
(lp4542
S':'
asbag67
(g88
g69
NtRp4543
(dp4544
g72
(dp4545
sg81
g4531
sg74
(lp4546
g67
(g68
g69
NtRp4547
(dp4548
g72
(dp4549
g80
I5
ssg81
g4543
sg74
(lp4550
g2343
asbasbasbag67
(g83
g69
NtRp4551
(dp4552
g72
(dp4553
sg81
g3043
sg74
(lp4554
g67
(g88
g69
NtRp4555
(dp4556
g72
(dp4557
g92
g93
ssg81
g4551
sg74
(lp4558
S'view'
p4559
asbag67
(g88
g69
NtRp4560
(dp4561
g72
(dp4562
g99
g100
ssg81
g4551
sg74
(lp4563
S':'
asbag67
(g88
g69
NtRp4564
(dp4565
g72
(dp4566
sg81
g4551
sg74
(lp4567
g67
(g68
g69
NtRp4568
(dp4569
g72
(dp4570
g80
I5
ssg81
g4564
sg74
(lp4571
S'default/index.html'
p4572
asbasbasbasbasbsS'locals'
p4573
(dp4574
g4
S"'/home/pooja/web2py/applications/newsapp/views/default/index.html'"
p4575
sg6
S'\'response.write(\\\'<!DOCTYPE html>\\\\n<html>\\\\n<body>\\\\...rite(\\\'";\\\\\\\'>\\\\n\\\\n</body>\\\\n</html>\\\\n\\\', escape=False)\''
p4576
sssS'traceback'
p4577
S'Traceback (most recent call last):\n  File "/usr/lib/pymodules/python2.7/gluon/restricted.py", line 204, in restricted\n    ccode = compile2(code,layer)\n  File "/usr/lib/pymodules/python2.7/gluon/restricted.py", line 189, in compile2\n    return compile(code.rstrip().replace(\'\\r\\n\',\'\\n\')+\'\\n\', layer, \'exec\')\n  File "/home/pooja/web2py/applications/newsapp/views/default/index.html", line 3\n    response.write(\'";\\\'>\\n\\n</body>\\n</html>\\n\', escape=False)\n           ^\nSyntaxError: invalid syntax\n'
p4578
s.