(dp1
S'output'
p2
S"<class 'urllib2.HTTPError'> HTTP Error 400: Bad Request"
p3
sS'layer'
p4
S'/home/pooja/web2py/applications/newsapp/controllers/default.py'
p5
sS'code'
p6
S'import urllib,urllib2\nfrom urlparse import *\nimport json\nimport sys\nimport os\n#from oauth2 import *\nimport oauth2 as oauth\n\ndef index():\n    return dict()\n\ndef tw_signin():\n    app = oauth.Consumer(key= "dJvGhNEaw6ivlQGals8g1mMu9", secret= "n5qBLoWVO77KHLfAUB1Z5wTYtO7ed62XmNbq52bmYjEFYdJNQi")\n    client = oauth.Client(app)\n    response, content = client.request(\'https://twitter.com/oauth/request_token\', "GET")\n    if response[\'status\'] != \'200\':\n        raise HTTP(response[\'status\']),str(content)\n    request_token = dict(parse_qsl(content))\n    session.request_token = request_token\n    redirect_location = "%s?oauth_token=%s" % (\'https://twitter.com/oauth/authenticate\', request_token[\'oauth_token\'])\n    redirect(redirect_location)\n    return\n\ndef permission():\n    if not(session.request_token is None):\n        consumer = oauth.Consumer(key=twconfig.app_key, secret= twconfig.app_secret)\n        token = None\n        try:\n            token = Token(session.request_token[\'oauth_token\'],session.request_token[\'oauth_token_secret\'])\n        except:\n            redirect(URL(r=request,c=\'default\', f=\'index\'))\n        token.set_verifier(request.vars[\'oauth_verifier\'])\n        client = oauth.Client(consumer, token)\n        response, content = client.request(\'https://twitter.com/oauth/access_token\', "POST")\n        if response[\'status\'] == \'401\':\n            BEAUTIFY("you have denied the request")\n            redirect(URL(r=request,c=\'default\', f=\'index\'))\n        if response[\'status\'] != \'200\':\n            return response[\'status\'],str(content)\n        access_token = dict(parse_qsl(content))\n        session.access_token = access_token\n        user_id = int(access_token[\'user_id\'])\n        name =(access_token[\'screen_name\'])\n        tw_status_query = """\n            INSERT IGNORE INTO  tw_details(screen_name,user_id,tw_token,tw_token_secret) VALUES (\'%s\',\'%s\',\'%s\',\'%s\')\n    ON DUPLICATE KEY UPDATE tw_token=\'%s\',tw_token_secret=\'%s\';"""%(name,user_id,session.access_token[\'oauth_token\'],session.access_token[\'oauth_token_secret\'],session.access_token[\'oauth_token\'],session.access_token[\'oauth_token_secret\'])\n    tw_status = db.executesql(tw_status_query)\n    return dict()\n\ndef get_extented_token():\n    token = request.vars.token\n    url1 = "https://graph.facebook.com/"\n    url1 += \'me?access_token=%s\'%(token)\n    details = urllib2.urlopen(url1)\n    dict_response = json.loads(details.read())\n    name = dict_response[\'name\']\n    email_id = dict_response[\'email\']\n    fb_id = dict_response[\'id\']\n    session.email_id = email_id\n    session.fb_id = fb_id\n    url = "https://graph.facebook.com/"\n    url += "oauth/access_token?client_id="+fbconfig.app_id+"&client_secret="+fbconfig.app_secret\n    url += "&grant_type=fb_exchange_token"\n    url += "&fb_exchange_token=%s"%(token)\n\n    data = urllib2.urlopen(url)\n\n    interm = data.read().split("=")\n    token = interm[1].split("&")\n    extended_token = token[0]\n    session.extended_token = extended_token\n    expires = interm[2]\n\ndef fbuser():\n    token = request.vars.token\n    url1 = "https://graph.facebook.com/"\n    url1 += \'me?access_token=%s\'%(token)\n    details = urllib2.urlopen(url1)\n    dict_response = json.loads(details.read())\n    name = dict_response[\'name\']\n    email_id = ""\n    try:\n        email_id = dict_response[\'email\']\n    except:\n        pass\n    fb_id = dict_response[\'id\']\n    url = "https://graph.facebook.com/"\n    url += "oauth/access_token?client_id="+fbconfig.app_id+"&client_secret="+fbconfig.app_secret\n    url += "&grant_type=fb_exchange_token"\n    url += "&fb_exchange_token=%s"%(token)\n\n    data = urllib2.urlopen(url)\n    interm = data.read().split("=")\n    token = interm[1].split("&")\n    extended_token = token[0]\n    session.extended_token = extended_token\n    expires = interm[2]\n    fb_status = db.executesql("""INSERT IGNORE INTO  fb_details(name,email_id,fb_id,access_token,expiry) VALUES (%s,%s,%s,%s,%s);""",(name,email_id,session.fb_id,extended_token,expires))\n    return dict()\n\nresponse._vars=response._caller(fbuser)\n'
p7
sS'snapshot'
p8
(dp9
S'exception'
p10
(dp11
S'__module__'
p12
S"'urllib2'"
p13
sg6
S'400'
p14
sS'__getslice__'
p15
S"<method-wrapper '__getslice__' of HTTPError object>"
p16
sS'__str__'
p17
S'<bound method HTTPError.__str__ of HTTPError()>'
p18
sS'__reduce__'
p19
S'<built-in method __reduce__ of HTTPError object>'
p20
sS'strerror'
p21
S'None'
p22
sS'__dict__'
p23
S"{'__iter__': <bound method _fileobject.__iter__ of <socket._fileobject object>>, 'code': 400, 'fileno': <bound method _fileobject.fileno of <socket._fileobject object>>, 'fp': <addinfourl at 140249592980904 whose fp = <socket._fileobject object>>, 'hdrs': <httplib.HTTPMessage instance>, 'headers': <httplib.HTTPMessage instance>, 'msg': 'Bad Request', 'next': <bound method _fileobject.next of <socket._fileobject object>>, 'read': <bound method _fileobject.read of <socket._fileobject object>>, 'readline': <bound method _fileobject.readline of <socket._fileobject object>>, ...}"
p24
sS'close'
p25
S'<bound method HTTPError.close of HTTPError()>'
p26
sS'__sizeof__'
p27
S'<built-in method __sizeof__ of HTTPError object>'
p28
sS'next'
p29
S'<bound method _fileobject.next of <socket._fileobject object>>'
p30
sS'__weakref__'
p31
S'None'
p32
sS'__init__'
p33
S'<bound method HTTPError.__init__ of HTTPError()>'
p34
sS'__setattr__'
p35
S"<method-wrapper '__setattr__' of HTTPError object>"
p36
sS'__reduce_ex__'
p37
S'<built-in method __reduce_ex__ of HTTPError object>'
p38
sS'__new__'
p39
S'<built-in method __new__ of type object>'
p40
sS'headers'
p41
S'<httplib.HTTPMessage instance>'
p42
sS'errno'
p43
S'None'
p44
sS'readlines'
p45
S'<bound method _fileobject.readlines of <socket._fileobject object>>'
p46
sS'__format__'
p47
S'<built-in method __format__ of HTTPError object>'
p48
sS'__class__'
p49
S"<class 'urllib2.HTTPError'>"
p50
sS'filename'
p51
S"'https://graph.facebook.com/me?access_token=None'"
p52
sS'_HTTPError__super_init'
p53
S'<bound method HTTPError.__init__ of HTTPError()>'
p54
sS'msg'
p55
S"'Bad Request'"
p56
sS'__doc__'
p57
S"'Raised when HTTP error occurs, but also acts like non-error return'"
p58
sS'fp'
p59
S'<addinfourl at 140249592980904 whose fp = <socket._fileobject object>>'
p60
sS'hdrs'
p61
S'<httplib.HTTPMessage instance>'
p62
sS'__getitem__'
p63
S"<method-wrapper '__getitem__' of HTTPError object>"
p64
sS'__setstate__'
p65
S'<built-in method __setstate__ of HTTPError object>'
p66
sS'read'
p67
S'<bound method _fileobject.read of <socket._fileobject object>>'
p68
sS'__getattribute__'
p69
S"<method-wrapper '__getattribute__' of HTTPError object>"
p70
sS'args'
p71
S'()'
p72
sS'__iter__'
p73
S'<bound method _fileobject.__iter__ of <socket._fileobject object>>'
p74
sS'__subclasshook__'
p75
S'<built-in method __subclasshook__ of type object>'
p76
sS'readline'
p77
S'<bound method _fileobject.readline of <socket._fileobject object>>'
p78
sS'__unicode__'
p79
S'<built-in method __unicode__ of HTTPError object>'
p80
sS'info'
p81
S'<bound method HTTPError.info of HTTPError()>'
p82
sS'fileno'
p83
S'<bound method _fileobject.fileno of <socket._fileobject object>>'
p84
sS'getcode'
p85
S'<bound method HTTPError.getcode of HTTPError()>'
p86
sS'url'
p87
S"'https://graph.facebook.com/me?access_token=None'"
p88
sS'reason'
p89
S"'Bad Request'"
p90
sS'geturl'
p91
S'<bound method HTTPError.geturl of HTTPError()>'
p92
sS'__delattr__'
p93
S"<method-wrapper '__delattr__' of HTTPError object>"
p94
sS'__repr__'
p95
S"<method-wrapper '__repr__' of HTTPError object>"
p96
sS'__hash__'
p97
S"<method-wrapper '__hash__' of HTTPError object>"
p98
ssS'evalue'
p99
S'HTTP Error 400: Bad Request'
p100
sS'request'
p101
ccopy_reg
_reconstructor
p102
(cgluon.html
BEAUTIFY
p103
c__builtin__
object
p104
NtRp105
(dp106
S'attributes'
p107
(dp108
sS'components'
p109
(lp110
g102
(cgluon.html
TABLE
p111
g104
NtRp112
(dp113
g107
(dp114
S'level'
p115
I5
ssS'parent'
p116
Nsg109
(lp117
g102
(cgluon.html
TR
p118
g104
NtRp119
(dp120
g107
(dp121
sg116
g112
sg109
(lp122
g102
(cgluon.html
TD
p123
g104
NtRp124
(dp125
g107
(dp126
S'_style'
p127
S'font-weight:bold;vertical-align:top'
p128
ssg116
g119
sg109
(lp129
S'ajax'
p130
asbag102
(g123
g104
NtRp131
(dp132
g107
(dp133
S'_valign'
p134
S'top'
p135
ssg116
g119
sg109
(lp136
S':'
asbag102
(g123
g104
NtRp137
(dp138
g107
(dp139
sg116
g119
sg109
(lp140
g102
(g103
g104
NtRp141
(dp142
g107
(dp143
g115
I5
ssg116
g137
sg109
(lp144
S'False'
p145
asbasbasbag102
(g118
g104
NtRp146
(dp147
g107
(dp148
sg116
g112
sg109
(lp149
g102
(g123
g104
NtRp150
(dp151
g107
(dp152
g127
g128
ssg116
g146
sg109
(lp153
S'application'
p154
asbag102
(g123
g104
NtRp155
(dp156
g107
(dp157
g134
g135
ssg116
g146
sg109
(lp158
S':'
asbag102
(g123
g104
NtRp159
(dp160
g107
(dp161
sg116
g146
sg109
(lp162
g102
(g103
g104
NtRp163
(dp164
g107
(dp165
g115
I5
ssg116
g159
sg109
(lp166
S'newsapp'
p167
asbasbasbag102
(g118
g104
NtRp168
(dp169
g107
(dp170
sg116
g112
sg109
(lp171
g102
(g123
g104
NtRp172
(dp173
g107
(dp174
g127
g128
ssg116
g168
sg109
(lp175
g71
asbag102
(g123
g104
NtRp176
(dp177
g107
(dp178
g134
g135
ssg116
g168
sg109
(lp179
S':'
asbag102
(g123
g104
NtRp180
(dp181
g107
(dp182
sg116
g168
sg109
(lp183
g102
(g103
g104
NtRp184
(dp185
g107
(dp186
g115
I5
ssg116
g180
sg109
(lp187
g102
(g111
g104
NtRp188
(dp189
g107
(dp190
g115
I4
ssg116
Nsg109
(lp191
sbasbasbasbag102
(g118
g104
NtRp192
(dp193
g107
(dp194
sg116
g112
sg109
(lp195
g102
(g123
g104
NtRp196
(dp197
g107
(dp198
g127
g128
ssg116
g192
sg109
(lp199
S'body'
p200
asbag102
(g123
g104
NtRp201
(dp202
g107
(dp203
g134
g135
ssg116
g192
sg109
(lp204
S':'
asbag102
(g123
g104
NtRp205
(dp206
g107
(dp207
sg116
g192
sg109
(lp208
g102
(g103
g104
NtRp209
(dp210
g107
(dp211
g115
I5
ssg116
g205
sg109
(lp212
S'<cStringIO.StringO object at 0x7f8e84574a78>'
p213
asbasbasbag102
(g118
g104
NtRp214
(dp215
g107
(dp216
sg116
g112
sg109
(lp217
g102
(g123
g104
NtRp218
(dp219
g107
(dp220
g127
g128
ssg116
g214
sg109
(lp221
S'client'
p222
asbag102
(g123
g104
NtRp223
(dp224
g107
(dp225
g134
g135
ssg116
g214
sg109
(lp226
S':'
asbag102
(g123
g104
NtRp227
(dp228
g107
(dp229
sg116
g214
sg109
(lp230
g102
(g103
g104
NtRp231
(dp232
g107
(dp233
g115
I5
ssg116
g227
sg109
(lp234
S'127.0.0.1'
p235
asbasbasbag102
(g118
g104
NtRp236
(dp237
g107
(dp238
sg116
g112
sg109
(lp239
g102
(g123
g104
NtRp240
(dp241
g107
(dp242
g127
g128
ssg116
g236
sg109
(lp243
S'controller'
p244
asbag102
(g123
g104
NtRp245
(dp246
g107
(dp247
g134
g135
ssg116
g236
sg109
(lp248
S':'
asbag102
(g123
g104
NtRp249
(dp250
g107
(dp251
sg116
g236
sg109
(lp252
g102
(g103
g104
NtRp253
(dp254
g107
(dp255
g115
I5
ssg116
g249
sg109
(lp256
S'default'
p257
asbasbasbag102
(g118
g104
NtRp258
(dp259
g107
(dp260
sg116
g112
sg109
(lp261
g102
(g123
g104
NtRp262
(dp263
g107
(dp264
g127
g128
ssg116
g258
sg109
(lp265
S'cookies'
p266
asbag102
(g123
g104
NtRp267
(dp268
g107
(dp269
g134
g135
ssg116
g258
sg109
(lp270
S':'
asbag102
(g123
g104
NtRp271
(dp272
g107
(dp273
sg116
g258
sg109
(lp274
g102
(g103
g104
NtRp275
(dp276
g107
(dp277
g115
I5
ssg116
g271
sg109
(lp278
g102
(g111
g104
NtRp279
(dp280
g107
(dp281
g115
I4
ssg116
Nsg109
(lp282
g102
(g118
g104
NtRp283
(dp284
g107
(dp285
sg116
g279
sg109
(lp286
g102
(g123
g104
NtRp287
(dp288
g107
(dp289
g127
g128
ssg116
g283
sg109
(lp290
S'session_id_admin'
p291
asbag102
(g123
g104
NtRp292
(dp293
g107
(dp294
g134
g135
ssg116
g283
sg109
(lp295
S':'
asbag102
(g123
g104
NtRp296
(dp297
g107
(dp298
sg116
g283
sg109
(lp299
g102
(g103
g104
NtRp300
(dp301
g107
(dp302
g115
I4
ssg116
g296
sg109
(lp303
g102
(g111
g104
NtRp304
(dp305
g107
(dp306
g115
I3
ssg116
Nsg109
(lp307
g102
(g118
g104
NtRp308
(dp309
g107
(dp310
sg116
g304
sg109
(lp311
g102
(g123
g104
NtRp312
(dp313
g107
(dp314
g127
g128
ssg116
g308
sg109
(lp315
S'comment'
p316
asbag102
(g123
g104
NtRp317
(dp318
g107
(dp319
g134
g135
ssg116
g308
sg109
(lp320
S':'
asbag102
(g123
g104
NtRp321
(dp322
g107
(dp323
sg116
g308
sg109
(lp324
g102
(g103
g104
NtRp325
(dp326
g107
(dp327
g115
I3
ssg116
g321
sg109
(lp328
S''
asbasbasbag102
(g118
g104
NtRp329
(dp330
g107
(dp331
sg116
g304
sg109
(lp332
g102
(g123
g104
NtRp333
(dp334
g107
(dp335
g127
g128
ssg116
g329
sg109
(lp336
S'domain'
p337
asbag102
(g123
g104
NtRp338
(dp339
g107
(dp340
g134
g135
ssg116
g329
sg109
(lp341
S':'
asbag102
(g123
g104
NtRp342
(dp343
g107
(dp344
sg116
g329
sg109
(lp345
g102
(g103
g104
NtRp346
(dp347
g107
(dp348
g115
I3
ssg116
g342
sg109
(lp349
S''
asbasbasbag102
(g118
g104
NtRp350
(dp351
g107
(dp352
sg116
g304
sg109
(lp353
g102
(g123
g104
NtRp354
(dp355
g107
(dp356
g127
g128
ssg116
g350
sg109
(lp357
S'expires'
p358
asbag102
(g123
g104
NtRp359
(dp360
g107
(dp361
g134
g135
ssg116
g350
sg109
(lp362
S':'
asbag102
(g123
g104
NtRp363
(dp364
g107
(dp365
sg116
g350
sg109
(lp366
g102
(g103
g104
NtRp367
(dp368
g107
(dp369
g115
I3
ssg116
g363
sg109
(lp370
S''
asbasbasbag102
(g118
g104
NtRp371
(dp372
g107
(dp373
sg116
g304
sg109
(lp374
g102
(g123
g104
NtRp375
(dp376
g107
(dp377
g127
g128
ssg116
g371
sg109
(lp378
S'httponly'
p379
asbag102
(g123
g104
NtRp380
(dp381
g107
(dp382
g134
g135
ssg116
g371
sg109
(lp383
S':'
asbag102
(g123
g104
NtRp384
(dp385
g107
(dp386
sg116
g371
sg109
(lp387
g102
(g103
g104
NtRp388
(dp389
g107
(dp390
g115
I3
ssg116
g384
sg109
(lp391
S''
asbasbasbag102
(g118
g104
NtRp392
(dp393
g107
(dp394
sg116
g304
sg109
(lp395
g102
(g123
g104
NtRp396
(dp397
g107
(dp398
g127
g128
ssg116
g392
sg109
(lp399
S'max-age'
p400
asbag102
(g123
g104
NtRp401
(dp402
g107
(dp403
g134
g135
ssg116
g392
sg109
(lp404
S':'
asbag102
(g123
g104
NtRp405
(dp406
g107
(dp407
sg116
g392
sg109
(lp408
g102
(g103
g104
NtRp409
(dp410
g107
(dp411
g115
I3
ssg116
g405
sg109
(lp412
S''
asbasbasbag102
(g118
g104
NtRp413
(dp414
g107
(dp415
sg116
g304
sg109
(lp416
g102
(g123
g104
NtRp417
(dp418
g107
(dp419
g127
g128
ssg116
g413
sg109
(lp420
S'path'
p421
asbag102
(g123
g104
NtRp422
(dp423
g107
(dp424
g134
g135
ssg116
g413
sg109
(lp425
S':'
asbag102
(g123
g104
NtRp426
(dp427
g107
(dp428
sg116
g413
sg109
(lp429
g102
(g103
g104
NtRp430
(dp431
g107
(dp432
g115
I3
ssg116
g426
sg109
(lp433
S''
asbasbasbag102
(g118
g104
NtRp434
(dp435
g107
(dp436
sg116
g304
sg109
(lp437
g102
(g123
g104
NtRp438
(dp439
g107
(dp440
g127
g128
ssg116
g434
sg109
(lp441
S'secure'
p442
asbag102
(g123
g104
NtRp443
(dp444
g107
(dp445
g134
g135
ssg116
g434
sg109
(lp446
S':'
asbag102
(g123
g104
NtRp447
(dp448
g107
(dp449
sg116
g434
sg109
(lp450
g102
(g103
g104
NtRp451
(dp452
g107
(dp453
g115
I3
ssg116
g447
sg109
(lp454
S''
asbasbasbag102
(g118
g104
NtRp455
(dp456
g107
(dp457
sg116
g304
sg109
(lp458
g102
(g123
g104
NtRp459
(dp460
g107
(dp461
g127
g128
ssg116
g455
sg109
(lp462
S'version'
p463
asbag102
(g123
g104
NtRp464
(dp465
g107
(dp466
g134
g135
ssg116
g455
sg109
(lp467
S':'
asbag102
(g123
g104
NtRp468
(dp469
g107
(dp470
sg116
g455
sg109
(lp471
g102
(g103
g104
NtRp472
(dp473
g107
(dp474
g115
I3
ssg116
g468
sg109
(lp475
S''
asbasbasbasbasbasbasbag102
(g118
g104
NtRp476
(dp477
g107
(dp478
sg116
g279
sg109
(lp479
g102
(g123
g104
NtRp480
(dp481
g107
(dp482
g127
g128
ssg116
g476
sg109
(lp483
S'session_id_newsapp'
p484
asbag102
(g123
g104
NtRp485
(dp486
g107
(dp487
g134
g135
ssg116
g476
sg109
(lp488
S':'
asbag102
(g123
g104
NtRp489
(dp490
g107
(dp491
sg116
g476
sg109
(lp492
g102
(g103
g104
NtRp493
(dp494
g107
(dp495
g115
I4
ssg116
g489
sg109
(lp496
g102
(g111
g104
NtRp497
(dp498
g107
(dp499
g115
I3
ssg116
Nsg109
(lp500
g102
(g118
g104
NtRp501
(dp502
g107
(dp503
sg116
g497
sg109
(lp504
g102
(g123
g104
NtRp505
(dp506
g107
(dp507
g127
g128
ssg116
g501
sg109
(lp508
g316
asbag102
(g123
g104
NtRp509
(dp510
g107
(dp511
g134
g135
ssg116
g501
sg109
(lp512
S':'
asbag102
(g123
g104
NtRp513
(dp514
g107
(dp515
sg116
g501
sg109
(lp516
g102
(g103
g104
NtRp517
(dp518
g107
(dp519
g115
I3
ssg116
g513
sg109
(lp520
S''
asbasbasbag102
(g118
g104
NtRp521
(dp522
g107
(dp523
sg116
g497
sg109
(lp524
g102
(g123
g104
NtRp525
(dp526
g107
(dp527
g127
g128
ssg116
g521
sg109
(lp528
g337
asbag102
(g123
g104
NtRp529
(dp530
g107
(dp531
g134
g135
ssg116
g521
sg109
(lp532
S':'
asbag102
(g123
g104
NtRp533
(dp534
g107
(dp535
sg116
g521
sg109
(lp536
g102
(g103
g104
NtRp537
(dp538
g107
(dp539
g115
I3
ssg116
g533
sg109
(lp540
S''
asbasbasbag102
(g118
g104
NtRp541
(dp542
g107
(dp543
sg116
g497
sg109
(lp544
g102
(g123
g104
NtRp545
(dp546
g107
(dp547
g127
g128
ssg116
g541
sg109
(lp548
g358
asbag102
(g123
g104
NtRp549
(dp550
g107
(dp551
g134
g135
ssg116
g541
sg109
(lp552
S':'
asbag102
(g123
g104
NtRp553
(dp554
g107
(dp555
sg116
g541
sg109
(lp556
g102
(g103
g104
NtRp557
(dp558
g107
(dp559
g115
I3
ssg116
g553
sg109
(lp560
S''
asbasbasbag102
(g118
g104
NtRp561
(dp562
g107
(dp563
sg116
g497
sg109
(lp564
g102
(g123
g104
NtRp565
(dp566
g107
(dp567
g127
g128
ssg116
g561
sg109
(lp568
g379
asbag102
(g123
g104
NtRp569
(dp570
g107
(dp571
g134
g135
ssg116
g561
sg109
(lp572
S':'
asbag102
(g123
g104
NtRp573
(dp574
g107
(dp575
sg116
g561
sg109
(lp576
g102
(g103
g104
NtRp577
(dp578
g107
(dp579
g115
I3
ssg116
g573
sg109
(lp580
S''
asbasbasbag102
(g118
g104
NtRp581
(dp582
g107
(dp583
sg116
g497
sg109
(lp584
g102
(g123
g104
NtRp585
(dp586
g107
(dp587
g127
g128
ssg116
g581
sg109
(lp588
g400
asbag102
(g123
g104
NtRp589
(dp590
g107
(dp591
g134
g135
ssg116
g581
sg109
(lp592
S':'
asbag102
(g123
g104
NtRp593
(dp594
g107
(dp595
sg116
g581
sg109
(lp596
g102
(g103
g104
NtRp597
(dp598
g107
(dp599
g115
I3
ssg116
g593
sg109
(lp600
S''
asbasbasbag102
(g118
g104
NtRp601
(dp602
g107
(dp603
sg116
g497
sg109
(lp604
g102
(g123
g104
NtRp605
(dp606
g107
(dp607
g127
g128
ssg116
g601
sg109
(lp608
g421
asbag102
(g123
g104
NtRp609
(dp610
g107
(dp611
g134
g135
ssg116
g601
sg109
(lp612
S':'
asbag102
(g123
g104
NtRp613
(dp614
g107
(dp615
sg116
g601
sg109
(lp616
g102
(g103
g104
NtRp617
(dp618
g107
(dp619
g115
I3
ssg116
g613
sg109
(lp620
S''
asbasbasbag102
(g118
g104
NtRp621
(dp622
g107
(dp623
sg116
g497
sg109
(lp624
g102
(g123
g104
NtRp625
(dp626
g107
(dp627
g127
g128
ssg116
g621
sg109
(lp628
g442
asbag102
(g123
g104
NtRp629
(dp630
g107
(dp631
g134
g135
ssg116
g621
sg109
(lp632
S':'
asbag102
(g123
g104
NtRp633
(dp634
g107
(dp635
sg116
g621
sg109
(lp636
g102
(g103
g104
NtRp637
(dp638
g107
(dp639
g115
I3
ssg116
g633
sg109
(lp640
S''
asbasbasbag102
(g118
g104
NtRp641
(dp642
g107
(dp643
sg116
g497
sg109
(lp644
g102
(g123
g104
NtRp645
(dp646
g107
(dp647
g127
g128
ssg116
g641
sg109
(lp648
g463
asbag102
(g123
g104
NtRp649
(dp650
g107
(dp651
g134
g135
ssg116
g641
sg109
(lp652
S':'
asbag102
(g123
g104
NtRp653
(dp654
g107
(dp655
sg116
g641
sg109
(lp656
g102
(g103
g104
NtRp657
(dp658
g107
(dp659
g115
I3
ssg116
g653
sg109
(lp660
S''
asbasbasbasbasbasbasbasbasbasbasbag102
(g118
g104
NtRp661
(dp662
g107
(dp663
sg116
g112
sg109
(lp664
g102
(g123
g104
NtRp665
(dp666
g107
(dp667
g127
g128
ssg116
g661
sg109
(lp668
S'env'
p669
asbag102
(g123
g104
NtRp670
(dp671
g107
(dp672
g134
g135
ssg116
g661
sg109
(lp673
S':'
asbag102
(g123
g104
NtRp674
(dp675
g107
(dp676
sg116
g661
sg109
(lp677
g102
(g103
g104
NtRp678
(dp679
g107
(dp680
g115
I5
ssg116
g674
sg109
(lp681
g102
(g111
g104
NtRp682
(dp683
g107
(dp684
g115
I4
ssg116
Nsg109
(lp685
g102
(g118
g104
NtRp686
(dp687
g107
(dp688
sg116
g682
sg109
(lp689
g102
(g123
g104
NtRp690
(dp691
g107
(dp692
g127
g128
ssg116
g686
sg109
(lp693
S'app_folders'
p694
asbag102
(g123
g104
NtRp695
(dp696
g107
(dp697
g134
g135
ssg116
g686
sg109
(lp698
S':'
asbag102
(g123
g104
NtRp699
(dp700
g107
(dp701
sg116
g686
sg109
(lp702
g102
(g103
g104
NtRp703
(dp704
g107
(dp705
g115
I4
ssg116
g699
sg109
(lp706
S"set(['/home/pooja/web2py/applications/admin/', '/home/pooja/web2py/applications/newsapp/', '/home/pooja/web2py/applications/welcome/'])"
p707
asbasbasbag102
(g118
g104
NtRp708
(dp709
g107
(dp710
sg116
g682
sg109
(lp711
g102
(g123
g104
NtRp712
(dp713
g107
(dp714
g127
g128
ssg116
g708
sg109
(lp715
S'applications_parent'
p716
asbag102
(g123
g104
NtRp717
(dp718
g107
(dp719
g134
g135
ssg116
g708
sg109
(lp720
S':'
asbag102
(g123
g104
NtRp721
(dp722
g107
(dp723
sg116
g708
sg109
(lp724
g102
(g103
g104
NtRp725
(dp726
g107
(dp727
g115
I4
ssg116
g721
sg109
(lp728
S'/home/pooja/web2py'
p729
asbasbasbag102
(g118
g104
NtRp730
(dp731
g107
(dp732
sg116
g682
sg109
(lp733
g102
(g123
g104
NtRp734
(dp735
g107
(dp736
g127
g128
ssg116
g730
sg109
(lp737
S'cmd_args'
p738
asbag102
(g123
g104
NtRp739
(dp740
g107
(dp741
g134
g135
ssg116
g730
sg109
(lp742
S':'
asbag102
(g123
g104
NtRp743
(dp744
g107
(dp745
sg116
g730
sg109
(lp746
g102
(g103
g104
NtRp747
(dp748
g107
(dp749
g115
I4
ssg116
g743
sg109
(lp750
g102
(g111
g104
NtRp751
(dp752
g107
(dp753
g115
I3
ssg116
Nsg109
(lp754
sbasbasbasbag102
(g118
g104
NtRp755
(dp756
g107
(dp757
sg116
g682
sg109
(lp758
g102
(g123
g104
NtRp759
(dp760
g107
(dp761
g127
g128
ssg116
g755
sg109
(lp762
S'cmd_options'
p763
asbag102
(g123
g104
NtRp764
(dp765
g107
(dp766
g134
g135
ssg116
g755
sg109
(lp767
S':'
asbag102
(g123
g104
NtRp768
(dp769
g107
(dp770
sg116
g755
sg109
(lp771
g102
(g103
g104
NtRp772
(dp773
g107
(dp774
g115
I4
ssg116
g768
sg109
(lp775
S"<Values at 0x7f8ec06a5908: {'verbose': False, 'ip': '127.0.0.1', 'shutdown_timeout': 5, 'taskbar': False, 'nocron': False, 'pid_filename': 'httpserver.pid', 'maxthreads': None, 'softcron': False, 'server_name': 'pooja-HP-15-Notebook-PC', 'bpython': False, 'nogui': False, 'port': 8000, 'extcron': False, 'debuglevel': 30, 'test': None, 'folder': '/home/pooja/web2py', 'config': '', 'import_models': False, 'winservice': '', 'shell': None, 'run': '', 'log_filename': 'httpserver.log', 'args': [''], 'socket_timeout': 5, 'ssl_ca_certificate': None, 'scheduler': None, 'profiler_filename': None, 'ssl_private_key': '', 'password': '<ask>', 'request_queue_size': 5, 'ssl_certificate': '', 'cronjob': False, 'numthreads': None, 'quiet': False, 'interfaces': None, 'minthreads': None, 'timeout': 10, 'plain': False, 'nobanner': False}>"
p776
asbasbasbag102
(g118
g104
NtRp777
(dp778
g107
(dp779
sg116
g682
sg109
(lp780
g102
(g123
g104
NtRp781
(dp782
g107
(dp783
g127
g128
ssg116
g777
sg109
(lp784
S'db_sessions'
p785
asbag102
(g123
g104
NtRp786
(dp787
g107
(dp788
g134
g135
ssg116
g777
sg109
(lp789
S':'
asbag102
(g123
g104
NtRp790
(dp791
g107
(dp792
sg116
g777
sg109
(lp793
g102
(g103
g104
NtRp794
(dp795
g107
(dp796
g115
I4
ssg116
g790
sg109
(lp797
S'set([])'
p798
asbasbasbag102
(g118
g104
NtRp799
(dp800
g107
(dp801
sg116
g682
sg109
(lp802
g102
(g123
g104
NtRp803
(dp804
g107
(dp805
g127
g128
ssg116
g799
sg109
(lp806
S'debugging'
p807
asbag102
(g123
g104
NtRp808
(dp809
g107
(dp810
g134
g135
ssg116
g799
sg109
(lp811
S':'
asbag102
(g123
g104
NtRp812
(dp813
g107
(dp814
sg116
g799
sg109
(lp815
g102
(g103
g104
NtRp816
(dp817
g107
(dp818
g115
I4
ssg116
g812
sg109
(lp819
g145
asbasbasbag102
(g118
g104
NtRp820
(dp821
g107
(dp822
sg116
g682
sg109
(lp823
g102
(g123
g104
NtRp824
(dp825
g107
(dp826
g127
g128
ssg116
g820
sg109
(lp827
S'gluon_parent'
p828
asbag102
(g123
g104
NtRp829
(dp830
g107
(dp831
g134
g135
ssg116
g820
sg109
(lp832
S':'
asbag102
(g123
g104
NtRp833
(dp834
g107
(dp835
sg116
g820
sg109
(lp836
g102
(g103
g104
NtRp837
(dp838
g107
(dp839
g115
I4
ssg116
g833
sg109
(lp840
S'/usr/share/web2py'
p841
asbasbasbag102
(g118
g104
NtRp842
(dp843
g107
(dp844
sg116
g682
sg109
(lp845
g102
(g123
g104
NtRp846
(dp847
g107
(dp848
g127
g128
ssg116
g842
sg109
(lp849
S'http_accept'
p850
asbag102
(g123
g104
NtRp851
(dp852
g107
(dp853
g134
g135
ssg116
g842
sg109
(lp854
S':'
asbag102
(g123
g104
NtRp855
(dp856
g107
(dp857
sg116
g842
sg109
(lp858
g102
(g103
g104
NtRp859
(dp860
g107
(dp861
g115
I4
ssg116
g855
sg109
(lp862
S'text/html,application/xhtml+xml,application/xml;q=0.9,image/webp,*/*;q=0.8'
p863
asbasbasbag102
(g118
g104
NtRp864
(dp865
g107
(dp866
sg116
g682
sg109
(lp867
g102
(g123
g104
NtRp868
(dp869
g107
(dp870
g127
g128
ssg116
g864
sg109
(lp871
S'http_accept_encoding'
p872
asbag102
(g123
g104
NtRp873
(dp874
g107
(dp875
g134
g135
ssg116
g864
sg109
(lp876
S':'
asbag102
(g123
g104
NtRp877
(dp878
g107
(dp879
sg116
g864
sg109
(lp880
g102
(g103
g104
NtRp881
(dp882
g107
(dp883
g115
I4
ssg116
g877
sg109
(lp884
S'gzip, deflate, sdch'
p885
asbasbasbag102
(g118
g104
NtRp886
(dp887
g107
(dp888
sg116
g682
sg109
(lp889
g102
(g123
g104
NtRp890
(dp891
g107
(dp892
g127
g128
ssg116
g886
sg109
(lp893
S'http_accept_language'
p894
asbag102
(g123
g104
NtRp895
(dp896
g107
(dp897
g134
g135
ssg116
g886
sg109
(lp898
S':'
asbag102
(g123
g104
NtRp899
(dp900
g107
(dp901
sg116
g886
sg109
(lp902
g102
(g103
g104
NtRp903
(dp904
g107
(dp905
g115
I4
ssg116
g899
sg109
(lp906
S'en-US,en;q=0.8'
p907
asbasbasbag102
(g118
g104
NtRp908
(dp909
g107
(dp910
sg116
g682
sg109
(lp911
g102
(g123
g104
NtRp912
(dp913
g107
(dp914
g127
g128
ssg116
g908
sg109
(lp915
S'http_connection'
p916
asbag102
(g123
g104
NtRp917
(dp918
g107
(dp919
g134
g135
ssg116
g908
sg109
(lp920
S':'
asbag102
(g123
g104
NtRp921
(dp922
g107
(dp923
sg116
g908
sg109
(lp924
g102
(g103
g104
NtRp925
(dp926
g107
(dp927
g115
I4
ssg116
g921
sg109
(lp928
S'keep-alive'
p929
asbasbasbag102
(g118
g104
NtRp930
(dp931
g107
(dp932
sg116
g682
sg109
(lp933
g102
(g123
g104
NtRp934
(dp935
g107
(dp936
g127
g128
ssg116
g930
sg109
(lp937
S'http_cookie'
p938
asbag102
(g123
g104
NtRp939
(dp940
g107
(dp941
g134
g135
ssg116
g930
sg109
(lp942
S':'
asbag102
(g123
g104
NtRp943
(dp944
g107
(dp945
sg116
g930
sg109
(lp946
g102
(g103
g104
NtRp947
(dp948
g107
(dp949
g115
I4
ssg116
g943
sg109
(lp950
S'session_id_admin=127.0.0.1-d5b71727-5aad-421e-867f-f719749abda2; session_id_newsapp=127.0.0.1-7de188ca-4c59-4fae-b3cd-5d290c9c1c3f'
p951
asbasbasbag102
(g118
g104
NtRp952
(dp953
g107
(dp954
sg116
g682
sg109
(lp955
g102
(g123
g104
NtRp956
(dp957
g107
(dp958
g127
g128
ssg116
g952
sg109
(lp959
S'http_host'
p960
asbag102
(g123
g104
NtRp961
(dp962
g107
(dp963
g134
g135
ssg116
g952
sg109
(lp964
S':'
asbag102
(g123
g104
NtRp965
(dp966
g107
(dp967
sg116
g952
sg109
(lp968
g102
(g103
g104
NtRp969
(dp970
g107
(dp971
g115
I4
ssg116
g965
sg109
(lp972
S'localhost:8000'
p973
asbasbasbag102
(g118
g104
NtRp974
(dp975
g107
(dp976
sg116
g682
sg109
(lp977
g102
(g123
g104
NtRp978
(dp979
g107
(dp980
g127
g128
ssg116
g974
sg109
(lp981
S'http_referer'
p982
asbag102
(g123
g104
NtRp983
(dp984
g107
(dp985
g134
g135
ssg116
g974
sg109
(lp986
S':'
asbag102
(g123
g104
NtRp987
(dp988
g107
(dp989
sg116
g974
sg109
(lp990
g102
(g103
g104
NtRp991
(dp992
g107
(dp993
g115
I4
ssg116
g987
sg109
(lp994
S'http://localhost:8000/newsapp/default'
p995
asbasbasbag102
(g118
g104
NtRp996
(dp997
g107
(dp998
sg116
g682
sg109
(lp999
g102
(g123
g104
NtRp1000
(dp1001
g107
(dp1002
g127
g128
ssg116
g996
sg109
(lp1003
S'http_user_agent'
p1004
asbag102
(g123
g104
NtRp1005
(dp1006
g107
(dp1007
g134
g135
ssg116
g996
sg109
(lp1008
S':'
asbag102
(g123
g104
NtRp1009
(dp1010
g107
(dp1011
sg116
g996
sg109
(lp1012
g102
(g103
g104
NtRp1013
(dp1014
g107
(dp1015
g115
I4
ssg116
g1009
sg109
(lp1016
S'Mozilla/5.0 (X11; Linux x86_64) AppleWebKit/537.36 (KHTML, like Gecko) Chrome/42.0.2311.135 Safari/537.36'
p1017
asbasbasbag102
(g118
g104
NtRp1018
(dp1019
g107
(dp1020
sg116
g682
sg109
(lp1021
g102
(g123
g104
NtRp1022
(dp1023
g107
(dp1024
g127
g128
ssg116
g1018
sg109
(lp1025
S'is_jython'
p1026
asbag102
(g123
g104
NtRp1027
(dp1028
g107
(dp1029
g134
g135
ssg116
g1018
sg109
(lp1030
S':'
asbag102
(g123
g104
NtRp1031
(dp1032
g107
(dp1033
sg116
g1018
sg109
(lp1034
g102
(g103
g104
NtRp1035
(dp1036
g107
(dp1037
g115
I4
ssg116
g1031
sg109
(lp1038
g145
asbasbasbag102
(g118
g104
NtRp1039
(dp1040
g107
(dp1041
sg116
g682
sg109
(lp1042
g102
(g123
g104
NtRp1043
(dp1044
g107
(dp1045
g127
g128
ssg116
g1039
sg109
(lp1046
S'is_pypy'
p1047
asbag102
(g123
g104
NtRp1048
(dp1049
g107
(dp1050
g134
g135
ssg116
g1039
sg109
(lp1051
S':'
asbag102
(g123
g104
NtRp1052
(dp1053
g107
(dp1054
sg116
g1039
sg109
(lp1055
g102
(g103
g104
NtRp1056
(dp1057
g107
(dp1058
g115
I4
ssg116
g1052
sg109
(lp1059
g145
asbasbasbag102
(g118
g104
NtRp1060
(dp1061
g107
(dp1062
sg116
g682
sg109
(lp1063
g102
(g123
g104
NtRp1064
(dp1065
g107
(dp1066
g127
g128
ssg116
g1060
sg109
(lp1067
S'path_info'
p1068
asbag102
(g123
g104
NtRp1069
(dp1070
g107
(dp1071
g134
g135
ssg116
g1060
sg109
(lp1072
S':'
asbag102
(g123
g104
NtRp1073
(dp1074
g107
(dp1075
sg116
g1060
sg109
(lp1076
g102
(g103
g104
NtRp1077
(dp1078
g107
(dp1079
g115
I4
ssg116
g1073
sg109
(lp1080
S'/newsapp/default/fbuser'
p1081
asbasbasbag102
(g118
g104
NtRp1082
(dp1083
g107
(dp1084
sg116
g682
sg109
(lp1085
g102
(g123
g104
NtRp1086
(dp1087
g107
(dp1088
g127
g128
ssg116
g1082
sg109
(lp1089
S'query_string'
p1090
asbag102
(g123
g104
NtRp1091
(dp1092
g107
(dp1093
g134
g135
ssg116
g1082
sg109
(lp1094
S':'
asbag102
(g123
g104
NtRp1095
(dp1096
g107
(dp1097
sg116
g1082
sg109
(lp1098
g102
(g103
g104
NtRp1099
(dp1100
g107
(dp1101
g115
I4
ssg116
g1095
sg109
(lp1102
S''
asbasbasbag102
(g118
g104
NtRp1103
(dp1104
g107
(dp1105
sg116
g682
sg109
(lp1106
g102
(g123
g104
NtRp1107
(dp1108
g107
(dp1109
g127
g128
ssg116
g1103
sg109
(lp1110
S'remote_addr'
p1111
asbag102
(g123
g104
NtRp1112
(dp1113
g107
(dp1114
g134
g135
ssg116
g1103
sg109
(lp1115
S':'
asbag102
(g123
g104
NtRp1116
(dp1117
g107
(dp1118
sg116
g1103
sg109
(lp1119
g102
(g103
g104
NtRp1120
(dp1121
g107
(dp1122
g115
I4
ssg116
g1116
sg109
(lp1123
g235
asbasbasbag102
(g118
g104
NtRp1124
(dp1125
g107
(dp1126
sg116
g682
sg109
(lp1127
g102
(g123
g104
NtRp1128
(dp1129
g107
(dp1130
g127
g128
ssg116
g1124
sg109
(lp1131
S'remote_port'
p1132
asbag102
(g123
g104
NtRp1133
(dp1134
g107
(dp1135
g134
g135
ssg116
g1124
sg109
(lp1136
S':'
asbag102
(g123
g104
NtRp1137
(dp1138
g107
(dp1139
sg116
g1124
sg109
(lp1140
g102
(g103
g104
NtRp1141
(dp1142
g107
(dp1143
g115
I4
ssg116
g1137
sg109
(lp1144
S'48094'
p1145
asbasbasbag102
(g118
g104
NtRp1146
(dp1147
g107
(dp1148
sg116
g682
sg109
(lp1149
g102
(g123
g104
NtRp1150
(dp1151
g107
(dp1152
g127
g128
ssg116
g1146
sg109
(lp1153
S'request_method'
p1154
asbag102
(g123
g104
NtRp1155
(dp1156
g107
(dp1157
g134
g135
ssg116
g1146
sg109
(lp1158
S':'
asbag102
(g123
g104
NtRp1159
(dp1160
g107
(dp1161
sg116
g1146
sg109
(lp1162
g102
(g103
g104
NtRp1163
(dp1164
g107
(dp1165
g115
I4
ssg116
g1159
sg109
(lp1166
S'GET'
p1167
asbasbasbag102
(g118
g104
NtRp1168
(dp1169
g107
(dp1170
sg116
g682
sg109
(lp1171
g102
(g123
g104
NtRp1172
(dp1173
g107
(dp1174
g127
g128
ssg116
g1168
sg109
(lp1175
S'script_name'
p1176
asbag102
(g123
g104
NtRp1177
(dp1178
g107
(dp1179
g134
g135
ssg116
g1168
sg109
(lp1180
S':'
asbag102
(g123
g104
NtRp1181
(dp1182
g107
(dp1183
sg116
g1168
sg109
(lp1184
g102
(g103
g104
NtRp1185
(dp1186
g107
(dp1187
g115
I4
ssg116
g1181
sg109
(lp1188
S''
asbasbasbag102
(g118
g104
NtRp1189
(dp1190
g107
(dp1191
sg116
g682
sg109
(lp1192
g102
(g123
g104
NtRp1193
(dp1194
g107
(dp1195
g127
g128
ssg116
g1189
sg109
(lp1196
S'server_name'
p1197
asbag102
(g123
g104
NtRp1198
(dp1199
g107
(dp1200
g134
g135
ssg116
g1189
sg109
(lp1201
S':'
asbag102
(g123
g104
NtRp1202
(dp1203
g107
(dp1204
sg116
g1189
sg109
(lp1205
g102
(g103
g104
NtRp1206
(dp1207
g107
(dp1208
g115
I4
ssg116
g1202
sg109
(lp1209
S'pooja-HP-15-Notebook-PC'
p1210
asbasbasbag102
(g118
g104
NtRp1211
(dp1212
g107
(dp1213
sg116
g682
sg109
(lp1214
g102
(g123
g104
NtRp1215
(dp1216
g107
(dp1217
g127
g128
ssg116
g1211
sg109
(lp1218
S'server_port'
p1219
asbag102
(g123
g104
NtRp1220
(dp1221
g107
(dp1222
g134
g135
ssg116
g1211
sg109
(lp1223
S':'
asbag102
(g123
g104
NtRp1224
(dp1225
g107
(dp1226
sg116
g1211
sg109
(lp1227
g102
(g103
g104
NtRp1228
(dp1229
g107
(dp1230
g115
I4
ssg116
g1224
sg109
(lp1231
S'8000'
p1232
asbasbasbag102
(g118
g104
NtRp1233
(dp1234
g107
(dp1235
sg116
g682
sg109
(lp1236
g102
(g123
g104
NtRp1237
(dp1238
g107
(dp1239
g127
g128
ssg116
g1233
sg109
(lp1240
S'server_protocol'
p1241
asbag102
(g123
g104
NtRp1242
(dp1243
g107
(dp1244
g134
g135
ssg116
g1233
sg109
(lp1245
S':'
asbag102
(g123
g104
NtRp1246
(dp1247
g107
(dp1248
sg116
g1233
sg109
(lp1249
g102
(g103
g104
NtRp1250
(dp1251
g107
(dp1252
g115
I4
ssg116
g1246
sg109
(lp1253
S'HTTP/1.1'
p1254
asbasbasbag102
(g118
g104
NtRp1255
(dp1256
g107
(dp1257
sg116
g682
sg109
(lp1258
g102
(g123
g104
NtRp1259
(dp1260
g107
(dp1261
g127
g128
ssg116
g1255
sg109
(lp1262
S'server_software'
p1263
asbag102
(g123
g104
NtRp1264
(dp1265
g107
(dp1266
g134
g135
ssg116
g1255
sg109
(lp1267
S':'
asbag102
(g123
g104
NtRp1268
(dp1269
g107
(dp1270
sg116
g1255
sg109
(lp1271
g102
(g103
g104
NtRp1272
(dp1273
g107
(dp1274
g115
I4
ssg116
g1268
sg109
(lp1275
S'Rocket 1.2.4'
p1276
asbasbasbag102
(g118
g104
NtRp1277
(dp1278
g107
(dp1279
sg116
g682
sg109
(lp1280
g102
(g123
g104
NtRp1281
(dp1282
g107
(dp1283
g127
g128
ssg116
g1277
sg109
(lp1284
S'web2py_crontype'
p1285
asbag102
(g123
g104
NtRp1286
(dp1287
g107
(dp1288
g134
g135
ssg116
g1277
sg109
(lp1289
S':'
asbag102
(g123
g104
NtRp1290
(dp1291
g107
(dp1292
sg116
g1277
sg109
(lp1293
g102
(g103
g104
NtRp1294
(dp1295
g107
(dp1296
g115
I4
ssg116
g1290
sg109
(lp1297
S'hard'
p1298
asbasbasbag102
(g118
g104
NtRp1299
(dp1300
g107
(dp1301
sg116
g682
sg109
(lp1302
g102
(g123
g104
NtRp1303
(dp1304
g107
(dp1305
g127
g128
ssg116
g1299
sg109
(lp1306
S'web2py_path'
p1307
asbag102
(g123
g104
NtRp1308
(dp1309
g107
(dp1310
g134
g135
ssg116
g1299
sg109
(lp1311
S':'
asbag102
(g123
g104
NtRp1312
(dp1313
g107
(dp1314
sg116
g1299
sg109
(lp1315
g102
(g103
g104
NtRp1316
(dp1317
g107
(dp1318
g115
I4
ssg116
g1312
sg109
(lp1319
g729
asbasbasbag102
(g118
g104
NtRp1320
(dp1321
g107
(dp1322
sg116
g682
sg109
(lp1323
g102
(g123
g104
NtRp1324
(dp1325
g107
(dp1326
g127
g128
ssg116
g1320
sg109
(lp1327
S'web2py_version'
p1328
asbag102
(g123
g104
NtRp1329
(dp1330
g107
(dp1331
g134
g135
ssg116
g1320
sg109
(lp1332
S':'
asbag102
(g123
g104
NtRp1333
(dp1334
g107
(dp1335
sg116
g1320
sg109
(lp1336
g102
(g103
g104
NtRp1337
(dp1338
g107
(dp1339
g115
I4
ssg116
g1333
sg109
(lp1340
g102
(g111
g104
NtRp1341
(dp1342
g107
(dp1343
g115
I3
ssg116
Nsg109
(lp1344
g102
(g118
g104
NtRp1345
(dp1346
g107
(dp1347
sg116
g1341
sg109
(lp1348
g102
(g123
g104
NtRp1349
(dp1350
g107
(dp1351
sg116
g1345
sg109
(lp1352
g102
(g103
g104
NtRp1353
(dp1354
g107
(dp1355
g115
I3
ssg116
g1349
sg109
(lp1356
S'1'
asbasbasbag102
(g118
g104
NtRp1357
(dp1358
g107
(dp1359
sg116
g1341
sg109
(lp1360
g102
(g123
g104
NtRp1361
(dp1362
g107
(dp1363
sg116
g1357
sg109
(lp1364
g102
(g103
g104
NtRp1365
(dp1366
g107
(dp1367
g115
I3
ssg116
g1361
sg109
(lp1368
S'99'
p1369
asbasbasbag102
(g118
g104
NtRp1370
(dp1371
g107
(dp1372
sg116
g1341
sg109
(lp1373
g102
(g123
g104
NtRp1374
(dp1375
g107
(dp1376
sg116
g1370
sg109
(lp1377
g102
(g103
g104
NtRp1378
(dp1379
g107
(dp1380
g115
I3
ssg116
g1374
sg109
(lp1381
S'7'
asbasbasbag102
(g118
g104
NtRp1382
(dp1383
g107
(dp1384
sg116
g1341
sg109
(lp1385
g102
(g123
g104
NtRp1386
(dp1387
g107
(dp1388
sg116
g1382
sg109
(lp1389
g102
(g103
g104
NtRp1390
(dp1391
g107
(dp1392
g115
I3
ssg116
g1386
sg109
(lp1393
S'datetime.datetime(2012, 3, 4, 22, 12, 8)'
p1394
asbasbasbag102
(g118
g104
NtRp1395
(dp1396
g107
(dp1397
sg116
g1341
sg109
(lp1398
g102
(g123
g104
NtRp1399
(dp1400
g107
(dp1401
sg116
g1395
sg109
(lp1402
g102
(g103
g104
NtRp1403
(dp1404
g107
(dp1405
g115
I3
ssg116
g1399
sg109
(lp1406
S'stable'
p1407
asbasbasbasbasbasbasbag102
(g118
g104
NtRp1408
(dp1409
g107
(dp1410
sg116
g682
sg109
(lp1411
g102
(g123
g104
NtRp1412
(dp1413
g107
(dp1414
g127
g128
ssg116
g1408
sg109
(lp1415
S'wsgi_errors'
p1416
asbag102
(g123
g104
NtRp1417
(dp1418
g107
(dp1419
g134
g135
ssg116
g1408
sg109
(lp1420
S':'
asbag102
(g123
g104
NtRp1421
(dp1422
g107
(dp1423
sg116
g1408
sg109
(lp1424
g102
(g103
g104
NtRp1425
(dp1426
g107
(dp1427
g115
I4
ssg116
g1421
sg109
(lp1428
S"<open file '<stderr>', mode 'w' at 0x7f8ec51111e0>"
p1429
asbasbasbag102
(g118
g104
NtRp1430
(dp1431
g107
(dp1432
sg116
g682
sg109
(lp1433
g102
(g123
g104
NtRp1434
(dp1435
g107
(dp1436
g127
g128
ssg116
g1430
sg109
(lp1437
S'wsgi_file_wrapper'
p1438
asbag102
(g123
g104
NtRp1439
(dp1440
g107
(dp1441
g134
g135
ssg116
g1430
sg109
(lp1442
S':'
asbag102
(g123
g104
NtRp1443
(dp1444
g107
(dp1445
sg116
g1430
sg109
(lp1446
g102
(g103
g104
NtRp1447
(dp1448
g107
(dp1449
g115
I4
ssg116
g1443
sg109
(lp1450
S'<class wsgiref.util.FileWrapper at 0x7f8ec08a8870>'
p1451
asbasbasbag102
(g118
g104
NtRp1452
(dp1453
g107
(dp1454
sg116
g682
sg109
(lp1455
g102
(g123
g104
NtRp1456
(dp1457
g107
(dp1458
g127
g128
ssg116
g1452
sg109
(lp1459
S'wsgi_input'
p1460
asbag102
(g123
g104
NtRp1461
(dp1462
g107
(dp1463
g134
g135
ssg116
g1452
sg109
(lp1464
S':'
asbag102
(g123
g104
NtRp1465
(dp1466
g107
(dp1467
sg116
g1452
sg109
(lp1468
g102
(g103
g104
NtRp1469
(dp1470
g107
(dp1471
g115
I4
ssg116
g1465
sg109
(lp1472
S'<socket._fileobject object at 0x7f8e6756f150>'
p1473
asbasbasbag102
(g118
g104
NtRp1474
(dp1475
g107
(dp1476
sg116
g682
sg109
(lp1477
g102
(g123
g104
NtRp1478
(dp1479
g107
(dp1480
g127
g128
ssg116
g1474
sg109
(lp1481
S'wsgi_multiprocess'
p1482
asbag102
(g123
g104
NtRp1483
(dp1484
g107
(dp1485
g134
g135
ssg116
g1474
sg109
(lp1486
S':'
asbag102
(g123
g104
NtRp1487
(dp1488
g107
(dp1489
sg116
g1474
sg109
(lp1490
g102
(g103
g104
NtRp1491
(dp1492
g107
(dp1493
g115
I4
ssg116
g1487
sg109
(lp1494
g145
asbasbasbag102
(g118
g104
NtRp1495
(dp1496
g107
(dp1497
sg116
g682
sg109
(lp1498
g102
(g123
g104
NtRp1499
(dp1500
g107
(dp1501
g127
g128
ssg116
g1495
sg109
(lp1502
S'wsgi_multithread'
p1503
asbag102
(g123
g104
NtRp1504
(dp1505
g107
(dp1506
g134
g135
ssg116
g1495
sg109
(lp1507
S':'
asbag102
(g123
g104
NtRp1508
(dp1509
g107
(dp1510
sg116
g1495
sg109
(lp1511
g102
(g103
g104
NtRp1512
(dp1513
g107
(dp1514
g115
I4
ssg116
g1508
sg109
(lp1515
S'True'
p1516
asbasbasbag102
(g118
g104
NtRp1517
(dp1518
g107
(dp1519
sg116
g682
sg109
(lp1520
g102
(g123
g104
NtRp1521
(dp1522
g107
(dp1523
g127
g128
ssg116
g1517
sg109
(lp1524
S'wsgi_run_once'
p1525
asbag102
(g123
g104
NtRp1526
(dp1527
g107
(dp1528
g134
g135
ssg116
g1517
sg109
(lp1529
S':'
asbag102
(g123
g104
NtRp1530
(dp1531
g107
(dp1532
sg116
g1517
sg109
(lp1533
g102
(g103
g104
NtRp1534
(dp1535
g107
(dp1536
g115
I4
ssg116
g1530
sg109
(lp1537
g145
asbasbasbag102
(g118
g104
NtRp1538
(dp1539
g107
(dp1540
sg116
g682
sg109
(lp1541
g102
(g123
g104
NtRp1542
(dp1543
g107
(dp1544
g127
g128
ssg116
g1538
sg109
(lp1545
S'wsgi_url_scheme'
p1546
asbag102
(g123
g104
NtRp1547
(dp1548
g107
(dp1549
g134
g135
ssg116
g1538
sg109
(lp1550
S':'
asbag102
(g123
g104
NtRp1551
(dp1552
g107
(dp1553
sg116
g1538
sg109
(lp1554
g102
(g103
g104
NtRp1555
(dp1556
g107
(dp1557
g115
I4
ssg116
g1551
sg109
(lp1558
S'http'
p1559
asbasbasbag102
(g118
g104
NtRp1560
(dp1561
g107
(dp1562
sg116
g682
sg109
(lp1563
g102
(g123
g104
NtRp1564
(dp1565
g107
(dp1566
g127
g128
ssg116
g1560
sg109
(lp1567
S'wsgi_version'
p1568
asbag102
(g123
g104
NtRp1569
(dp1570
g107
(dp1571
g134
g135
ssg116
g1560
sg109
(lp1572
S':'
asbag102
(g123
g104
NtRp1573
(dp1574
g107
(dp1575
sg116
g1560
sg109
(lp1576
g102
(g103
g104
NtRp1577
(dp1578
g107
(dp1579
g115
I4
ssg116
g1573
sg109
(lp1580
g102
(g111
g104
NtRp1581
(dp1582
g107
(dp1583
g115
I3
ssg116
Nsg109
(lp1584
g102
(g118
g104
NtRp1585
(dp1586
g107
(dp1587
sg116
g1581
sg109
(lp1588
g102
(g123
g104
NtRp1589
(dp1590
g107
(dp1591
sg116
g1585
sg109
(lp1592
g102
(g103
g104
NtRp1593
(dp1594
g107
(dp1595
g115
I3
ssg116
g1589
sg109
(lp1596
S'1'
asbasbasbag102
(g118
g104
NtRp1597
(dp1598
g107
(dp1599
sg116
g1581
sg109
(lp1600
g102
(g123
g104
NtRp1601
(dp1602
g107
(dp1603
sg116
g1597
sg109
(lp1604
g102
(g103
g104
NtRp1605
(dp1606
g107
(dp1607
g115
I3
ssg116
g1601
sg109
(lp1608
S'0'
asbasbasbasbasbasbasbasbasbasbasbag102
(g118
g104
NtRp1609
(dp1610
g107
(dp1611
sg116
g112
sg109
(lp1612
g102
(g123
g104
NtRp1613
(dp1614
g107
(dp1615
g127
g128
ssg116
g1609
sg109
(lp1616
S'extension'
p1617
asbag102
(g123
g104
NtRp1618
(dp1619
g107
(dp1620
g134
g135
ssg116
g1609
sg109
(lp1621
S':'
asbag102
(g123
g104
NtRp1622
(dp1623
g107
(dp1624
sg116
g1609
sg109
(lp1625
g102
(g103
g104
NtRp1626
(dp1627
g107
(dp1628
g115
I5
ssg116
g1622
sg109
(lp1629
S'html'
p1630
asbasbasbag102
(g118
g104
NtRp1631
(dp1632
g107
(dp1633
sg116
g112
sg109
(lp1634
g102
(g123
g104
NtRp1635
(dp1636
g107
(dp1637
g127
g128
ssg116
g1631
sg109
(lp1638
S'folder'
p1639
asbag102
(g123
g104
NtRp1640
(dp1641
g107
(dp1642
g134
g135
ssg116
g1631
sg109
(lp1643
S':'
asbag102
(g123
g104
NtRp1644
(dp1645
g107
(dp1646
sg116
g1631
sg109
(lp1647
g102
(g103
g104
NtRp1648
(dp1649
g107
(dp1650
g115
I5
ssg116
g1644
sg109
(lp1651
S'/home/pooja/web2py/applications/newsapp/'
p1652
asbasbasbag102
(g118
g104
NtRp1653
(dp1654
g107
(dp1655
sg116
g112
sg109
(lp1656
g102
(g123
g104
NtRp1657
(dp1658
g107
(dp1659
g127
g128
ssg116
g1653
sg109
(lp1660
S'function'
p1661
asbag102
(g123
g104
NtRp1662
(dp1663
g107
(dp1664
g134
g135
ssg116
g1653
sg109
(lp1665
S':'
asbag102
(g123
g104
NtRp1666
(dp1667
g107
(dp1668
sg116
g1653
sg109
(lp1669
g102
(g103
g104
NtRp1670
(dp1671
g107
(dp1672
g115
I5
ssg116
g1666
sg109
(lp1673
S'fbuser'
p1674
asbasbasbag102
(g118
g104
NtRp1675
(dp1676
g107
(dp1677
sg116
g112
sg109
(lp1678
g102
(g123
g104
NtRp1679
(dp1680
g107
(dp1681
g127
g128
ssg116
g1675
sg109
(lp1682
S'get_vars'
p1683
asbag102
(g123
g104
NtRp1684
(dp1685
g107
(dp1686
g134
g135
ssg116
g1675
sg109
(lp1687
S':'
asbag102
(g123
g104
NtRp1688
(dp1689
g107
(dp1690
sg116
g1675
sg109
(lp1691
g102
(g103
g104
NtRp1692
(dp1693
g107
(dp1694
g115
I5
ssg116
g1688
sg109
(lp1695
g102
(g111
g104
NtRp1696
(dp1697
g107
(dp1698
g115
I4
ssg116
Nsg109
(lp1699
sbasbasbasbag102
(g118
g104
NtRp1700
(dp1701
g107
(dp1702
sg116
g112
sg109
(lp1703
g102
(g123
g104
NtRp1704
(dp1705
g107
(dp1706
g127
g128
ssg116
g1700
sg109
(lp1707
S'global_settings'
p1708
asbag102
(g123
g104
NtRp1709
(dp1710
g107
(dp1711
g134
g135
ssg116
g1700
sg109
(lp1712
S':'
asbag102
(g123
g104
NtRp1713
(dp1714
g107
(dp1715
sg116
g1700
sg109
(lp1716
g102
(g103
g104
NtRp1717
(dp1718
g107
(dp1719
g115
I5
ssg116
g1713
sg109
(lp1720
g102
(g111
g104
NtRp1721
(dp1722
g107
(dp1723
g115
I4
ssg116
Nsg109
(lp1724
g102
(g118
g104
NtRp1725
(dp1726
g107
(dp1727
sg116
g1721
sg109
(lp1728
g102
(g123
g104
NtRp1729
(dp1730
g107
(dp1731
g127
g128
ssg116
g1725
sg109
(lp1732
g694
asbag102
(g123
g104
NtRp1733
(dp1734
g107
(dp1735
g134
g135
ssg116
g1725
sg109
(lp1736
S':'
asbag102
(g123
g104
NtRp1737
(dp1738
g107
(dp1739
sg116
g1725
sg109
(lp1740
g102
(g103
g104
NtRp1741
(dp1742
g107
(dp1743
g115
I4
ssg116
g1737
sg109
(lp1744
S"set(['/home/pooja/web2py/applications/admin/', '/home/pooja/web2py/applications/newsapp/', '/home/pooja/web2py/applications/welcome/'])"
p1745
asbasbasbag102
(g118
g104
NtRp1746
(dp1747
g107
(dp1748
sg116
g1721
sg109
(lp1749
g102
(g123
g104
NtRp1750
(dp1751
g107
(dp1752
g127
g128
ssg116
g1746
sg109
(lp1753
g716
asbag102
(g123
g104
NtRp1754
(dp1755
g107
(dp1756
g134
g135
ssg116
g1746
sg109
(lp1757
S':'
asbag102
(g123
g104
NtRp1758
(dp1759
g107
(dp1760
sg116
g1746
sg109
(lp1761
g102
(g103
g104
NtRp1762
(dp1763
g107
(dp1764
g115
I4
ssg116
g1758
sg109
(lp1765
g729
asbasbasbag102
(g118
g104
NtRp1766
(dp1767
g107
(dp1768
sg116
g1721
sg109
(lp1769
g102
(g123
g104
NtRp1770
(dp1771
g107
(dp1772
g127
g128
ssg116
g1766
sg109
(lp1773
g738
asbag102
(g123
g104
NtRp1774
(dp1775
g107
(dp1776
g134
g135
ssg116
g1766
sg109
(lp1777
S':'
asbag102
(g123
g104
NtRp1778
(dp1779
g107
(dp1780
sg116
g1766
sg109
(lp1781
g102
(g103
g104
NtRp1782
(dp1783
g107
(dp1784
g115
I4
ssg116
g1778
sg109
(lp1785
g102
(g111
g104
NtRp1786
(dp1787
g107
(dp1788
g115
I3
ssg116
Nsg109
(lp1789
sbasbasbasbag102
(g118
g104
NtRp1790
(dp1791
g107
(dp1792
sg116
g1721
sg109
(lp1793
g102
(g123
g104
NtRp1794
(dp1795
g107
(dp1796
g127
g128
ssg116
g1790
sg109
(lp1797
g763
asbag102
(g123
g104
NtRp1798
(dp1799
g107
(dp1800
g134
g135
ssg116
g1790
sg109
(lp1801
S':'
asbag102
(g123
g104
NtRp1802
(dp1803
g107
(dp1804
sg116
g1790
sg109
(lp1805
g102
(g103
g104
NtRp1806
(dp1807
g107
(dp1808
g115
I4
ssg116
g1802
sg109
(lp1809
S"<Values at 0x7f8ec06a5908: {'verbose': False, 'ip': '127.0.0.1', 'shutdown_timeout': 5, 'taskbar': False, 'nocron': False, 'pid_filename': 'httpserver.pid', 'maxthreads': None, 'softcron': False, 'server_name': 'pooja-HP-15-Notebook-PC', 'bpython': False, 'nogui': False, 'port': 8000, 'extcron': False, 'debuglevel': 30, 'test': None, 'folder': '/home/pooja/web2py', 'config': '', 'import_models': False, 'winservice': '', 'shell': None, 'run': '', 'log_filename': 'httpserver.log', 'args': [''], 'socket_timeout': 5, 'ssl_ca_certificate': None, 'scheduler': None, 'profiler_filename': None, 'ssl_private_key': '', 'password': '<ask>', 'request_queue_size': 5, 'ssl_certificate': '', 'cronjob': False, 'numthreads': None, 'quiet': False, 'interfaces': None, 'minthreads': None, 'timeout': 10, 'plain': False, 'nobanner': False}>"
p1810
asbasbasbag102
(g118
g104
NtRp1811
(dp1812
g107
(dp1813
sg116
g1721
sg109
(lp1814
g102
(g123
g104
NtRp1815
(dp1816
g107
(dp1817
g127
g128
ssg116
g1811
sg109
(lp1818
g785
asbag102
(g123
g104
NtRp1819
(dp1820
g107
(dp1821
g134
g135
ssg116
g1811
sg109
(lp1822
S':'
asbag102
(g123
g104
NtRp1823
(dp1824
g107
(dp1825
sg116
g1811
sg109
(lp1826
g102
(g103
g104
NtRp1827
(dp1828
g107
(dp1829
g115
I4
ssg116
g1823
sg109
(lp1830
S'set([])'
p1831
asbasbasbag102
(g118
g104
NtRp1832
(dp1833
g107
(dp1834
sg116
g1721
sg109
(lp1835
g102
(g123
g104
NtRp1836
(dp1837
g107
(dp1838
g127
g128
ssg116
g1832
sg109
(lp1839
g807
asbag102
(g123
g104
NtRp1840
(dp1841
g107
(dp1842
g134
g135
ssg116
g1832
sg109
(lp1843
S':'
asbag102
(g123
g104
NtRp1844
(dp1845
g107
(dp1846
sg116
g1832
sg109
(lp1847
g102
(g103
g104
NtRp1848
(dp1849
g107
(dp1850
g115
I4
ssg116
g1844
sg109
(lp1851
g145
asbasbasbag102
(g118
g104
NtRp1852
(dp1853
g107
(dp1854
sg116
g1721
sg109
(lp1855
g102
(g123
g104
NtRp1856
(dp1857
g107
(dp1858
g127
g128
ssg116
g1852
sg109
(lp1859
g828
asbag102
(g123
g104
NtRp1860
(dp1861
g107
(dp1862
g134
g135
ssg116
g1852
sg109
(lp1863
S':'
asbag102
(g123
g104
NtRp1864
(dp1865
g107
(dp1866
sg116
g1852
sg109
(lp1867
g102
(g103
g104
NtRp1868
(dp1869
g107
(dp1870
g115
I4
ssg116
g1864
sg109
(lp1871
g841
asbasbasbag102
(g118
g104
NtRp1872
(dp1873
g107
(dp1874
sg116
g1721
sg109
(lp1875
g102
(g123
g104
NtRp1876
(dp1877
g107
(dp1878
g127
g128
ssg116
g1872
sg109
(lp1879
g1026
asbag102
(g123
g104
NtRp1880
(dp1881
g107
(dp1882
g134
g135
ssg116
g1872
sg109
(lp1883
S':'
asbag102
(g123
g104
NtRp1884
(dp1885
g107
(dp1886
sg116
g1872
sg109
(lp1887
g102
(g103
g104
NtRp1888
(dp1889
g107
(dp1890
g115
I4
ssg116
g1884
sg109
(lp1891
g145
asbasbasbag102
(g118
g104
NtRp1892
(dp1893
g107
(dp1894
sg116
g1721
sg109
(lp1895
g102
(g123
g104
NtRp1896
(dp1897
g107
(dp1898
g127
g128
ssg116
g1892
sg109
(lp1899
g1047
asbag102
(g123
g104
NtRp1900
(dp1901
g107
(dp1902
g134
g135
ssg116
g1892
sg109
(lp1903
S':'
asbag102
(g123
g104
NtRp1904
(dp1905
g107
(dp1906
sg116
g1892
sg109
(lp1907
g102
(g103
g104
NtRp1908
(dp1909
g107
(dp1910
g115
I4
ssg116
g1904
sg109
(lp1911
g145
asbasbasbag102
(g118
g104
NtRp1912
(dp1913
g107
(dp1914
sg116
g1721
sg109
(lp1915
g102
(g123
g104
NtRp1916
(dp1917
g107
(dp1918
g127
g128
ssg116
g1912
sg109
(lp1919
g1285
asbag102
(g123
g104
NtRp1920
(dp1921
g107
(dp1922
g134
g135
ssg116
g1912
sg109
(lp1923
S':'
asbag102
(g123
g104
NtRp1924
(dp1925
g107
(dp1926
sg116
g1912
sg109
(lp1927
g102
(g103
g104
NtRp1928
(dp1929
g107
(dp1930
g115
I4
ssg116
g1924
sg109
(lp1931
g1298
asbasbasbag102
(g118
g104
NtRp1932
(dp1933
g107
(dp1934
sg116
g1721
sg109
(lp1935
g102
(g123
g104
NtRp1936
(dp1937
g107
(dp1938
g127
g128
ssg116
g1932
sg109
(lp1939
g1328
asbag102
(g123
g104
NtRp1940
(dp1941
g107
(dp1942
g134
g135
ssg116
g1932
sg109
(lp1943
S':'
asbag102
(g123
g104
NtRp1944
(dp1945
g107
(dp1946
sg116
g1932
sg109
(lp1947
g102
(g103
g104
NtRp1948
(dp1949
g107
(dp1950
g115
I4
ssg116
g1944
sg109
(lp1951
g102
(g111
g104
NtRp1952
(dp1953
g107
(dp1954
g115
I3
ssg116
Nsg109
(lp1955
g102
(g118
g104
NtRp1956
(dp1957
g107
(dp1958
sg116
g1952
sg109
(lp1959
g102
(g123
g104
NtRp1960
(dp1961
g107
(dp1962
sg116
g1956
sg109
(lp1963
g102
(g103
g104
NtRp1964
(dp1965
g107
(dp1966
g115
I3
ssg116
g1960
sg109
(lp1967
S'1'
asbasbasbag102
(g118
g104
NtRp1968
(dp1969
g107
(dp1970
sg116
g1952
sg109
(lp1971
g102
(g123
g104
NtRp1972
(dp1973
g107
(dp1974
sg116
g1968
sg109
(lp1975
g102
(g103
g104
NtRp1976
(dp1977
g107
(dp1978
g115
I3
ssg116
g1972
sg109
(lp1979
S'99'
p1980
asbasbasbag102
(g118
g104
NtRp1981
(dp1982
g107
(dp1983
sg116
g1952
sg109
(lp1984
g102
(g123
g104
NtRp1985
(dp1986
g107
(dp1987
sg116
g1981
sg109
(lp1988
g102
(g103
g104
NtRp1989
(dp1990
g107
(dp1991
g115
I3
ssg116
g1985
sg109
(lp1992
S'7'
asbasbasbag102
(g118
g104
NtRp1993
(dp1994
g107
(dp1995
sg116
g1952
sg109
(lp1996
g102
(g123
g104
NtRp1997
(dp1998
g107
(dp1999
sg116
g1993
sg109
(lp2000
g102
(g103
g104
NtRp2001
(dp2002
g107
(dp2003
g115
I3
ssg116
g1997
sg109
(lp2004
S'datetime.datetime(2012, 3, 4, 22, 12, 8)'
p2005
asbasbasbag102
(g118
g104
NtRp2006
(dp2007
g107
(dp2008
sg116
g1952
sg109
(lp2009
g102
(g123
g104
NtRp2010
(dp2011
g107
(dp2012
sg116
g2006
sg109
(lp2013
g102
(g103
g104
NtRp2014
(dp2015
g107
(dp2016
g115
I3
ssg116
g2010
sg109
(lp2017
g1407
asbasbasbasbasbasbasbasbasbasbasbag102
(g118
g104
NtRp2018
(dp2019
g107
(dp2020
sg116
g112
sg109
(lp2021
g102
(g123
g104
NtRp2022
(dp2023
g107
(dp2024
g127
g128
ssg116
g2018
sg109
(lp2025
S'is_https'
p2026
asbag102
(g123
g104
NtRp2027
(dp2028
g107
(dp2029
g134
g135
ssg116
g2018
sg109
(lp2030
S':'
asbag102
(g123
g104
NtRp2031
(dp2032
g107
(dp2033
sg116
g2018
sg109
(lp2034
g102
(g103
g104
NtRp2035
(dp2036
g107
(dp2037
g115
I5
ssg116
g2031
sg109
(lp2038
g145
asbasbasbag102
(g118
g104
NtRp2039
(dp2040
g107
(dp2041
sg116
g112
sg109
(lp2042
g102
(g123
g104
NtRp2043
(dp2044
g107
(dp2045
g127
g128
ssg116
g2039
sg109
(lp2046
S'is_local'
p2047
asbag102
(g123
g104
NtRp2048
(dp2049
g107
(dp2050
g134
g135
ssg116
g2039
sg109
(lp2051
S':'
asbag102
(g123
g104
NtRp2052
(dp2053
g107
(dp2054
sg116
g2039
sg109
(lp2055
g102
(g103
g104
NtRp2056
(dp2057
g107
(dp2058
g115
I5
ssg116
g2052
sg109
(lp2059
g1516
asbasbasbag102
(g118
g104
NtRp2060
(dp2061
g107
(dp2062
sg116
g112
sg109
(lp2063
g102
(g123
g104
NtRp2064
(dp2065
g107
(dp2066
g127
g128
ssg116
g2060
sg109
(lp2067
S'is_restful'
p2068
asbag102
(g123
g104
NtRp2069
(dp2070
g107
(dp2071
g134
g135
ssg116
g2060
sg109
(lp2072
S':'
asbag102
(g123
g104
NtRp2073
(dp2074
g107
(dp2075
sg116
g2060
sg109
(lp2076
g102
(g103
g104
NtRp2077
(dp2078
g107
(dp2079
g115
I5
ssg116
g2073
sg109
(lp2080
g145
asbasbasbag102
(g118
g104
NtRp2081
(dp2082
g107
(dp2083
sg116
g112
sg109
(lp2084
g102
(g123
g104
NtRp2085
(dp2086
g107
(dp2087
g127
g128
ssg116
g2081
sg109
(lp2088
S'now'
p2089
asbag102
(g123
g104
NtRp2090
(dp2091
g107
(dp2092
g134
g135
ssg116
g2081
sg109
(lp2093
S':'
asbag102
(g123
g104
NtRp2094
(dp2095
g107
(dp2096
sg116
g2081
sg109
(lp2097
g102
(g103
g104
NtRp2098
(dp2099
g107
(dp2100
g115
I5
ssg116
g2094
sg109
(lp2101
S'datetime.datetime(2015, 5, 9, 17, 4, 55, 827130)'
p2102
asbasbasbag102
(g118
g104
NtRp2103
(dp2104
g107
(dp2105
sg116
g112
sg109
(lp2106
g102
(g123
g104
NtRp2107
(dp2108
g107
(dp2109
g127
g128
ssg116
g2103
sg109
(lp2110
S'post_vars'
p2111
asbag102
(g123
g104
NtRp2112
(dp2113
g107
(dp2114
g134
g135
ssg116
g2103
sg109
(lp2115
S':'
asbag102
(g123
g104
NtRp2116
(dp2117
g107
(dp2118
sg116
g2103
sg109
(lp2119
g102
(g103
g104
NtRp2120
(dp2121
g107
(dp2122
g115
I5
ssg116
g2116
sg109
(lp2123
g102
(g111
g104
NtRp2124
(dp2125
g107
(dp2126
g115
I4
ssg116
Nsg109
(lp2127
sbasbasbasbag102
(g118
g104
NtRp2128
(dp2129
g107
(dp2130
sg116
g112
sg109
(lp2131
g102
(g123
g104
NtRp2132
(dp2133
g107
(dp2134
g127
g128
ssg116
g2128
sg109
(lp2135
g87
asbag102
(g123
g104
NtRp2136
(dp2137
g107
(dp2138
g134
g135
ssg116
g2128
sg109
(lp2139
S':'
asbag102
(g123
g104
NtRp2140
(dp2141
g107
(dp2142
sg116
g2128
sg109
(lp2143
g102
(g103
g104
NtRp2144
(dp2145
g107
(dp2146
g115
I5
ssg116
g2140
sg109
(lp2147
S'/newsapp/default/fbuser'
p2148
asbasbasbag102
(g118
g104
NtRp2149
(dp2150
g107
(dp2151
sg116
g112
sg109
(lp2152
g102
(g123
g104
NtRp2153
(dp2154
g107
(dp2155
g127
g128
ssg116
g2149
sg109
(lp2156
S'utcnow'
p2157
asbag102
(g123
g104
NtRp2158
(dp2159
g107
(dp2160
g134
g135
ssg116
g2149
sg109
(lp2161
S':'
asbag102
(g123
g104
NtRp2162
(dp2163
g107
(dp2164
sg116
g2149
sg109
(lp2165
g102
(g103
g104
NtRp2166
(dp2167
g107
(dp2168
g115
I5
ssg116
g2162
sg109
(lp2169
S'datetime.datetime(2015, 5, 9, 11, 34, 55, 827159)'
p2170
asbasbasbag102
(g118
g104
NtRp2171
(dp2172
g107
(dp2173
sg116
g112
sg109
(lp2174
g102
(g123
g104
NtRp2175
(dp2176
g107
(dp2177
g127
g128
ssg116
g2171
sg109
(lp2178
S'uuid'
p2179
asbag102
(g123
g104
NtRp2180
(dp2181
g107
(dp2182
g134
g135
ssg116
g2171
sg109
(lp2183
S':'
asbag102
(g123
g104
NtRp2184
(dp2185
g107
(dp2186
sg116
g2171
sg109
(lp2187
g102
(g103
g104
NtRp2188
(dp2189
g107
(dp2190
g115
I5
ssg116
g2184
sg109
(lp2191
S'newsapp/127.0.0.1.2015-05-09.17-04-55.09d0b475-3817-4d1b-98f8-3c1f643322a8'
p2192
asbasbasbag102
(g118
g104
NtRp2193
(dp2194
g107
(dp2195
sg116
g112
sg109
(lp2196
g102
(g123
g104
NtRp2197
(dp2198
g107
(dp2199
g127
g128
ssg116
g2193
sg109
(lp2200
S'vars'
p2201
asbag102
(g123
g104
NtRp2202
(dp2203
g107
(dp2204
g134
g135
ssg116
g2193
sg109
(lp2205
S':'
asbag102
(g123
g104
NtRp2206
(dp2207
g107
(dp2208
sg116
g2193
sg109
(lp2209
g102
(g103
g104
NtRp2210
(dp2211
g107
(dp2212
g115
I5
ssg116
g2206
sg109
(lp2213
g102
(g111
g104
NtRp2214
(dp2215
g107
(dp2216
g115
I4
ssg116
Nsg109
(lp2217
sbasbasbasbag102
(g118
g104
NtRp2218
(dp2219
g107
(dp2220
sg116
g112
sg109
(lp2221
g102
(g123
g104
NtRp2222
(dp2223
g107
(dp2224
g127
g128
ssg116
g2218
sg109
(lp2225
S'wsgi'
p2226
asbag102
(g123
g104
NtRp2227
(dp2228
g107
(dp2229
g134
g135
ssg116
g2218
sg109
(lp2230
S':'
asbag102
(g123
g104
NtRp2231
(dp2232
g107
(dp2233
sg116
g2218
sg109
(lp2234
g102
(g103
g104
NtRp2235
(dp2236
g107
(dp2237
g115
I5
ssg116
g2231
sg109
(lp2238
g102
(g111
g104
NtRp2239
(dp2240
g107
(dp2241
g115
I4
ssg116
Nsg109
(lp2242
g102
(g118
g104
NtRp2243
(dp2244
g107
(dp2245
sg116
g2239
sg109
(lp2246
g102
(g123
g104
NtRp2247
(dp2248
g107
(dp2249
g127
g128
ssg116
g2243
sg109
(lp2250
S'environ'
p2251
asbag102
(g123
g104
NtRp2252
(dp2253
g107
(dp2254
g134
g135
ssg116
g2243
sg109
(lp2255
S':'
asbag102
(g123
g104
NtRp2256
(dp2257
g107
(dp2258
sg116
g2243
sg109
(lp2259
g102
(g103
g104
NtRp2260
(dp2261
g107
(dp2262
g115
I4
ssg116
g2256
sg109
(lp2263
g102
(g111
g104
NtRp2264
(dp2265
g107
(dp2266
g115
I3
ssg116
Nsg109
(lp2267
g102
(g118
g104
NtRp2268
(dp2269
g107
(dp2270
sg116
g2264
sg109
(lp2271
g102
(g123
g104
NtRp2272
(dp2273
g107
(dp2274
g127
g128
ssg116
g2268
sg109
(lp2275
S'HTTP_ACCEPT'
p2276
asbag102
(g123
g104
NtRp2277
(dp2278
g107
(dp2279
g134
g135
ssg116
g2268
sg109
(lp2280
S':'
asbag102
(g123
g104
NtRp2281
(dp2282
g107
(dp2283
sg116
g2268
sg109
(lp2284
g102
(g103
g104
NtRp2285
(dp2286
g107
(dp2287
g115
I3
ssg116
g2281
sg109
(lp2288
g863
asbasbasbag102
(g118
g104
NtRp2289
(dp2290
g107
(dp2291
sg116
g2264
sg109
(lp2292
g102
(g123
g104
NtRp2293
(dp2294
g107
(dp2295
g127
g128
ssg116
g2289
sg109
(lp2296
S'HTTP_ACCEPT_ENCODING'
p2297
asbag102
(g123
g104
NtRp2298
(dp2299
g107
(dp2300
g134
g135
ssg116
g2289
sg109
(lp2301
S':'
asbag102
(g123
g104
NtRp2302
(dp2303
g107
(dp2304
sg116
g2289
sg109
(lp2305
g102
(g103
g104
NtRp2306
(dp2307
g107
(dp2308
g115
I3
ssg116
g2302
sg109
(lp2309
g885
asbasbasbag102
(g118
g104
NtRp2310
(dp2311
g107
(dp2312
sg116
g2264
sg109
(lp2313
g102
(g123
g104
NtRp2314
(dp2315
g107
(dp2316
g127
g128
ssg116
g2310
sg109
(lp2317
S'HTTP_ACCEPT_LANGUAGE'
p2318
asbag102
(g123
g104
NtRp2319
(dp2320
g107
(dp2321
g134
g135
ssg116
g2310
sg109
(lp2322
S':'
asbag102
(g123
g104
NtRp2323
(dp2324
g107
(dp2325
sg116
g2310
sg109
(lp2326
g102
(g103
g104
NtRp2327
(dp2328
g107
(dp2329
g115
I3
ssg116
g2323
sg109
(lp2330
g907
asbasbasbag102
(g118
g104
NtRp2331
(dp2332
g107
(dp2333
sg116
g2264
sg109
(lp2334
g102
(g123
g104
NtRp2335
(dp2336
g107
(dp2337
g127
g128
ssg116
g2331
sg109
(lp2338
S'HTTP_CONNECTION'
p2339
asbag102
(g123
g104
NtRp2340
(dp2341
g107
(dp2342
g134
g135
ssg116
g2331
sg109
(lp2343
S':'
asbag102
(g123
g104
NtRp2344
(dp2345
g107
(dp2346
sg116
g2331
sg109
(lp2347
g102
(g103
g104
NtRp2348
(dp2349
g107
(dp2350
g115
I3
ssg116
g2344
sg109
(lp2351
g929
asbasbasbag102
(g118
g104
NtRp2352
(dp2353
g107
(dp2354
sg116
g2264
sg109
(lp2355
g102
(g123
g104
NtRp2356
(dp2357
g107
(dp2358
g127
g128
ssg116
g2352
sg109
(lp2359
S'HTTP_COOKIE'
p2360
asbag102
(g123
g104
NtRp2361
(dp2362
g107
(dp2363
g134
g135
ssg116
g2352
sg109
(lp2364
S':'
asbag102
(g123
g104
NtRp2365
(dp2366
g107
(dp2367
sg116
g2352
sg109
(lp2368
g102
(g103
g104
NtRp2369
(dp2370
g107
(dp2371
g115
I3
ssg116
g2365
sg109
(lp2372
g951
asbasbasbag102
(g118
g104
NtRp2373
(dp2374
g107
(dp2375
sg116
g2264
sg109
(lp2376
g102
(g123
g104
NtRp2377
(dp2378
g107
(dp2379
g127
g128
ssg116
g2373
sg109
(lp2380
S'HTTP_HOST'
p2381
asbag102
(g123
g104
NtRp2382
(dp2383
g107
(dp2384
g134
g135
ssg116
g2373
sg109
(lp2385
S':'
asbag102
(g123
g104
NtRp2386
(dp2387
g107
(dp2388
sg116
g2373
sg109
(lp2389
g102
(g103
g104
NtRp2390
(dp2391
g107
(dp2392
g115
I3
ssg116
g2386
sg109
(lp2393
g973
asbasbasbag102
(g118
g104
NtRp2394
(dp2395
g107
(dp2396
sg116
g2264
sg109
(lp2397
g102
(g123
g104
NtRp2398
(dp2399
g107
(dp2400
g127
g128
ssg116
g2394
sg109
(lp2401
S'HTTP_REFERER'
p2402
asbag102
(g123
g104
NtRp2403
(dp2404
g107
(dp2405
g134
g135
ssg116
g2394
sg109
(lp2406
S':'
asbag102
(g123
g104
NtRp2407
(dp2408
g107
(dp2409
sg116
g2394
sg109
(lp2410
g102
(g103
g104
NtRp2411
(dp2412
g107
(dp2413
g115
I3
ssg116
g2407
sg109
(lp2414
g995
asbasbasbag102
(g118
g104
NtRp2415
(dp2416
g107
(dp2417
sg116
g2264
sg109
(lp2418
g102
(g123
g104
NtRp2419
(dp2420
g107
(dp2421
g127
g128
ssg116
g2415
sg109
(lp2422
S'HTTP_USER_AGENT'
p2423
asbag102
(g123
g104
NtRp2424
(dp2425
g107
(dp2426
g134
g135
ssg116
g2415
sg109
(lp2427
S':'
asbag102
(g123
g104
NtRp2428
(dp2429
g107
(dp2430
sg116
g2415
sg109
(lp2431
g102
(g103
g104
NtRp2432
(dp2433
g107
(dp2434
g115
I3
ssg116
g2428
sg109
(lp2435
g1017
asbasbasbag102
(g118
g104
NtRp2436
(dp2437
g107
(dp2438
sg116
g2264
sg109
(lp2439
g102
(g123
g104
NtRp2440
(dp2441
g107
(dp2442
g127
g128
ssg116
g2436
sg109
(lp2443
S'PATH_INFO'
p2444
asbag102
(g123
g104
NtRp2445
(dp2446
g107
(dp2447
g134
g135
ssg116
g2436
sg109
(lp2448
S':'
asbag102
(g123
g104
NtRp2449
(dp2450
g107
(dp2451
sg116
g2436
sg109
(lp2452
g102
(g103
g104
NtRp2453
(dp2454
g107
(dp2455
g115
I3
ssg116
g2449
sg109
(lp2456
g1081
asbasbasbag102
(g118
g104
NtRp2457
(dp2458
g107
(dp2459
sg116
g2264
sg109
(lp2460
g102
(g123
g104
NtRp2461
(dp2462
g107
(dp2463
g127
g128
ssg116
g2457
sg109
(lp2464
S'QUERY_STRING'
p2465
asbag102
(g123
g104
NtRp2466
(dp2467
g107
(dp2468
g134
g135
ssg116
g2457
sg109
(lp2469
S':'
asbag102
(g123
g104
NtRp2470
(dp2471
g107
(dp2472
sg116
g2457
sg109
(lp2473
g102
(g103
g104
NtRp2474
(dp2475
g107
(dp2476
g115
I3
ssg116
g2470
sg109
(lp2477
S''
asbasbasbag102
(g118
g104
NtRp2478
(dp2479
g107
(dp2480
sg116
g2264
sg109
(lp2481
g102
(g123
g104
NtRp2482
(dp2483
g107
(dp2484
g127
g128
ssg116
g2478
sg109
(lp2485
S'REMOTE_ADDR'
p2486
asbag102
(g123
g104
NtRp2487
(dp2488
g107
(dp2489
g134
g135
ssg116
g2478
sg109
(lp2490
S':'
asbag102
(g123
g104
NtRp2491
(dp2492
g107
(dp2493
sg116
g2478
sg109
(lp2494
g102
(g103
g104
NtRp2495
(dp2496
g107
(dp2497
g115
I3
ssg116
g2491
sg109
(lp2498
g235
asbasbasbag102
(g118
g104
NtRp2499
(dp2500
g107
(dp2501
sg116
g2264
sg109
(lp2502
g102
(g123
g104
NtRp2503
(dp2504
g107
(dp2505
g127
g128
ssg116
g2499
sg109
(lp2506
S'REMOTE_PORT'
p2507
asbag102
(g123
g104
NtRp2508
(dp2509
g107
(dp2510
g134
g135
ssg116
g2499
sg109
(lp2511
S':'
asbag102
(g123
g104
NtRp2512
(dp2513
g107
(dp2514
sg116
g2499
sg109
(lp2515
g102
(g103
g104
NtRp2516
(dp2517
g107
(dp2518
g115
I3
ssg116
g2512
sg109
(lp2519
g1145
asbasbasbag102
(g118
g104
NtRp2520
(dp2521
g107
(dp2522
sg116
g2264
sg109
(lp2523
g102
(g123
g104
NtRp2524
(dp2525
g107
(dp2526
g127
g128
ssg116
g2520
sg109
(lp2527
S'REQUEST_METHOD'
p2528
asbag102
(g123
g104
NtRp2529
(dp2530
g107
(dp2531
g134
g135
ssg116
g2520
sg109
(lp2532
S':'
asbag102
(g123
g104
NtRp2533
(dp2534
g107
(dp2535
sg116
g2520
sg109
(lp2536
g102
(g103
g104
NtRp2537
(dp2538
g107
(dp2539
g115
I3
ssg116
g2533
sg109
(lp2540
g1167
asbasbasbag102
(g118
g104
NtRp2541
(dp2542
g107
(dp2543
sg116
g2264
sg109
(lp2544
g102
(g123
g104
NtRp2545
(dp2546
g107
(dp2547
g127
g128
ssg116
g2541
sg109
(lp2548
S'SCRIPT_NAME'
p2549
asbag102
(g123
g104
NtRp2550
(dp2551
g107
(dp2552
g134
g135
ssg116
g2541
sg109
(lp2553
S':'
asbag102
(g123
g104
NtRp2554
(dp2555
g107
(dp2556
sg116
g2541
sg109
(lp2557
g102
(g103
g104
NtRp2558
(dp2559
g107
(dp2560
g115
I3
ssg116
g2554
sg109
(lp2561
S''
asbasbasbag102
(g118
g104
NtRp2562
(dp2563
g107
(dp2564
sg116
g2264
sg109
(lp2565
g102
(g123
g104
NtRp2566
(dp2567
g107
(dp2568
g127
g128
ssg116
g2562
sg109
(lp2569
S'SERVER_NAME'
p2570
asbag102
(g123
g104
NtRp2571
(dp2572
g107
(dp2573
g134
g135
ssg116
g2562
sg109
(lp2574
S':'
asbag102
(g123
g104
NtRp2575
(dp2576
g107
(dp2577
sg116
g2562
sg109
(lp2578
g102
(g103
g104
NtRp2579
(dp2580
g107
(dp2581
g115
I3
ssg116
g2575
sg109
(lp2582
g1210
asbasbasbag102
(g118
g104
NtRp2583
(dp2584
g107
(dp2585
sg116
g2264
sg109
(lp2586
g102
(g123
g104
NtRp2587
(dp2588
g107
(dp2589
g127
g128
ssg116
g2583
sg109
(lp2590
S'SERVER_PORT'
p2591
asbag102
(g123
g104
NtRp2592
(dp2593
g107
(dp2594
g134
g135
ssg116
g2583
sg109
(lp2595
S':'
asbag102
(g123
g104
NtRp2596
(dp2597
g107
(dp2598
sg116
g2583
sg109
(lp2599
g102
(g103
g104
NtRp2600
(dp2601
g107
(dp2602
g115
I3
ssg116
g2596
sg109
(lp2603
g1232
asbasbasbag102
(g118
g104
NtRp2604
(dp2605
g107
(dp2606
sg116
g2264
sg109
(lp2607
g102
(g123
g104
NtRp2608
(dp2609
g107
(dp2610
g127
g128
ssg116
g2604
sg109
(lp2611
S'SERVER_PROTOCOL'
p2612
asbag102
(g123
g104
NtRp2613
(dp2614
g107
(dp2615
g134
g135
ssg116
g2604
sg109
(lp2616
S':'
asbag102
(g123
g104
NtRp2617
(dp2618
g107
(dp2619
sg116
g2604
sg109
(lp2620
g102
(g103
g104
NtRp2621
(dp2622
g107
(dp2623
g115
I3
ssg116
g2617
sg109
(lp2624
g1254
asbasbasbag102
(g118
g104
NtRp2625
(dp2626
g107
(dp2627
sg116
g2264
sg109
(lp2628
g102
(g123
g104
NtRp2629
(dp2630
g107
(dp2631
g127
g128
ssg116
g2625
sg109
(lp2632
S'SERVER_SOFTWARE'
p2633
asbag102
(g123
g104
NtRp2634
(dp2635
g107
(dp2636
g134
g135
ssg116
g2625
sg109
(lp2637
S':'
asbag102
(g123
g104
NtRp2638
(dp2639
g107
(dp2640
sg116
g2625
sg109
(lp2641
g102
(g103
g104
NtRp2642
(dp2643
g107
(dp2644
g115
I3
ssg116
g2638
sg109
(lp2645
g1276
asbasbasbag102
(g118
g104
NtRp2646
(dp2647
g107
(dp2648
sg116
g2264
sg109
(lp2649
g102
(g123
g104
NtRp2650
(dp2651
g107
(dp2652
g127
g128
ssg116
g2646
sg109
(lp2653
S'wsgi.errors'
p2654
asbag102
(g123
g104
NtRp2655
(dp2656
g107
(dp2657
g134
g135
ssg116
g2646
sg109
(lp2658
S':'
asbag102
(g123
g104
NtRp2659
(dp2660
g107
(dp2661
sg116
g2646
sg109
(lp2662
g102
(g103
g104
NtRp2663
(dp2664
g107
(dp2665
g115
I3
ssg116
g2659
sg109
(lp2666
S"<open file '<stderr>', mode 'w' at 0x7f8ec51111e0>"
p2667
asbasbasbag102
(g118
g104
NtRp2668
(dp2669
g107
(dp2670
sg116
g2264
sg109
(lp2671
g102
(g123
g104
NtRp2672
(dp2673
g107
(dp2674
g127
g128
ssg116
g2668
sg109
(lp2675
S'wsgi.file_wrapper'
p2676
asbag102
(g123
g104
NtRp2677
(dp2678
g107
(dp2679
g134
g135
ssg116
g2668
sg109
(lp2680
S':'
asbag102
(g123
g104
NtRp2681
(dp2682
g107
(dp2683
sg116
g2668
sg109
(lp2684
g102
(g103
g104
NtRp2685
(dp2686
g107
(dp2687
g115
I3
ssg116
g2681
sg109
(lp2688
S'<class wsgiref.util.FileWrapper at 0x7f8ec08a8870>'
p2689
asbasbasbag102
(g118
g104
NtRp2690
(dp2691
g107
(dp2692
sg116
g2264
sg109
(lp2693
g102
(g123
g104
NtRp2694
(dp2695
g107
(dp2696
g127
g128
ssg116
g2690
sg109
(lp2697
S'wsgi.input'
p2698
asbag102
(g123
g104
NtRp2699
(dp2700
g107
(dp2701
g134
g135
ssg116
g2690
sg109
(lp2702
S':'
asbag102
(g123
g104
NtRp2703
(dp2704
g107
(dp2705
sg116
g2690
sg109
(lp2706
g102
(g103
g104
NtRp2707
(dp2708
g107
(dp2709
g115
I3
ssg116
g2703
sg109
(lp2710
S'<cStringIO.StringO object at 0x7f8e84574a78>'
p2711
asbasbasbag102
(g118
g104
NtRp2712
(dp2713
g107
(dp2714
sg116
g2264
sg109
(lp2715
g102
(g123
g104
NtRp2716
(dp2717
g107
(dp2718
g127
g128
ssg116
g2712
sg109
(lp2719
S'wsgi.multiprocess'
p2720
asbag102
(g123
g104
NtRp2721
(dp2722
g107
(dp2723
g134
g135
ssg116
g2712
sg109
(lp2724
S':'
asbag102
(g123
g104
NtRp2725
(dp2726
g107
(dp2727
sg116
g2712
sg109
(lp2728
g102
(g103
g104
NtRp2729
(dp2730
g107
(dp2731
g115
I3
ssg116
g2725
sg109
(lp2732
g145
asbasbasbag102
(g118
g104
NtRp2733
(dp2734
g107
(dp2735
sg116
g2264
sg109
(lp2736
g102
(g123
g104
NtRp2737
(dp2738
g107
(dp2739
g127
g128
ssg116
g2733
sg109
(lp2740
S'wsgi.multithread'
p2741
asbag102
(g123
g104
NtRp2742
(dp2743
g107
(dp2744
g134
g135
ssg116
g2733
sg109
(lp2745
S':'
asbag102
(g123
g104
NtRp2746
(dp2747
g107
(dp2748
sg116
g2733
sg109
(lp2749
g102
(g103
g104
NtRp2750
(dp2751
g107
(dp2752
g115
I3
ssg116
g2746
sg109
(lp2753
g1516
asbasbasbag102
(g118
g104
NtRp2754
(dp2755
g107
(dp2756
sg116
g2264
sg109
(lp2757
g102
(g123
g104
NtRp2758
(dp2759
g107
(dp2760
g127
g128
ssg116
g2754
sg109
(lp2761
S'wsgi.run_once'
p2762
asbag102
(g123
g104
NtRp2763
(dp2764
g107
(dp2765
g134
g135
ssg116
g2754
sg109
(lp2766
S':'
asbag102
(g123
g104
NtRp2767
(dp2768
g107
(dp2769
sg116
g2754
sg109
(lp2770
g102
(g103
g104
NtRp2771
(dp2772
g107
(dp2773
g115
I3
ssg116
g2767
sg109
(lp2774
g145
asbasbasbag102
(g118
g104
NtRp2775
(dp2776
g107
(dp2777
sg116
g2264
sg109
(lp2778
g102
(g123
g104
NtRp2779
(dp2780
g107
(dp2781
g127
g128
ssg116
g2775
sg109
(lp2782
S'wsgi.url_scheme'
p2783
asbag102
(g123
g104
NtRp2784
(dp2785
g107
(dp2786
g134
g135
ssg116
g2775
sg109
(lp2787
S':'
asbag102
(g123
g104
NtRp2788
(dp2789
g107
(dp2790
sg116
g2775
sg109
(lp2791
g102
(g103
g104
NtRp2792
(dp2793
g107
(dp2794
g115
I3
ssg116
g2788
sg109
(lp2795
g1559
asbasbasbag102
(g118
g104
NtRp2796
(dp2797
g107
(dp2798
sg116
g2264
sg109
(lp2799
g102
(g123
g104
NtRp2800
(dp2801
g107
(dp2802
g127
g128
ssg116
g2796
sg109
(lp2803
S'wsgi.version'
p2804
asbag102
(g123
g104
NtRp2805
(dp2806
g107
(dp2807
g134
g135
ssg116
g2796
sg109
(lp2808
S':'
asbag102
(g123
g104
NtRp2809
(dp2810
g107
(dp2811
sg116
g2796
sg109
(lp2812
g102
(g103
g104
NtRp2813
(dp2814
g107
(dp2815
g115
I3
ssg116
g2809
sg109
(lp2816
S'1'
asbasbasbasbasbasbasbasbasbasbasbasbasbsS'frames'
p2817
(lp2818
(dp2819
S'file'
p2820
S'/usr/lib/pymodules/python2.7/gluon/restricted.py'
p2821
sS'dump'
p2822
(dp2823
S'environment'
p2824
S"{'A': <class 'gluon.html.A'>, 'Auth': <class 'gluon.tools.Auth'>, 'B': <class 'gluon.html.B'>, 'BEAUTIFY': <class 'gluon.html.BEAUTIFY'>, 'BODY': <class 'gluon.html.BODY'>, 'BR': <class 'gluon.html.BR'>, 'BUTTON': <class 'gluon.html.BUTTON'>, 'CAT': <class 'gluon.html.CAT'>, 'CENTER': <class 'gluon.html.CENTER'>, 'CLEANUP': <class 'gluon.validators.CLEANUP'>, ...}"
p2825
sS'ccode'
p2826
S'<code object <module> at 0x7f8e84570eb0, file "/...ications/newsapp/controllers/default.py", line 1>'
p2827
ssS'lnum'
p2828
I205
sS'lines'
p2829
(dp2830
I200
S'    try:'
p2831
sI201
S'        if type(code) == types.CodeType:'
p2832
sI202
S'            ccode = code'
p2833
sI203
S'        else:'
p2834
sI204
S'            ccode = compile2(code,layer)'
p2835
sI205
S'        exec ccode in environment'
p2836
sI206
S'    except HTTP:'
p2837
sI207
S'        raise'
p2838
sI208
S'    except RestrictedError:'
p2839
sI209
S'        # do not encapsulate (obfuscate) the original RestrictedError'
p2840
ssS'call'
p2841
S"(code='import urllib,urllib2\\nfrom urlparse import *\\nimp... dict()\\n\\nresponse._vars=response._caller(fbuser)\\n', environment={'A': <class 'gluon.html.A'>, 'Auth': <class 'gluon.tools.Auth'>, 'B': <class 'gluon.html.B'>, 'BEAUTIFY': <class 'gluon.html.BEAUTIFY'>, 'BODY': <class 'gluon.html.BODY'>, 'BR': <class 'gluon.html.BR'>, 'BUTTON': <class 'gluon.html.BUTTON'>, 'CAT': <class 'gluon.html.CAT'>, 'CENTER': <class 'gluon.html.CENTER'>, 'CLEANUP': <class 'gluon.validators.CLEANUP'>, ...}, layer='/home/pooja/web2py/applications/newsapp/controllers/default.py')"
p2842
sS'func'
p2843
S'restricted'
p2844
sa(dp2845
g2820
S'/home/pooja/web2py/applications/newsapp/controllers/default.py'
p2846
sg2822
(dp2847
sg2828
I101
sg2829
(dp2848
I96
S'    session.extended_token = extended_token'
p2849
sI97
S'    expires = interm[2]'
p2850
sI98
S'    fb_status = db.executesql("""INSERT IGNORE INTO  fb_details(name,email_id,fb_id,access_token,expiry) VALUES (%s,%s,%s,%s,%s);""",(name,email_id,session.fb_id,extended_token,expires))'
p2851
sI99
S'    return dict()'
p2852
sI90
S'    url += "&fb_exchange_token=%s"%(token)'
p2853
sI91
S''
sI92
S'    data = urllib2.urlopen(url)'
p2854
sI93
S'    interm = data.read().split("=")'
p2855
sI94
S'    token = interm[1].split("&")'
p2856
sI95
S'    extended_token = token[0]'
p2857
ssg2841
S'()'
p2858
sg2843
S'<module>'
p2859
sa(dp2860
g2820
S'/usr/lib/pymodules/python2.7/gluon/globals.py'
p2861
sg2822
(dp2862
S'self'
p2863
S'undefined'
p2864
sS'f'
S'<function fbuser>'
p2865
ssg2828
I173
sg2829
(dp2866
I168
S'        self.menu = []             # used by the default view layout'
p2867
sI169
S'        self.files = []            # used by web2py_ajax.html'
p2868
sI170
S'        self.generic_patterns = [] # patterns to allow generic views'
p2869
sI171
S"        self.delimiters = ('{{','}}')"
p2870
sI172
S'        self._vars = None'
p2871
sI173
S'        self._caller = lambda f: f()'
p2872
sI174
S'        self._view_environment = None'
p2873
sI175
S'        self._custom_commit = None'
p2874
sI176
S'        self._custom_rollback = None'
p2875
sI177
S''
ssg2841
S'(f=<function fbuser>)'
p2876
sg2843
S'<lambda>'
p2877
sa(dp2878
g2820
S'/home/pooja/web2py/applications/newsapp/controllers/default.py'
p2879
sg2822
(dp2880
S'urllib2.urlopen'
p2881
S'<function urlopen>'
p2882
sS'global urllib2'
p2883
S"<module 'urllib2' from '/usr/lib/python2.7/urllib2.pyc'>"
p2884
sS'url1'
p2885
S"'https://graph.facebook.com/me?access_token=None'"
p2886
sS'details'
p2887
g2864
ssg2828
I78
sg2829
(dp2888
I73
S''
sI74
S'def fbuser():'
p2889
sI75
S'    token = request.vars.token'
p2890
sI76
S'    url1 = "https://graph.facebook.com/"'
p2891
sI77
S"    url1 += 'me?access_token=%s'%(token)"
p2892
sI78
S'    details = urllib2.urlopen(url1)'
p2893
sI79
S'    dict_response = json.loads(details.read())'
p2894
sI80
S"    name = dict_response['name']"
p2895
sI81
S'    email_id = ""'
p2896
sI82
S'    try:'
p2897
ssg2841
S'()'
p2898
sg2843
S'fbuser'
p2899
sa(dp2900
g2820
S'/usr/lib/python2.7/urllib2.py'
p2901
sg2822
(dp2902
S'_opener.open'
p2903
S'<bound method OpenerDirector.open of <urllib2.OpenerDirector instance>>'
p2904
sS'url'
p2905
S"'https://graph.facebook.com/me?access_token=None'"
p2906
sS'data'
p2907
S'None'
p2908
sS'global _opener'
p2909
S'<urllib2.OpenerDirector instance>'
p2910
sS'timeout'
p2911
S'<object object>'
p2912
ssg2828
I127
sg2829
(dp2913
I128
S''
sI129
S'def install_opener(opener):'
p2914
sI130
S'    global _opener'
p2915
sI131
S'    _opener = opener'
p2916
sI122
S'_opener = None'
p2917
sI123
S'def urlopen(url, data=None, timeout=socket._GLOBAL_DEFAULT_TIMEOUT):'
p2918
sI124
S'    global _opener'
p2919
sI125
S'    if _opener is None:'
p2920
sI126
S'        _opener = build_opener()'
p2921
sI127
S'    return _opener.open(url, data, timeout)'
p2922
ssg2841
S"(url='https://graph.facebook.com/me?access_token=None', data=None, timeout=<object object>)"
p2923
sg2843
S'urlopen'
p2924
sa(dp2925
g2820
S'/usr/lib/python2.7/urllib2.py'
p2926
sg2822
(dp2927
S'meth'
p2928
S'<bound method HTTPErrorProcessor.http_response of <urllib2.HTTPErrorProcessor instance>>'
p2929
sS'req'
p2930
S'<urllib2.Request instance>'
p2931
sS'response'
p2932
S'<addinfourl at 140249592980904 whose fp = <socket._fileobject object>>'
p2933
ssg2828
I410
sg2829
(dp2934
I405
S''
sI406
S'        # post-process response'
p2935
sI407
S'        meth_name = protocol+"_response"'
p2936
sI408
S'        for processor in self.process_response.get(protocol, []):'
p2937
sI409
S'            meth = getattr(processor, meth_name)'
p2938
sI410
S'            response = meth(req, response)'
p2939
sI411
S''
sI412
S'        return response'
p2940
sI413
S''
sI414
S'    def _open(self, req, data=None):'
p2941
ssg2841
S"(self=<urllib2.OpenerDirector instance>, fullurl='https://graph.facebook.com/me?access_token=None', data=None, timeout=<object object>)"
p2942
sg2843
S'open'
p2943
sa(dp2944
g2820
S'/usr/lib/python2.7/urllib2.py'
p2945
sg2822
(dp2946
S'msg'
p2947
S"'Bad Request'"
p2948
sS'code'
p2949
S'400'
p2950
sS'request'
p2951
S'<urllib2.Request instance>'
p2952
sS'response'
p2953
S'<addinfourl at 140249592980904 whose fp = <socket._fileobject object>>'
p2954
sS'hdrs'
p2955
S'<httplib.HTTPMessage instance>'
p2956
ssg2828
I523
sg2829
(dp2957
I518
S''
sI519
S'        # According to RFC 2616, "2xx" code indicates that the client\'s'
p2958
sI520
S'        # request was successfully received, understood, and accepted.'
p2959
sI521
S'        if not (200 <= code < 300):'
p2960
sI522
S'            response = self.parent.error('
p2961
sI523
S"                'http', request, response, code, msg, hdrs)"
p2962
sI524
S''
sI525
S'        return response'
p2963
sI526
S''
sI527
S'    https_response = http_response'
p2964
ssg2841
S'(self=<urllib2.HTTPErrorProcessor instance>, request=<urllib2.Request instance>, response=<addinfourl at 140249592980904 whose fp = <socket._fileobject object>>)'
p2965
sg2843
S'http_response'
p2966
sa(dp2967
g2820
S'/usr/lib/python2.7/urllib2.py'
p2968
sg2822
(dp2969
S'self._call_chain'
p2970
S'<bound method OpenerDirector._call_chain of <urllib2.OpenerDirector instance>>'
p2971
sS'self'
p2972
S'<urllib2.OpenerDirector instance>'
p2973
sS'args'
p2974
S"({301: [<urllib2.HTTPRedirectHandler instance>], 302: [<urllib2.HTTPRedirectHandler instance>], 303: [<urllib2.HTTPRedirectHandler instance>], 307: [<urllib2.HTTPRedirectHandler instance>], 'default': [<urllib2.HTTPDefaultErrorHandler instance>]}, 'default', 'http_error_default', <urllib2.Request instance>, <addinfourl at 140249592980904 whose fp = <socket._fileobject object>>, 400, 'Bad Request', <httplib.HTTPMessage instance>)"
p2975
ssg2828
I448
sg2829
(dp2976
I448
S'            return self._call_chain(*args)'
p2977
sI449
S''
sI450
S'# XXX probably also want an abstract factory that knows when it makes'
p2978
sI451
S'# sense to skip a superclass in favor of a subclass and when it might'
p2979
sI452
S'# make sense to include both'
p2980
sI443
S'        if result:'
p2981
sI444
S'            return result'
p2982
sI445
S''
sI446
S'        if http_err:'
p2983
sI447
S"            args = (dict, 'default', 'http_error_default') + orig_args"
p2984
ssg2841
S"(self=<urllib2.OpenerDirector instance>, proto=400, *args=({301: [<urllib2.HTTPRedirectHandler instance>], 302: [<urllib2.HTTPRedirectHandler instance>], 303: [<urllib2.HTTPRedirectHandler instance>], 307: [<urllib2.HTTPRedirectHandler instance>], 'default': [<urllib2.HTTPDefaultErrorHandler instance>]}, 'default', 'http_error_default', <urllib2.Request instance>, <addinfourl at 140249592980904 whose fp = <socket._fileobject object>>, 400, 'Bad Request', <httplib.HTTPMessage instance>))"
p2985
sg2843
S'error'
p2986
sa(dp2987
g2820
S'/usr/lib/python2.7/urllib2.py'
p2988
sg2822
(dp2989
S'args'
p2990
S"(<urllib2.Request instance>, <addinfourl at 140249592980904 whose fp = <socket._fileobject object>>, 400, 'Bad Request', <httplib.HTTPMessage instance>)"
p2991
sS'result'
p2992
g2864
sS'func'
p2993
S'<bound method HTTPDefaultErrorHandler.http_error...lt of <urllib2.HTTPDefaultErrorHandler instance>>'
p2994
ssg2828
I382
sg2829
(dp2995
I384
S'                return result'
p2996
sI385
S''
sI386
S'    def open(self, fullurl, data=None, timeout=socket._GLOBAL_DEFAULT_TIMEOUT):'
p2997
sI377
S'        # could.  Otherwise, they return the response.'
p2998
sI378
S'        handlers = chain.get(kind, ())'
p2999
sI379
S'        for handler in handlers:'
p3000
sI380
S'            func = getattr(handler, meth_name)'
p3001
sI381
S''
sI382
S'            result = func(*args)'
p3002
sI383
S'            if result is not None:'
p3003
ssg2841
S"(self=<urllib2.OpenerDirector instance>, chain={301: [<urllib2.HTTPRedirectHandler instance>], 302: [<urllib2.HTTPRedirectHandler instance>], 303: [<urllib2.HTTPRedirectHandler instance>], 307: [<urllib2.HTTPRedirectHandler instance>], 'default': [<urllib2.HTTPDefaultErrorHandler instance>]}, kind='default', meth_name='http_error_default', *args=(<urllib2.Request instance>, <addinfourl at 140249592980904 whose fp = <socket._fileobject object>>, 400, 'Bad Request', <httplib.HTTPMessage instance>))"
p3004
sg2843
S'_call_chain'
p3005
sa(dp3006
g2820
S'/usr/lib/python2.7/urllib2.py'
p3007
sg2822
(dp3008
S'fp'
p3009
S'<addinfourl at 140249592980904 whose fp = <socket._fileobject object>>'
p3010
sS'code'
p3011
S'400'
p3012
sS'hdrs'
p3013
S'<httplib.HTTPMessage instance>'
p3014
sS'req'
p3015
S'<urllib2.Request instance>'
p3016
sS'req.get_full_url'
p3017
S'<bound method Request.get_full_url of <urllib2.Request instance>>'
p3018
sS'msg'
p3019
S"'Bad Request'"
p3020
sS'global HTTPError'
p3021
S"<class 'urllib2.HTTPError'>"
p3022
ssg2828
I531
sg2829
(dp3023
I526
S''
sI527
S'    https_response = http_response'
p3024
sI528
S''
sI529
S'class HTTPDefaultErrorHandler(BaseHandler):'
p3025
sI530
S'    def http_error_default(self, req, fp, code, msg, hdrs):'
p3026
sI531
S'        raise HTTPError(req.get_full_url(), code, msg, hdrs, fp)'
p3027
sI532
S''
sI533
S'class HTTPRedirectHandler(BaseHandler):'
p3028
sI534
S'    # maximum number of redirections to any single URL'
p3029
sI535
S'    # this is needed because of the state that cookies introduce'
p3030
ssg2841
S"(self=<urllib2.HTTPDefaultErrorHandler instance>, req=<urllib2.Request instance>, fp=<addinfourl at 140249592980904 whose fp = <socket._fileobject object>>, code=400, msg='Bad Request', hdrs=<httplib.HTTPMessage instance>)"
p3031
sg2843
S'http_error_default'
p3032
sasS'pyver'
p3033
S'Python 2.7.6: /usr/bin/python'
p3034
sS'session'
p3035
g102
(g103
g104
NtRp3036
(dp3037
g107
(dp3038
sg109
(lp3039
g102
(g111
g104
NtRp3040
(dp3041
g107
(dp3042
g115
I5
ssg116
Nsg109
(lp3043
sbasbsS'etype'
p3044
S"<class 'urllib2.HTTPError'>"
p3045
sS'date'
p3046
S'Sat May  9 17:04:56 2015'
p3047
sS'response'
p3048
g102
(g103
g104
NtRp3049
(dp3050
g107
(dp3051
sg109
(lp3052
g102
(g111
g104
NtRp3053
(dp3054
g107
(dp3055
g115
I5
ssg116
Nsg109
(lp3056
g102
(g118
g104
NtRp3057
(dp3058
g107
(dp3059
sg116
g3053
sg109
(lp3060
g102
(g123
g104
NtRp3061
(dp3062
g107
(dp3063
g127
g128
ssg116
g3057
sg109
(lp3064
g200
asbag102
(g123
g104
NtRp3065
(dp3066
g107
(dp3067
g134
g135
ssg116
g3057
sg109
(lp3068
S':'
asbag102
(g123
g104
NtRp3069
(dp3070
g107
(dp3071
sg116
g3057
sg109
(lp3072
g102
(g103
g104
NtRp3073
(dp3074
g107
(dp3075
g115
I5
ssg116
g3069
sg109
(lp3076
S'<cStringIO.StringO object at 0x7f8e84574110>'
p3077
asbasbasbag102
(g118
g104
NtRp3078
(dp3079
g107
(dp3080
sg116
g3053
sg109
(lp3081
g102
(g123
g104
NtRp3082
(dp3083
g107
(dp3084
g127
g128
ssg116
g3078
sg109
(lp3085
g266
asbag102
(g123
g104
NtRp3086
(dp3087
g107
(dp3088
g134
g135
ssg116
g3078
sg109
(lp3089
S':'
asbag102
(g123
g104
NtRp3090
(dp3091
g107
(dp3092
sg116
g3078
sg109
(lp3093
g102
(g103
g104
NtRp3094
(dp3095
g107
(dp3096
g115
I5
ssg116
g3090
sg109
(lp3097
g102
(g111
g104
NtRp3098
(dp3099
g107
(dp3100
g115
I4
ssg116
Nsg109
(lp3101
g102
(g118
g104
NtRp3102
(dp3103
g107
(dp3104
sg116
g3098
sg109
(lp3105
g102
(g123
g104
NtRp3106
(dp3107
g107
(dp3108
g127
g128
ssg116
g3102
sg109
(lp3109
S'session_id_newsapp'
p3110
asbag102
(g123
g104
NtRp3111
(dp3112
g107
(dp3113
g134
g135
ssg116
g3102
sg109
(lp3114
S':'
asbag102
(g123
g104
NtRp3115
(dp3116
g107
(dp3117
sg116
g3102
sg109
(lp3118
g102
(g103
g104
NtRp3119
(dp3120
g107
(dp3121
g115
I4
ssg116
g3115
sg109
(lp3122
g102
(g111
g104
NtRp3123
(dp3124
g107
(dp3125
g115
I3
ssg116
Nsg109
(lp3126
g102
(g118
g104
NtRp3127
(dp3128
g107
(dp3129
sg116
g3123
sg109
(lp3130
g102
(g123
g104
NtRp3131
(dp3132
g107
(dp3133
g127
g128
ssg116
g3127
sg109
(lp3134
g316
asbag102
(g123
g104
NtRp3135
(dp3136
g107
(dp3137
g134
g135
ssg116
g3127
sg109
(lp3138
S':'
asbag102
(g123
g104
NtRp3139
(dp3140
g107
(dp3141
sg116
g3127
sg109
(lp3142
g102
(g103
g104
NtRp3143
(dp3144
g107
(dp3145
g115
I3
ssg116
g3139
sg109
(lp3146
S''
asbasbasbag102
(g118
g104
NtRp3147
(dp3148
g107
(dp3149
sg116
g3123
sg109
(lp3150
g102
(g123
g104
NtRp3151
(dp3152
g107
(dp3153
g127
g128
ssg116
g3147
sg109
(lp3154
g337
asbag102
(g123
g104
NtRp3155
(dp3156
g107
(dp3157
g134
g135
ssg116
g3147
sg109
(lp3158
S':'
asbag102
(g123
g104
NtRp3159
(dp3160
g107
(dp3161
sg116
g3147
sg109
(lp3162
g102
(g103
g104
NtRp3163
(dp3164
g107
(dp3165
g115
I3
ssg116
g3159
sg109
(lp3166
S''
asbasbasbag102
(g118
g104
NtRp3167
(dp3168
g107
(dp3169
sg116
g3123
sg109
(lp3170
g102
(g123
g104
NtRp3171
(dp3172
g107
(dp3173
g127
g128
ssg116
g3167
sg109
(lp3174
g358
asbag102
(g123
g104
NtRp3175
(dp3176
g107
(dp3177
g134
g135
ssg116
g3167
sg109
(lp3178
S':'
asbag102
(g123
g104
NtRp3179
(dp3180
g107
(dp3181
sg116
g3167
sg109
(lp3182
g102
(g103
g104
NtRp3183
(dp3184
g107
(dp3185
g115
I3
ssg116
g3179
sg109
(lp3186
S''
asbasbasbag102
(g118
g104
NtRp3187
(dp3188
g107
(dp3189
sg116
g3123
sg109
(lp3190
g102
(g123
g104
NtRp3191
(dp3192
g107
(dp3193
g127
g128
ssg116
g3187
sg109
(lp3194
g379
asbag102
(g123
g104
NtRp3195
(dp3196
g107
(dp3197
g134
g135
ssg116
g3187
sg109
(lp3198
S':'
asbag102
(g123
g104
NtRp3199
(dp3200
g107
(dp3201
sg116
g3187
sg109
(lp3202
g102
(g103
g104
NtRp3203
(dp3204
g107
(dp3205
g115
I3
ssg116
g3199
sg109
(lp3206
S''
asbasbasbag102
(g118
g104
NtRp3207
(dp3208
g107
(dp3209
sg116
g3123
sg109
(lp3210
g102
(g123
g104
NtRp3211
(dp3212
g107
(dp3213
g127
g128
ssg116
g3207
sg109
(lp3214
g400
asbag102
(g123
g104
NtRp3215
(dp3216
g107
(dp3217
g134
g135
ssg116
g3207
sg109
(lp3218
S':'
asbag102
(g123
g104
NtRp3219
(dp3220
g107
(dp3221
sg116
g3207
sg109
(lp3222
g102
(g103
g104
NtRp3223
(dp3224
g107
(dp3225
g115
I3
ssg116
g3219
sg109
(lp3226
S''
asbasbasbag102
(g118
g104
NtRp3227
(dp3228
g107
(dp3229
sg116
g3123
sg109
(lp3230
g102
(g123
g104
NtRp3231
(dp3232
g107
(dp3233
g127
g128
ssg116
g3227
sg109
(lp3234
g421
asbag102
(g123
g104
NtRp3235
(dp3236
g107
(dp3237
g134
g135
ssg116
g3227
sg109
(lp3238
S':'
asbag102
(g123
g104
NtRp3239
(dp3240
g107
(dp3241
sg116
g3227
sg109
(lp3242
g102
(g103
g104
NtRp3243
(dp3244
g107
(dp3245
g115
I3
ssg116
g3239
sg109
(lp3246
S'/'
asbasbasbag102
(g118
g104
NtRp3247
(dp3248
g107
(dp3249
sg116
g3123
sg109
(lp3250
g102
(g123
g104
NtRp3251
(dp3252
g107
(dp3253
g127
g128
ssg116
g3247
sg109
(lp3254
g442
asbag102
(g123
g104
NtRp3255
(dp3256
g107
(dp3257
g134
g135
ssg116
g3247
sg109
(lp3258
S':'
asbag102
(g123
g104
NtRp3259
(dp3260
g107
(dp3261
sg116
g3247
sg109
(lp3262
g102
(g103
g104
NtRp3263
(dp3264
g107
(dp3265
g115
I3
ssg116
g3259
sg109
(lp3266
S''
asbasbasbag102
(g118
g104
NtRp3267
(dp3268
g107
(dp3269
sg116
g3123
sg109
(lp3270
g102
(g123
g104
NtRp3271
(dp3272
g107
(dp3273
g127
g128
ssg116
g3267
sg109
(lp3274
g463
asbag102
(g123
g104
NtRp3275
(dp3276
g107
(dp3277
g134
g135
ssg116
g3267
sg109
(lp3278
S':'
asbag102
(g123
g104
NtRp3279
(dp3280
g107
(dp3281
sg116
g3267
sg109
(lp3282
g102
(g103
g104
NtRp3283
(dp3284
g107
(dp3285
g115
I3
ssg116
g3279
sg109
(lp3286
S''
asbasbasbasbasbasbasbasbasbasbasbag102
(g118
g104
NtRp3287
(dp3288
g107
(dp3289
sg116
g3053
sg109
(lp3290
g102
(g123
g104
NtRp3291
(dp3292
g107
(dp3293
g127
g128
ssg116
g3287
sg109
(lp3294
S'delimiters'
p3295
asbag102
(g123
g104
NtRp3296
(dp3297
g107
(dp3298
g134
g135
ssg116
g3287
sg109
(lp3299
S':'
asbag102
(g123
g104
NtRp3300
(dp3301
g107
(dp3302
sg116
g3287
sg109
(lp3303
g102
(g103
g104
NtRp3304
(dp3305
g107
(dp3306
g115
I5
ssg116
g3300
sg109
(lp3307
g102
(g111
g104
NtRp3308
(dp3309
g107
(dp3310
g115
I4
ssg116
Nsg109
(lp3311
g102
(g118
g104
NtRp3312
(dp3313
g107
(dp3314
sg116
g3308
sg109
(lp3315
g102
(g123
g104
NtRp3316
(dp3317
g107
(dp3318
sg116
g3312
sg109
(lp3319
g102
(g103
g104
NtRp3320
(dp3321
g107
(dp3322
g115
I4
ssg116
g3316
sg109
(lp3323
S'{{'
p3324
asbasbasbag102
(g118
g104
NtRp3325
(dp3326
g107
(dp3327
sg116
g3308
sg109
(lp3328
g102
(g123
g104
NtRp3329
(dp3330
g107
(dp3331
sg116
g3325
sg109
(lp3332
g102
(g103
g104
NtRp3333
(dp3334
g107
(dp3335
g115
I4
ssg116
g3329
sg109
(lp3336
S'}}'
p3337
asbasbasbasbasbasbasbag102
(g118
g104
NtRp3338
(dp3339
g107
(dp3340
sg116
g3053
sg109
(lp3341
g102
(g123
g104
NtRp3342
(dp3343
g107
(dp3344
g127
g128
ssg116
g3338
sg109
(lp3345
S'files'
p3346
asbag102
(g123
g104
NtRp3347
(dp3348
g107
(dp3349
g134
g135
ssg116
g3338
sg109
(lp3350
S':'
asbag102
(g123
g104
NtRp3351
(dp3352
g107
(dp3353
sg116
g3338
sg109
(lp3354
g102
(g103
g104
NtRp3355
(dp3356
g107
(dp3357
g115
I5
ssg116
g3351
sg109
(lp3358
g102
(g111
g104
NtRp3359
(dp3360
g107
(dp3361
g115
I4
ssg116
Nsg109
(lp3362
sbasbasbasbag102
(g118
g104
NtRp3363
(dp3364
g107
(dp3365
sg116
g3053
sg109
(lp3366
g102
(g123
g104
NtRp3367
(dp3368
g107
(dp3369
g127
g128
ssg116
g3363
sg109
(lp3370
S'flash'
p3371
asbag102
(g123
g104
NtRp3372
(dp3373
g107
(dp3374
g134
g135
ssg116
g3363
sg109
(lp3375
S':'
asbag102
(g123
g104
NtRp3376
(dp3377
g107
(dp3378
sg116
g3363
sg109
(lp3379
g102
(g103
g104
NtRp3380
(dp3381
g107
(dp3382
g115
I5
ssg116
g3376
sg109
(lp3383
S''
asbasbasbag102
(g118
g104
NtRp3384
(dp3385
g107
(dp3386
sg116
g3053
sg109
(lp3387
g102
(g123
g104
NtRp3388
(dp3389
g107
(dp3390
g127
g128
ssg116
g3384
sg109
(lp3391
S'generic_patterns'
p3392
asbag102
(g123
g104
NtRp3393
(dp3394
g107
(dp3395
g134
g135
ssg116
g3384
sg109
(lp3396
S':'
asbag102
(g123
g104
NtRp3397
(dp3398
g107
(dp3399
sg116
g3384
sg109
(lp3400
g102
(g103
g104
NtRp3401
(dp3402
g107
(dp3403
g115
I5
ssg116
g3397
sg109
(lp3404
g102
(g111
g104
NtRp3405
(dp3406
g107
(dp3407
g115
I4
ssg116
Nsg109
(lp3408
g102
(g118
g104
NtRp3409
(dp3410
g107
(dp3411
sg116
g3405
sg109
(lp3412
g102
(g123
g104
NtRp3413
(dp3414
g107
(dp3415
sg116
g3409
sg109
(lp3416
g102
(g103
g104
NtRp3417
(dp3418
g107
(dp3419
g115
I4
ssg116
g3413
sg109
(lp3420
S'*'
asbasbasbasbasbasbasbag102
(g118
g104
NtRp3421
(dp3422
g107
(dp3423
sg116
g3053
sg109
(lp3424
g102
(g123
g104
NtRp3425
(dp3426
g107
(dp3427
g127
g128
ssg116
g3421
sg109
(lp3428
g41
asbag102
(g123
g104
NtRp3429
(dp3430
g107
(dp3431
g134
g135
ssg116
g3421
sg109
(lp3432
S':'
asbag102
(g123
g104
NtRp3433
(dp3434
g107
(dp3435
sg116
g3421
sg109
(lp3436
g102
(g103
g104
NtRp3437
(dp3438
g107
(dp3439
g115
I5
ssg116
g3433
sg109
(lp3440
g102
(g111
g104
NtRp3441
(dp3442
g107
(dp3443
g115
I4
ssg116
Nsg109
(lp3444
g102
(g118
g104
NtRp3445
(dp3446
g107
(dp3447
sg116
g3441
sg109
(lp3448
g102
(g123
g104
NtRp3449
(dp3450
g107
(dp3451
g127
g128
ssg116
g3445
sg109
(lp3452
S'Cache-Control'
p3453
asbag102
(g123
g104
NtRp3454
(dp3455
g107
(dp3456
g134
g135
ssg116
g3445
sg109
(lp3457
S':'
asbag102
(g123
g104
NtRp3458
(dp3459
g107
(dp3460
sg116
g3445
sg109
(lp3461
g102
(g103
g104
NtRp3462
(dp3463
g107
(dp3464
g115
I4
ssg116
g3458
sg109
(lp3465
S'no-store, no-cache, must-revalidate, post-check=0, pre-check=0'
p3466
asbasbasbag102
(g118
g104
NtRp3467
(dp3468
g107
(dp3469
sg116
g3441
sg109
(lp3470
g102
(g123
g104
NtRp3471
(dp3472
g107
(dp3473
g127
g128
ssg116
g3467
sg109
(lp3474
S'Content-Type'
p3475
asbag102
(g123
g104
NtRp3476
(dp3477
g107
(dp3478
g134
g135
ssg116
g3467
sg109
(lp3479
S':'
asbag102
(g123
g104
NtRp3480
(dp3481
g107
(dp3482
sg116
g3467
sg109
(lp3483
g102
(g103
g104
NtRp3484
(dp3485
g107
(dp3486
g115
I4
ssg116
g3480
sg109
(lp3487
S'text/html; charset=utf-8'
p3488
asbasbasbag102
(g118
g104
NtRp3489
(dp3490
g107
(dp3491
sg116
g3441
sg109
(lp3492
g102
(g123
g104
NtRp3493
(dp3494
g107
(dp3495
g127
g128
ssg116
g3489
sg109
(lp3496
S'Expires'
p3497
asbag102
(g123
g104
NtRp3498
(dp3499
g107
(dp3500
g134
g135
ssg116
g3489
sg109
(lp3501
S':'
asbag102
(g123
g104
NtRp3502
(dp3503
g107
(dp3504
sg116
g3489
sg109
(lp3505
g102
(g103
g104
NtRp3506
(dp3507
g107
(dp3508
g115
I4
ssg116
g3502
sg109
(lp3509
S'Sat, 09 May 2015 11:34:55 GMT'
p3510
asbasbasbag102
(g118
g104
NtRp3511
(dp3512
g107
(dp3513
sg116
g3441
sg109
(lp3514
g102
(g123
g104
NtRp3515
(dp3516
g107
(dp3517
g127
g128
ssg116
g3511
sg109
(lp3518
S'Pragma'
p3519
asbag102
(g123
g104
NtRp3520
(dp3521
g107
(dp3522
g134
g135
ssg116
g3511
sg109
(lp3523
S':'
asbag102
(g123
g104
NtRp3524
(dp3525
g107
(dp3526
sg116
g3511
sg109
(lp3527
g102
(g103
g104
NtRp3528
(dp3529
g107
(dp3530
g115
I4
ssg116
g3524
sg109
(lp3531
S'no-cache'
p3532
asbasbasbag102
(g118
g104
NtRp3533
(dp3534
g107
(dp3535
sg116
g3441
sg109
(lp3536
g102
(g123
g104
NtRp3537
(dp3538
g107
(dp3539
g127
g128
ssg116
g3533
sg109
(lp3540
S'X-Powered-By'
p3541
asbag102
(g123
g104
NtRp3542
(dp3543
g107
(dp3544
g134
g135
ssg116
g3533
sg109
(lp3545
S':'
asbag102
(g123
g104
NtRp3546
(dp3547
g107
(dp3548
sg116
g3533
sg109
(lp3549
g102
(g103
g104
NtRp3550
(dp3551
g107
(dp3552
g115
I4
ssg116
g3546
sg109
(lp3553
S'web2py'
p3554
asbasbasbasbasbasbasbag102
(g118
g104
NtRp3555
(dp3556
g107
(dp3557
sg116
g3053
sg109
(lp3558
g102
(g123
g104
NtRp3559
(dp3560
g107
(dp3561
g127
g128
ssg116
g3555
sg109
(lp3562
S'menu'
p3563
asbag102
(g123
g104
NtRp3564
(dp3565
g107
(dp3566
g134
g135
ssg116
g3555
sg109
(lp3567
S':'
asbag102
(g123
g104
NtRp3568
(dp3569
g107
(dp3570
sg116
g3555
sg109
(lp3571
g102
(g103
g104
NtRp3572
(dp3573
g107
(dp3574
g115
I5
ssg116
g3568
sg109
(lp3575
g102
(g111
g104
NtRp3576
(dp3577
g107
(dp3578
g115
I4
ssg116
Nsg109
(lp3579
g102
(g118
g104
NtRp3580
(dp3581
g107
(dp3582
sg116
g3576
sg109
(lp3583
g102
(g123
g104
NtRp3584
(dp3585
g107
(dp3586
sg116
g3580
sg109
(lp3587
g102
(g103
g104
NtRp3588
(dp3589
g107
(dp3590
g115
I4
ssg116
g3584
sg109
(lp3591
g102
(g111
g104
NtRp3592
(dp3593
g107
(dp3594
g115
I3
ssg116
Nsg109
(lp3595
g102
(g118
g104
NtRp3596
(dp3597
g107
(dp3598
sg116
g3592
sg109
(lp3599
g102
(g123
g104
NtRp3600
(dp3601
g107
(dp3602
sg116
g3596
sg109
(lp3603
g102
(g103
g104
NtRp3604
(dp3605
g107
(dp3606
g115
I3
ssg116
g3600
sg109
(lp3607
cgluon.languages
lazyT_unpickle
p3608
(S't\x04\x00\x00\x00Home'
tRp3609
asbasbasbag102
(g118
g104
NtRp3610
(dp3611
g107
(dp3612
sg116
g3592
sg109
(lp3613
g102
(g123
g104
NtRp3614
(dp3615
g107
(dp3616
sg116
g3610
sg109
(lp3617
g102
(g103
g104
NtRp3618
(dp3619
g107
(dp3620
g115
I3
ssg116
g3614
sg109
(lp3621
g145
asbasbasbag102
(g118
g104
NtRp3622
(dp3623
g107
(dp3624
sg116
g3592
sg109
(lp3625
g102
(g123
g104
NtRp3626
(dp3627
g107
(dp3628
sg116
g3622
sg109
(lp3629
g102
(g103
g104
NtRp3630
(dp3631
g107
(dp3632
g115
I3
ssg116
g3626
sg109
(lp3633
S'/newsapp/default/index'
p3634
asbasbasbag102
(g118
g104
NtRp3635
(dp3636
g107
(dp3637
sg116
g3592
sg109
(lp3638
g102
(g123
g104
NtRp3639
(dp3640
g107
(dp3641
sg116
g3635
sg109
(lp3642
g102
(g103
g104
NtRp3643
(dp3644
g107
(dp3645
g115
I3
ssg116
g3639
sg109
(lp3646
g102
(g111
g104
NtRp3647
(dp3648
g107
(dp3649
g115
I2
ssg116
Nsg109
(lp3650
sbasbasbasbasbasbasbasbag102
(g118
g104
NtRp3651
(dp3652
g107
(dp3653
sg116
g3576
sg109
(lp3654
g102
(g123
g104
NtRp3655
(dp3656
g107
(dp3657
sg116
g3651
sg109
(lp3658
g102
(g103
g104
NtRp3659
(dp3660
g107
(dp3661
g115
I4
ssg116
g3655
sg109
(lp3662
g102
(g111
g104
NtRp3663
(dp3664
g107
(dp3665
g115
I3
ssg116
Nsg109
(lp3666
g102
(g118
g104
NtRp3667
(dp3668
g107
(dp3669
sg116
g3663
sg109
(lp3670
g102
(g123
g104
NtRp3671
(dp3672
g107
(dp3673
sg116
g3667
sg109
(lp3674
g102
(g103
g104
NtRp3675
(dp3676
g107
(dp3677
g115
I3
ssg116
g3671
sg109
(lp3678
g102
(cgluon.html
SPAN
p3679
g104
NtRp3680
(dp3681
g107
(dp3682
g127
S'color:yellow'
p3683
ssg116
Nsg109
(lp3684
g3554
asbasbasbasbag102
(g118
g104
NtRp3685
(dp3686
g107
(dp3687
sg116
g3663
sg109
(lp3688
g102
(g123
g104
NtRp3689
(dp3690
g107
(dp3691
sg116
g3685
sg109
(lp3692
g102
(g103
g104
NtRp3693
(dp3694
g107
(dp3695
g115
I3
ssg116
g3689
sg109
(lp3696
g145
asbasbasbag102
(g118
g104
NtRp3697
(dp3698
g107
(dp3699
sg116
g3663
sg109
(lp3700
g102
(g123
g104
NtRp3701
(dp3702
g107
(dp3703
sg116
g3697
sg109
(lp3704
g102
(g103
g104
NtRp3705
(dp3706
g107
(dp3707
g115
I3
ssg116
g3701
sg109
(lp3708
S'None'
p3709
asbasbasbag102
(g118
g104
NtRp3710
(dp3711
g107
(dp3712
sg116
g3663
sg109
(lp3713
g102
(g123
g104
NtRp3714
(dp3715
g107
(dp3716
sg116
g3710
sg109
(lp3717
g102
(g103
g104
NtRp3718
(dp3719
g107
(dp3720
g115
I3
ssg116
g3714
sg109
(lp3721
g102
(g111
g104
NtRp3722
(dp3723
g107
(dp3724
g115
I2
ssg116
Nsg109
(lp3725
g102
(g118
g104
NtRp3726
(dp3727
g107
(dp3728
sg116
g3722
sg109
(lp3729
g102
(g123
g104
NtRp3730
(dp3731
g107
(dp3732
sg116
g3726
sg109
(lp3733
g102
(g103
g104
NtRp3734
(dp3735
g107
(dp3736
g115
I2
ssg116
g3730
sg109
(lp3737
g102
(g111
g104
NtRp3738
(dp3739
g107
(dp3740
g115
I1
ssg116
Nsg109
(lp3741
g102
(g118
g104
NtRp3742
(dp3743
g107
(dp3744
sg116
g3738
sg109
(lp3745
g102
(g123
g104
NtRp3746
(dp3747
g107
(dp3748
sg116
g3742
sg109
(lp3749
g102
(g103
g104
NtRp3750
(dp3751
g107
(dp3752
g115
I1
ssg116
g3746
sg109
(lp3753
g3608
(S's\x08\x00\x00\x00My Sites'
tRp3754
asbasbasbag102
(g118
g104
NtRp3755
(dp3756
g107
(dp3757
sg116
g3738
sg109
(lp3758
g102
(g123
g104
NtRp3759
(dp3760
g107
(dp3761
sg116
g3755
sg109
(lp3762
g102
(g103
g104
NtRp3763
(dp3764
g107
(dp3765
g115
I1
ssg116
g3759
sg109
(lp3766
I00
asbasbasbag102
(g118
g104
NtRp3767
(dp3768
g107
(dp3769
sg116
g3738
sg109
(lp3770
g102
(g123
g104
NtRp3771
(dp3772
g107
(dp3773
sg116
g3767
sg109
(lp3774
g102
(g103
g104
NtRp3775
(dp3776
g107
(dp3777
g115
I1
ssg116
g3771
sg109
(lp3778
S'/admin/default/site'
p3779
asbasbasbasbasbasbasbag102
(g118
g104
NtRp3780
(dp3781
g107
(dp3782
sg116
g3722
sg109
(lp3783
g102
(g123
g104
NtRp3784
(dp3785
g107
(dp3786
sg116
g3780
sg109
(lp3787
g102
(g103
g104
NtRp3788
(dp3789
g107
(dp3790
g115
I2
ssg116
g3784
sg109
(lp3791
g102
(g111
g104
NtRp3792
(dp3793
g107
(dp3794
g115
I1
ssg116
Nsg109
(lp3795
g102
(g118
g104
NtRp3796
(dp3797
g107
(dp3798
sg116
g3792
sg109
(lp3799
g102
(g123
g104
NtRp3800
(dp3801
g107
(dp3802
sg116
g3796
sg109
(lp3803
g102
(g103
g104
NtRp3804
(dp3805
g107
(dp3806
g115
I1
ssg116
g3800
sg109
(lp3807
g3608
(S's\x08\x00\x00\x00This App'
tRp3808
asbasbasbag102
(g118
g104
NtRp3809
(dp3810
g107
(dp3811
sg116
g3792
sg109
(lp3812
g102
(g123
g104
NtRp3813
(dp3814
g107
(dp3815
sg116
g3809
sg109
(lp3816
g102
(g103
g104
NtRp3817
(dp3818
g107
(dp3819
g115
I1
ssg116
g3813
sg109
(lp3820
I00
asbasbasbag102
(g118
g104
NtRp3821
(dp3822
g107
(dp3823
sg116
g3792
sg109
(lp3824
g102
(g123
g104
NtRp3825
(dp3826
g107
(dp3827
sg116
g3821
sg109
(lp3828
g102
(g103
g104
NtRp3829
(dp3830
g107
(dp3831
g115
I1
ssg116
g3825
sg109
(lp3832
S'/admin/default/design/newsapp'
p3833
asbasbasbag102
(g118
g104
NtRp3834
(dp3835
g107
(dp3836
sg116
g3792
sg109
(lp3837
g102
(g123
g104
NtRp3838
(dp3839
g107
(dp3840
sg116
g3834
sg109
(lp3841
g102
(g103
g104
NtRp3842
(dp3843
g107
(dp3844
g115
I1
ssg116
g3838
sg109
(lp3845
(lp3846
(g3608
(S't\n\x00\x00\x00Controller'
tRp3847
I00
S'/admin/default/edit/newsapp/controllers/default.py'
tp3848
a(g3608
(S't\x04\x00\x00\x00View'
tRp3849
I00
S'/admin/default/edit/newsapp/views/default/fbuser.html'
tp3850
a(g3608
(S't\x06\x00\x00\x00Layout'
tRp3851
I00
S'/admin/default/edit/newsapp/views/layout.html'
tp3852
a(g3608
(S't\n\x00\x00\x00Stylesheet'
tRp3853
I00
S'/admin/default/edit/newsapp/static/css/web2py.css'
tp3854
a(g3608
(S's\x08\x00\x00\x00DB Model'
tRp3855
I00
S'/admin/default/edit/newsapp/models/db.py'
tp3856
a(g3608
(S's\n\x00\x00\x00Menu Model'
tRp3857
I00
S'/admin/default/edit/newsapp/models/menu.py'
tp3858
a(g3608
(S't\x08\x00\x00\x00Database'
tRp3859
I00
S'/newsapp/appadmin/index'
tp3860
a(g3608
(S't\x06\x00\x00\x00Errors'
tRp3861
I00
S'/admin/default/errors/newsapp'
tp3862
a(g3608
(S't\x05\x00\x00\x00About'
tRp3863
I00
S'/admin/default/about/newsapp'
tp3864
aasbasbasbasbasbasbasbag102
(g118
g104
NtRp3865
(dp3866
g107
(dp3867
sg116
g3722
sg109
(lp3868
g102
(g123
g104
NtRp3869
(dp3870
g107
(dp3871
sg116
g3865
sg109
(lp3872
g102
(g103
g104
NtRp3873
(dp3874
g107
(dp3875
g115
I2
ssg116
g3869
sg109
(lp3876
g102
(g111
g104
NtRp3877
(dp3878
g107
(dp3879
g115
I1
ssg116
Nsg109
(lp3880
g102
(g118
g104
NtRp3881
(dp3882
g107
(dp3883
sg116
g3877
sg109
(lp3884
g102
(g123
g104
NtRp3885
(dp3886
g107
(dp3887
sg116
g3881
sg109
(lp3888
g102
(g103
g104
NtRp3889
(dp3890
g107
(dp3891
g115
I1
ssg116
g3885
sg109
(lp3892
S'web2py.com'
p3893
asbasbasbag102
(g118
g104
NtRp3894
(dp3895
g107
(dp3896
sg116
g3877
sg109
(lp3897
g102
(g123
g104
NtRp3898
(dp3899
g107
(dp3900
sg116
g3894
sg109
(lp3901
g102
(g103
g104
NtRp3902
(dp3903
g107
(dp3904
g115
I1
ssg116
g3898
sg109
(lp3905
I00
asbasbasbag102
(g118
g104
NtRp3906
(dp3907
g107
(dp3908
sg116
g3877
sg109
(lp3909
g102
(g123
g104
NtRp3910
(dp3911
g107
(dp3912
sg116
g3906
sg109
(lp3913
g102
(g103
g104
NtRp3914
(dp3915
g107
(dp3916
g115
I1
ssg116
g3910
sg109
(lp3917
S'http://www.web2py.com'
p3918
asbasbasbag102
(g118
g104
NtRp3919
(dp3920
g107
(dp3921
sg116
g3877
sg109
(lp3922
g102
(g123
g104
NtRp3923
(dp3924
g107
(dp3925
sg116
g3919
sg109
(lp3926
g102
(g103
g104
NtRp3927
(dp3928
g107
(dp3929
g115
I1
ssg116
g3923
sg109
(lp3930
(lp3931
(g3608
(S't\x08\x00\x00\x00Download'
tRp3932
I00
S'http://www.web2py.com/examples/default/download'
p3933
tp3934
a(g3608
(S't\x07\x00\x00\x00Support'
tRp3935
I00
S'http://www.web2py.com/examples/default/support'
p3936
tp3937
a(g3608
(S't\x04\x00\x00\x00Demo'
tRp3938
I00
S'http://web2py.com/demo_admin'
p3939
tp3940
a(g3608
(S's\x0e\x00\x00\x00Quick Examples'
tRp3941
I00
S'http://web2py.com/examples/default/examples'
p3942
tp3943
a(g3608
(S't\x03\x00\x00\x00FAQ'
tRp3944
I00
S'http://web2py.com/AlterEgo'
p3945
tp3946
a(g3608
(S't\x06\x00\x00\x00Videos'
tRp3947
I00
S'http://www.web2py.com/examples/default/videos/'
p3948
tp3949
a(g3608
(S's\x11\x00\x00\x00Free Applications'
tRp3950
I00
S'http://web2py.com/appliances'
p3951
tp3952
a(g3608
(S't\x07\x00\x00\x00Plugins'
tRp3953
I00
S'http://web2py.com/plugins'
p3954
tp3955
a(g3608
(S't\x07\x00\x00\x00Layouts'
tRp3956
I00
S'http://web2py.com/layouts'
p3957
tp3958
a(g3608
(S't\x07\x00\x00\x00Recipes'
tRp3959
I00
S'http://web2pyslices.com/'
p3960
tp3961
a(g3608
(S't\x08\x00\x00\x00Semantic'
tRp3962
I00
S'http://web2py.com/semantic'
p3963
tp3964
aasbasbasbasbasbasbasbag102
(g118
g104
NtRp3965
(dp3966
g107
(dp3967
sg116
g3722
sg109
(lp3968
g102
(g123
g104
NtRp3969
(dp3970
g107
(dp3971
sg116
g3965
sg109
(lp3972
g102
(g103
g104
NtRp3973
(dp3974
g107
(dp3975
g115
I2
ssg116
g3969
sg109
(lp3976
g102
(g111
g104
NtRp3977
(dp3978
g107
(dp3979
g115
I1
ssg116
Nsg109
(lp3980
g102
(g118
g104
NtRp3981
(dp3982
g107
(dp3983
sg116
g3977
sg109
(lp3984
g102
(g123
g104
NtRp3985
(dp3986
g107
(dp3987
sg116
g3981
sg109
(lp3988
g102
(g103
g104
NtRp3989
(dp3990
g107
(dp3991
g115
I1
ssg116
g3985
sg109
(lp3992
g3608
(S't\r\x00\x00\x00Documentation'
tRp3993
asbasbasbag102
(g118
g104
NtRp3994
(dp3995
g107
(dp3996
sg116
g3977
sg109
(lp3997
g102
(g123
g104
NtRp3998
(dp3999
g107
(dp4000
sg116
g3994
sg109
(lp4001
g102
(g103
g104
NtRp4002
(dp4003
g107
(dp4004
g115
I1
ssg116
g3998
sg109
(lp4005
I00
asbasbasbag102
(g118
g104
NtRp4006
(dp4007
g107
(dp4008
sg116
g3977
sg109
(lp4009
g102
(g123
g104
NtRp4010
(dp4011
g107
(dp4012
sg116
g4006
sg109
(lp4013
g102
(g103
g104
NtRp4014
(dp4015
g107
(dp4016
g115
I1
ssg116
g4010
sg109
(lp4017
S'http://www.web2py.com/book'
p4018
asbasbasbag102
(g118
g104
NtRp4019
(dp4020
g107
(dp4021
sg116
g3977
sg109
(lp4022
g102
(g123
g104
NtRp4023
(dp4024
g107
(dp4025
sg116
g4019
sg109
(lp4026
g102
(g103
g104
NtRp4027
(dp4028
g107
(dp4029
g115
I1
ssg116
g4023
sg109
(lp4030
(lp4031
(g3608
(S't\x07\x00\x00\x00Preface'
tRp4032
I00
S'http://www.web2py.com/book/default/chapter/00'
p4033
tp4034
a(g3608
(S't\x0c\x00\x00\x00Introduction'
tRp4035
I00
S'http://www.web2py.com/book/default/chapter/01'
p4036
tp4037
a(g3608
(S't\x06\x00\x00\x00Python'
tRp4038
I00
S'http://www.web2py.com/book/default/chapter/02'
p4039
tp4040
a(g3608
(S't\x08\x00\x00\x00Overview'
tRp4041
I00
S'http://www.web2py.com/book/default/chapter/03'
p4042
tp4043
a(g3608
(S's\x08\x00\x00\x00The Core'
tRp4044
I00
S'http://www.web2py.com/book/default/chapter/04'
p4045
tp4046
a(g3608
(S's\t\x00\x00\x00The Views'
tRp4047
I00
S'http://www.web2py.com/book/default/chapter/05'
p4048
tp4049
a(g3608
(S't\x08\x00\x00\x00Database'
tRp4050
I00
S'http://www.web2py.com/book/default/chapter/06'
p4051
tp4052
a(g3608
(S's\x14\x00\x00\x00Forms and Validators'
tRp4053
I00
S'http://www.web2py.com/book/default/chapter/07'
p4054
tp4055
a(g3608
(S's\r\x00\x00\x00Email and SMS'
tRp4056
I00
S'http://www.web2py.com/book/default/chapter/08'
p4057
tp4058
a(g3608
(S's\x0e\x00\x00\x00Access Control'
tRp4059
I00
S'http://www.web2py.com/book/default/chapter/09'
p4060
tp4061
a(g3608
(S't\x08\x00\x00\x00Services'
tRp4062
I00
S'http://www.web2py.com/book/default/chapter/10'
p4063
tp4064
a(g3608
(S's\x0c\x00\x00\x00Ajax Recipes'
tRp4065
I00
S'http://www.web2py.com/book/default/chapter/11'
p4066
tp4067
a(g3608
(S's\x16\x00\x00\x00Components and Plugins'
tRp4068
I00
S'http://www.web2py.com/book/default/chapter/12'
p4069
tp4070
a(g3608
(S's\x12\x00\x00\x00Deployment Recipes'
tRp4071
I00
S'http://www.web2py.com/book/default/chapter/13'
p4072
tp4073
a(g3608
(S's\r\x00\x00\x00Other Recipes'
tRp4074
I00
S'http://www.web2py.com/book/default/chapter/14'
p4075
tp4076
a(g3608
(S's\r\x00\x00\x00Buy this book'
tRp4077
I00
S'http://stores.lulu.com/web2py'
p4078
tp4079
aasbasbasbasbasbasbasbag102
(g118
g104
NtRp4080
(dp4081
g107
(dp4082
sg116
g3722
sg109
(lp4083
g102
(g123
g104
NtRp4084
(dp4085
g107
(dp4086
sg116
g4080
sg109
(lp4087
g102
(g103
g104
NtRp4088
(dp4089
g107
(dp4090
g115
I2
ssg116
g4084
sg109
(lp4091
g102
(g111
g104
NtRp4092
(dp4093
g107
(dp4094
g115
I1
ssg116
Nsg109
(lp4095
g102
(g118
g104
NtRp4096
(dp4097
g107
(dp4098
sg116
g4092
sg109
(lp4099
g102
(g123
g104
NtRp4100
(dp4101
g107
(dp4102
sg116
g4096
sg109
(lp4103
g102
(g103
g104
NtRp4104
(dp4105
g107
(dp4106
g115
I1
ssg116
g4100
sg109
(lp4107
g3608
(S't\t\x00\x00\x00Community'
tRp4108
asbasbasbag102
(g118
g104
NtRp4109
(dp4110
g107
(dp4111
sg116
g4092
sg109
(lp4112
g102
(g123
g104
NtRp4113
(dp4114
g107
(dp4115
sg116
g4109
sg109
(lp4116
g102
(g103
g104
NtRp4117
(dp4118
g107
(dp4119
g115
I1
ssg116
g4113
sg109
(lp4120
I00
asbasbasbag102
(g118
g104
NtRp4121
(dp4122
g107
(dp4123
sg116
g4092
sg109
(lp4124
g102
(g123
g104
NtRp4125
(dp4126
g107
(dp4127
sg116
g4121
sg109
(lp4128
g102
(g103
g104
NtRp4129
(dp4130
g107
(dp4131
g115
I1
ssg116
g4125
sg109
(lp4132
Nasbasbasbag102
(g118
g104
NtRp4133
(dp4134
g107
(dp4135
sg116
g4092
sg109
(lp4136
g102
(g123
g104
NtRp4137
(dp4138
g107
(dp4139
sg116
g4133
sg109
(lp4140
g102
(g103
g104
NtRp4141
(dp4142
g107
(dp4143
g115
I1
ssg116
g4137
sg109
(lp4144
(lp4145
(g3608
(S't\x06\x00\x00\x00Groups'
tRp4146
I00
S'http://www.web2py.com/examples/default/usergroups'
p4147
tp4148
a(g3608
(S't\x07\x00\x00\x00Twitter'
tRp4149
I00
S'http://twitter.com/web2py'
p4150
tp4151
a(g3608
(S's\t\x00\x00\x00Live Chat'
tRp4152
I00
S'http://webchat.freenode.net/?channels=web2py'
p4153
tp4154
aasbasbasbasbasbasbasbag102
(g118
g104
NtRp4155
(dp4156
g107
(dp4157
sg116
g3722
sg109
(lp4158
g102
(g123
g104
NtRp4159
(dp4160
g107
(dp4161
sg116
g4155
sg109
(lp4162
g102
(g103
g104
NtRp4163
(dp4164
g107
(dp4165
g115
I2
ssg116
g4159
sg109
(lp4166
g102
(g111
g104
NtRp4167
(dp4168
g107
(dp4169
g115
I1
ssg116
Nsg109
(lp4170
g102
(g118
g104
NtRp4171
(dp4172
g107
(dp4173
sg116
g4167
sg109
(lp4174
g102
(g123
g104
NtRp4175
(dp4176
g107
(dp4177
sg116
g4171
sg109
(lp4178
g102
(g103
g104
NtRp4179
(dp4180
g107
(dp4181
g115
I1
ssg116
g4175
sg109
(lp4182
g3608
(S't\x07\x00\x00\x00Plugins'
tRp4183
asbasbasbag102
(g118
g104
NtRp4184
(dp4185
g107
(dp4186
sg116
g4167
sg109
(lp4187
g102
(g123
g104
NtRp4188
(dp4189
g107
(dp4190
sg116
g4184
sg109
(lp4191
g102
(g103
g104
NtRp4192
(dp4193
g107
(dp4194
g115
I1
ssg116
g4188
sg109
(lp4195
I00
asbasbasbag102
(g118
g104
NtRp4196
(dp4197
g107
(dp4198
sg116
g4167
sg109
(lp4199
g102
(g123
g104
NtRp4200
(dp4201
g107
(dp4202
sg116
g4196
sg109
(lp4203
g102
(g103
g104
NtRp4204
(dp4205
g107
(dp4206
g115
I1
ssg116
g4200
sg109
(lp4207
Nasbasbasbag102
(g118
g104
NtRp4208
(dp4209
g107
(dp4210
sg116
g4167
sg109
(lp4211
g102
(g123
g104
NtRp4212
(dp4213
g107
(dp4214
sg116
g4208
sg109
(lp4215
g102
(g103
g104
NtRp4216
(dp4217
g107
(dp4218
g115
I1
ssg116
g4212
sg109
(lp4219
(lp4220
(S'plugin_wiki'
p4221
I00
S'http://web2py.com/examples/default/download'
p4222
tp4223
a(g3608
(S's\r\x00\x00\x00Other Plugins'
tRp4224
I00
g3954
tp4225
a(g3608
(S's\x0e\x00\x00\x00Layout Plugins'
tRp4226
I00
g3957
tp4227
aasbasbasbasbasbasbasbasbasbasbasbasbasbasbasbasbasbasbasbag102
(g118
g104
NtRp4228
(dp4229
g107
(dp4230
sg116
g3053
sg109
(lp4231
g102
(g123
g104
NtRp4232
(dp4233
g107
(dp4234
g127
g128
ssg116
g4228
sg109
(lp4235
S'meta'
p4236
asbag102
(g123
g104
NtRp4237
(dp4238
g107
(dp4239
g134
g135
ssg116
g4228
sg109
(lp4240
S':'
asbag102
(g123
g104
NtRp4241
(dp4242
g107
(dp4243
sg116
g4228
sg109
(lp4244
g102
(g103
g104
NtRp4245
(dp4246
g107
(dp4247
g115
I5
ssg116
g4241
sg109
(lp4248
g102
(g111
g104
NtRp4249
(dp4250
g107
(dp4251
g115
I4
ssg116
Nsg109
(lp4252
g102
(g118
g104
NtRp4253
(dp4254
g107
(dp4255
sg116
g4249
sg109
(lp4256
g102
(g123
g104
NtRp4257
(dp4258
g107
(dp4259
g127
g128
ssg116
g4253
sg109
(lp4260
S'author'
p4261
asbag102
(g123
g104
NtRp4262
(dp4263
g107
(dp4264
g134
g135
ssg116
g4253
sg109
(lp4265
S':'
asbag102
(g123
g104
NtRp4266
(dp4267
g107
(dp4268
sg116
g4253
sg109
(lp4269
g102
(g103
g104
NtRp4270
(dp4271
g107
(dp4272
g115
I4
ssg116
g4266
sg109
(lp4273
S'Your Name <you@example.com>'
p4274
asbasbasbag102
(g118
g104
NtRp4275
(dp4276
g107
(dp4277
sg116
g4249
sg109
(lp4278
g102
(g123
g104
NtRp4279
(dp4280
g107
(dp4281
g127
g128
ssg116
g4275
sg109
(lp4282
S'copyright'
p4283
asbag102
(g123
g104
NtRp4284
(dp4285
g107
(dp4286
g134
g135
ssg116
g4275
sg109
(lp4287
S':'
asbag102
(g123
g104
NtRp4288
(dp4289
g107
(dp4290
sg116
g4275
sg109
(lp4291
g102
(g103
g104
NtRp4292
(dp4293
g107
(dp4294
g115
I4
ssg116
g4288
sg109
(lp4295
S'Copyright 2011'
p4296
asbasbasbag102
(g118
g104
NtRp4297
(dp4298
g107
(dp4299
sg116
g4249
sg109
(lp4300
g102
(g123
g104
NtRp4301
(dp4302
g107
(dp4303
g127
g128
ssg116
g4297
sg109
(lp4304
S'description'
p4305
asbag102
(g123
g104
NtRp4306
(dp4307
g107
(dp4308
g134
g135
ssg116
g4297
sg109
(lp4309
S':'
asbag102
(g123
g104
NtRp4310
(dp4311
g107
(dp4312
sg116
g4297
sg109
(lp4313
g102
(g103
g104
NtRp4314
(dp4315
g107
(dp4316
g115
I4
ssg116
g4310
sg109
(lp4317
S'a cool new app'
p4318
asbasbasbag102
(g118
g104
NtRp4319
(dp4320
g107
(dp4321
sg116
g4249
sg109
(lp4322
g102
(g123
g104
NtRp4323
(dp4324
g107
(dp4325
g127
g128
ssg116
g4319
sg109
(lp4326
S'generator'
p4327
asbag102
(g123
g104
NtRp4328
(dp4329
g107
(dp4330
g134
g135
ssg116
g4319
sg109
(lp4331
S':'
asbag102
(g123
g104
NtRp4332
(dp4333
g107
(dp4334
sg116
g4319
sg109
(lp4335
g102
(g103
g104
NtRp4336
(dp4337
g107
(dp4338
g115
I4
ssg116
g4332
sg109
(lp4339
S'Web2py Web Framework'
p4340
asbasbasbag102
(g118
g104
NtRp4341
(dp4342
g107
(dp4343
sg116
g4249
sg109
(lp4344
g102
(g123
g104
NtRp4345
(dp4346
g107
(dp4347
g127
g128
ssg116
g4341
sg109
(lp4348
S'keywords'
p4349
asbag102
(g123
g104
NtRp4350
(dp4351
g107
(dp4352
g134
g135
ssg116
g4341
sg109
(lp4353
S':'
asbag102
(g123
g104
NtRp4354
(dp4355
g107
(dp4356
sg116
g4341
sg109
(lp4357
g102
(g103
g104
NtRp4358
(dp4359
g107
(dp4360
g115
I4
ssg116
g4354
sg109
(lp4361
S'web2py, python, framework'
p4362
asbasbasbasbasbasbasbag102
(g118
g104
NtRp4363
(dp4364
g107
(dp4365
sg116
g3053
sg109
(lp4366
g102
(g123
g104
NtRp4367
(dp4368
g107
(dp4369
g127
g128
ssg116
g4363
sg109
(lp4370
S'postprocessing'
p4371
asbag102
(g123
g104
NtRp4372
(dp4373
g107
(dp4374
g134
g135
ssg116
g4363
sg109
(lp4375
S':'
asbag102
(g123
g104
NtRp4376
(dp4377
g107
(dp4378
sg116
g4363
sg109
(lp4379
g102
(g103
g104
NtRp4380
(dp4381
g107
(dp4382
g115
I5
ssg116
g4376
sg109
(lp4383
g102
(g111
g104
NtRp4384
(dp4385
g107
(dp4386
g115
I4
ssg116
Nsg109
(lp4387
sbasbasbasbag102
(g118
g104
NtRp4388
(dp4389
g107
(dp4390
sg116
g3053
sg109
(lp4391
g102
(g123
g104
NtRp4392
(dp4393
g107
(dp4394
g127
g128
ssg116
g4388
sg109
(lp4395
S'session_filename'
p4396
asbag102
(g123
g104
NtRp4397
(dp4398
g107
(dp4399
g134
g135
ssg116
g4388
sg109
(lp4400
S':'
asbag102
(g123
g104
NtRp4401
(dp4402
g107
(dp4403
sg116
g4388
sg109
(lp4404
g102
(g103
g104
NtRp4405
(dp4406
g107
(dp4407
g115
I5
ssg116
g4401
sg109
(lp4408
S'/home/pooja/web2py/applications/newsapp/sessions/127.0.0.1-3bd0f12a-341b-4dc6-853b-7596f5c8cca7'
p4409
asbasbasbag102
(g118
g104
NtRp4410
(dp4411
g107
(dp4412
sg116
g3053
sg109
(lp4413
g102
(g123
g104
NtRp4414
(dp4415
g107
(dp4416
g127
g128
ssg116
g4410
sg109
(lp4417
S'session_id'
p4418
asbag102
(g123
g104
NtRp4419
(dp4420
g107
(dp4421
g134
g135
ssg116
g4410
sg109
(lp4422
S':'
asbag102
(g123
g104
NtRp4423
(dp4424
g107
(dp4425
sg116
g4410
sg109
(lp4426
g102
(g103
g104
NtRp4427
(dp4428
g107
(dp4429
g115
I5
ssg116
g4423
sg109
(lp4430
S'127.0.0.1-3bd0f12a-341b-4dc6-853b-7596f5c8cca7'
p4431
asbasbasbag102
(g118
g104
NtRp4432
(dp4433
g107
(dp4434
sg116
g3053
sg109
(lp4435
g102
(g123
g104
NtRp4436
(dp4437
g107
(dp4438
g127
g128
ssg116
g4432
sg109
(lp4439
S'session_id_name'
p4440
asbag102
(g123
g104
NtRp4441
(dp4442
g107
(dp4443
g134
g135
ssg116
g4432
sg109
(lp4444
S':'
asbag102
(g123
g104
NtRp4445
(dp4446
g107
(dp4447
sg116
g4432
sg109
(lp4448
g102
(g103
g104
NtRp4449
(dp4450
g107
(dp4451
g115
I5
ssg116
g4445
sg109
(lp4452
g3110
asbasbasbag102
(g118
g104
NtRp4453
(dp4454
g107
(dp4455
sg116
g3053
sg109
(lp4456
g102
(g123
g104
NtRp4457
(dp4458
g107
(dp4459
g127
g128
ssg116
g4453
sg109
(lp4460
S'session_new'
p4461
asbag102
(g123
g104
NtRp4462
(dp4463
g107
(dp4464
g134
g135
ssg116
g4453
sg109
(lp4465
S':'
asbag102
(g123
g104
NtRp4466
(dp4467
g107
(dp4468
sg116
g4453
sg109
(lp4469
g102
(g103
g104
NtRp4470
(dp4471
g107
(dp4472
g115
I5
ssg116
g4466
sg109
(lp4473
g1516
asbasbasbag102
(g118
g104
NtRp4474
(dp4475
g107
(dp4476
sg116
g3053
sg109
(lp4477
g102
(g123
g104
NtRp4478
(dp4479
g107
(dp4480
g127
g128
ssg116
g4474
sg109
(lp4481
S'status'
p4482
asbag102
(g123
g104
NtRp4483
(dp4484
g107
(dp4485
g134
g135
ssg116
g4474
sg109
(lp4486
S':'
asbag102
(g123
g104
NtRp4487
(dp4488
g107
(dp4489
sg116
g4474
sg109
(lp4490
g102
(g103
g104
NtRp4491
(dp4492
g107
(dp4493
g115
I5
ssg116
g4487
sg109
(lp4494
S'200'
p4495
asbasbasbag102
(g118
g104
NtRp4496
(dp4497
g107
(dp4498
sg116
g3053
sg109
(lp4499
g102
(g123
g104
NtRp4500
(dp4501
g107
(dp4502
g127
g128
ssg116
g4496
sg109
(lp4503
S'subtitle'
p4504
asbag102
(g123
g104
NtRp4505
(dp4506
g107
(dp4507
g134
g135
ssg116
g4496
sg109
(lp4508
S':'
asbag102
(g123
g104
NtRp4509
(dp4510
g107
(dp4511
sg116
g4496
sg109
(lp4512
g102
(g103
g104
NtRp4513
(dp4514
g107
(dp4515
g115
I5
ssg116
g4509
sg109
(lp4516
g3608
(S's\r\x00\x00\x00customize me!'
tRp4517
asbasbasbag102
(g118
g104
NtRp4518
(dp4519
g107
(dp4520
sg116
g3053
sg109
(lp4521
g102
(g123
g104
NtRp4522
(dp4523
g107
(dp4524
g127
g128
ssg116
g4518
sg109
(lp4525
S'title'
p4526
asbag102
(g123
g104
NtRp4527
(dp4528
g107
(dp4529
g134
g135
ssg116
g4518
sg109
(lp4530
S':'
asbag102
(g123
g104
NtRp4531
(dp4532
g107
(dp4533
sg116
g4518
sg109
(lp4534
g102
(g103
g104
NtRp4535
(dp4536
g107
(dp4537
g115
I5
ssg116
g4531
sg109
(lp4538
S'Newsapp'
p4539
asbasbasbag102
(g118
g104
NtRp4540
(dp4541
g107
(dp4542
sg116
g3053
sg109
(lp4543
g102
(g123
g104
NtRp4544
(dp4545
g107
(dp4546
g127
g128
ssg116
g4540
sg109
(lp4547
g2179
asbag102
(g123
g104
NtRp4548
(dp4549
g107
(dp4550
g134
g135
ssg116
g4540
sg109
(lp4551
S':'
asbag102
(g123
g104
NtRp4552
(dp4553
g107
(dp4554
sg116
g4540
sg109
(lp4555
g102
(g103
g104
NtRp4556
(dp4557
g107
(dp4558
g115
I5
ssg116
g4552
sg109
(lp4559
g2192
asbasbasbag102
(g118
g104
NtRp4560
(dp4561
g107
(dp4562
sg116
g3053
sg109
(lp4563
g102
(g123
g104
NtRp4564
(dp4565
g107
(dp4566
g127
g128
ssg116
g4560
sg109
(lp4567
S'view'
p4568
asbag102
(g123
g104
NtRp4569
(dp4570
g107
(dp4571
g134
g135
ssg116
g4560
sg109
(lp4572
S':'
asbag102
(g123
g104
NtRp4573
(dp4574
g107
(dp4575
sg116
g4560
sg109
(lp4576
g102
(g103
g104
NtRp4577
(dp4578
g107
(dp4579
g115
I5
ssg116
g4573
sg109
(lp4580
S'default/fbuser.html'
p4581
asbasbasbasbasbsS'locals'
p4582
(dp4583
g59
S'<addinfourl at 140249592980904 whose fp = <socket._fileobject object>>'
p4584
sg6
S'400'
p4585
sg61
S'<httplib.HTTPMessage instance>'
p4586
sS'self'
p4587
S'<urllib2.HTTPDefaultErrorHandler instance>'
p4588
sS'req'
p4589
S'<urllib2.Request instance>'
p4590
sg55
S"'Bad Request'"
p4591
sssS'traceback'
p4592
S'Traceback (most recent call last):\n  File "/usr/lib/pymodules/python2.7/gluon/restricted.py", line 205, in restricted\n    exec ccode in environment\n  File "/home/pooja/web2py/applications/newsapp/controllers/default.py", line 101, in <module>\n  File "/usr/lib/pymodules/python2.7/gluon/globals.py", line 173, in <lambda>\n    self._caller = lambda f: f()\n  File "/home/pooja/web2py/applications/newsapp/controllers/default.py", line 78, in fbuser\n    details = urllib2.urlopen(url1)\n  File "/usr/lib/python2.7/urllib2.py", line 127, in urlopen\n    return _opener.open(url, data, timeout)\n  File "/usr/lib/python2.7/urllib2.py", line 410, in open\n    response = meth(req, response)\n  File "/usr/lib/python2.7/urllib2.py", line 523, in http_response\n    \'http\', request, response, code, msg, hdrs)\n  File "/usr/lib/python2.7/urllib2.py", line 448, in error\n    return self._call_chain(*args)\n  File "/usr/lib/python2.7/urllib2.py", line 382, in _call_chain\n    result = func(*args)\n  File "/usr/lib/python2.7/urllib2.py", line 531, in http_error_default\n    raise HTTPError(req.get_full_url(), code, msg, hdrs, fp)\nHTTPError: HTTP Error 400: Bad Request\n'
p4593
s.