(dp1
S'output'
p2
S"<type 'exceptions.KeyError'> 0"
p3
sS'layer'
p4
S'/home/pooja/web2py/applications/newsapp/controllers/default.py'
p5
sS'code'
p6
S'import urllib,urllib2\nfrom urlparse import *\nimport sys\nimport os\nfrom oauth2 import *\nfrom gluon import *\nimport cgi\nimport cgitb; cgitb.enable()\nimport json\n\n\ndef index():\n    return dict()\n\ndef tw_signin():\n    app = Consumer(key= "dJvGhNEaw6ivlQGals8g1mMu9", secret= "n5qBLoWVO77KHLfAUB1Z5wTYtO7ed62XmNbq52bmYjEFYdJNQi")\n    client = Client(app)\n    response, content = client.request(\'https://twitter.com/oauth/request_token\', "GET")\n    if response[\'status\'] != \'200\':\n        raise HTTP(response[\'status\']),str(content)\n    request_token = dict(parse_qsl(content))\n    session.request_token = request_token\n    redirect_location = "%s?oauth_token=%s" % (\'https://twitter.com/oauth/authenticate\', request_token[\'oauth_token\'])\n    redirect(redirect_location)\n    return\n\ndef permission():\n    if not(session.request_token is None):\n        consumer = Consumer(key= "dJvGhNEaw6ivlQGals8g1mMu9", secret= "n5qBLoWVO77KHLfAUB1Z5wTYtO7ed62XmNbq52bmYjEFYdJNQi")\n        token = None\n        try:\n            token = Token(session.request_token[\'oauth_token\'],session.request_token[\'oauth_token_secret\'])\n        except:\n            redirect(URL(r=request,c=\'default\', f=\'index\'))\n        token.set_verifier(request.vars[\'oauth_verifier\'])\n        client = Client(consumer, token)\n        response, content = client.request(\'https://twitter.com/oauth/access_token\', "POST")\n        if response[\'status\'] == \'401\':\n            BEAUTIFY("you have denied the request")\n            redirect(URL(r=request,c=\'default\', f=\'index\'))\n        if response[\'status\'] != \'200\':\n            return response[\'status\'],str(content)\n        access_token = dict(parse_qsl(content))\n        session.access_token = access_token\n        user_id = int(access_token[\'user_id\'])\n        name =(access_token[\'screen_name\'])\n        tw_status_query = """\n            INSERT IGNORE INTO  tw_details(screen_name,user_id,tw_token,tw_token_secret) VALUES (\'%s\',\'%s\',\'%s\',\'%s\')\n    ON DUPLICATE KEY UPDATE tw_token=\'%s\',tw_token_secret=\'%s\';"""%(name,user_id,session.access_token[\'oauth_token\'],session.access_token[\'oauth_token_secret\'],session.access_token[\'oauth_token\'],session.access_token[\'oauth_token_secret\'])\n    tw_status = db.executesql(tw_status_query)\n    redirect(URL(r=request,c=\'default\', f=\'tw_trends\'))\n    return\n\ndef tw_trends():\n    if not(session.request_token is None):\n        consumer = Consumer(key= "dJvGhNEaw6ivlQGals8g1mMu9", secret= "n5qBLoWVO77KHLfAUB1Z5wTYtO7ed62XmNbq52bmYjEFYdJNQi")\n        token = Token(session.access_token[\'oauth_token\'],session.access_token[\'oauth_token_secret\'])\n        client = Client(consumer, token)\n        #response, content = client.request(\'https://api.twitter.com/1.1/statuses/user_timeline.json?screen_name=poojakvj\', "GET")\n        #response, content = client.request(\'https://api.twitter.com/1.1/trends/available.json\', "GET")\n        response, content = client.request(\'https://api.twitter.com/1.1/trends/place.json?id=23424848\', "GET")\n        data = json.loads(content)\n        print data[0][0]\n        return dict(content = data)\n\ndef get_extented_token():\n    token = request.vars.token\n    url1 = "https://graph.facebook.com/"\n    url1 += \'me?access_token=%s\'%(token)\n    details = urllib2.urlopen(url1)\n    dict_response = json.loads(details.read())\n    name = dict_response[\'name\']\n    email_id = dict_response[\'email\']\n    fb_id = dict_response[\'id\']\n    session.email_id = email_id\n    session.fb_id = fb_id\n    url = "https://graph.facebook.com/"\n    url += "oauth/access_token?client_id="+fbconfig.app_id+"&client_secret="+fbconfig.app_secret\n    url += "&grant_type=fb_exchange_token"\n    url += "&fb_exchange_token=%s"%(token)\n\n    data = urllib2.urlopen(url)\n\n    interm = data.read().split("=")\n    token = interm[1].split("&")\n    extended_token = token[0]\n    session.extended_token = extended_token\n    expires = interm[2]\n\ndef fbuser():\n    token = request.vars.token\n    url1 = "https://graph.facebook.com/"\n    url1 += \'me?access_token=%s\'%(token)\n    details = urllib2.urlopen(url1)\n    dict_response = json.loads(details.read())\n    name = dict_response[\'name\']\n    email_id = ""\n    try:\n        email_id = dict_response[\'email\']\n    except:\n        pass\n    fb_id = dict_response[\'id\']\n    url = "https://graph.facebook.com/"\n    url += "oauth/access_token?client_id="+fbconfig.app_id+"&client_secret="+fbconfig.app_secret\n    url += "&grant_type=fb_exchange_token"\n    url += "&fb_exchange_token=%s"%(token)\n\n    data = urllib2.urlopen(url)\n    interm = data.read().split("=")\n    token = interm[1].split("&")\n    extended_token = token[0]\n    session.extended_token = extended_token\n    expires = interm[2]\n    fb_status = db.executesql("""INSERT IGNORE INTO  fb_details(name,email_id,fb_id,access_token,expiry) VALUES (%s,%s,%s,%s,%s);""",(name,email_id,session.fb_id,extended_token,expires))\n    return dict()\n\nresponse._vars=response._caller(tw_trends)\n'
p7
sS'snapshot'
p8
(dp9
S'exception'
p10
(dp11
S'__hash__'
p12
S"<method-wrapper '__hash__' of exceptions.KeyError object>"
p13
sS'__setattr__'
p14
S"<method-wrapper '__setattr__' of exceptions.KeyError object>"
p15
sS'__reduce_ex__'
p16
S'<built-in method __reduce_ex__ of exceptions.KeyError object>'
p17
sS'__getslice__'
p18
S"<method-wrapper '__getslice__' of exceptions.KeyError object>"
p19
sS'__getitem__'
p20
S"<method-wrapper '__getitem__' of exceptions.KeyError object>"
p21
sS'__setstate__'
p22
S'<built-in method __setstate__ of exceptions.KeyError object>'
p23
sS'args'
p24
S'(0,)'
p25
sS'__reduce__'
p26
S'<built-in method __reduce__ of exceptions.KeyError object>'
p27
sS'__str__'
p28
S"<method-wrapper '__str__' of exceptions.KeyError object>"
p29
sS'__format__'
p30
S'<built-in method __format__ of exceptions.KeyError object>'
p31
sS'__getattribute__'
p32
S"<method-wrapper '__getattribute__' of exceptions.KeyError object>"
p33
sS'__class__'
p34
S"<type 'exceptions.KeyError'>"
p35
sS'__unicode__'
p36
S'<built-in method __unicode__ of exceptions.KeyError object>'
p37
sS'__delattr__'
p38
S"<method-wrapper '__delattr__' of exceptions.KeyError object>"
p39
sS'__subclasshook__'
p40
S'<built-in method __subclasshook__ of type object>'
p41
sS'__repr__'
p42
S"<method-wrapper '__repr__' of exceptions.KeyError object>"
p43
sS'__dict__'
p44
S'{}'
p45
sS'__sizeof__'
p46
S'<built-in method __sizeof__ of exceptions.KeyError object>'
p47
sS'__doc__'
p48
S"'Mapping key not found.'"
p49
sS'__init__'
p50
S"<method-wrapper '__init__' of exceptions.KeyError object>"
p51
sS'__new__'
p52
S'<built-in method __new__ of type object>'
p53
ssS'evalue'
p54
S'0'
sS'request'
p55
ccopy_reg
_reconstructor
p56
(cgluon.html
BEAUTIFY
p57
c__builtin__
object
p58
NtRp59
(dp60
S'attributes'
p61
(dp62
sS'components'
p63
(lp64
g56
(cgluon.html
TABLE
p65
g58
NtRp66
(dp67
g61
(dp68
S'level'
p69
I5
ssS'parent'
p70
Nsg63
(lp71
g56
(cgluon.html
TR
p72
g58
NtRp73
(dp74
g61
(dp75
sg70
g66
sg63
(lp76
g56
(cgluon.html
TD
p77
g58
NtRp78
(dp79
g61
(dp80
S'_style'
p81
S'font-weight:bold;vertical-align:top'
p82
ssg70
g73
sg63
(lp83
S'ajax'
p84
asbag56
(g77
g58
NtRp85
(dp86
g61
(dp87
S'_valign'
p88
S'top'
p89
ssg70
g73
sg63
(lp90
S':'
asbag56
(g77
g58
NtRp91
(dp92
g61
(dp93
sg70
g73
sg63
(lp94
g56
(g57
g58
NtRp95
(dp96
g61
(dp97
g69
I5
ssg70
g91
sg63
(lp98
S'False'
p99
asbasbasbag56
(g72
g58
NtRp100
(dp101
g61
(dp102
sg70
g66
sg63
(lp103
g56
(g77
g58
NtRp104
(dp105
g61
(dp106
g81
g82
ssg70
g100
sg63
(lp107
S'application'
p108
asbag56
(g77
g58
NtRp109
(dp110
g61
(dp111
g88
g89
ssg70
g100
sg63
(lp112
S':'
asbag56
(g77
g58
NtRp113
(dp114
g61
(dp115
sg70
g100
sg63
(lp116
g56
(g57
g58
NtRp117
(dp118
g61
(dp119
g69
I5
ssg70
g113
sg63
(lp120
S'newsapp'
p121
asbasbasbag56
(g72
g58
NtRp122
(dp123
g61
(dp124
sg70
g66
sg63
(lp125
g56
(g77
g58
NtRp126
(dp127
g61
(dp128
g81
g82
ssg70
g122
sg63
(lp129
g24
asbag56
(g77
g58
NtRp130
(dp131
g61
(dp132
g88
g89
ssg70
g122
sg63
(lp133
S':'
asbag56
(g77
g58
NtRp134
(dp135
g61
(dp136
sg70
g122
sg63
(lp137
g56
(g57
g58
NtRp138
(dp139
g61
(dp140
g69
I5
ssg70
g134
sg63
(lp141
g56
(g65
g58
NtRp142
(dp143
g61
(dp144
g69
I4
ssg70
Nsg63
(lp145
sbasbasbasbag56
(g72
g58
NtRp146
(dp147
g61
(dp148
sg70
g66
sg63
(lp149
g56
(g77
g58
NtRp150
(dp151
g61
(dp152
g81
g82
ssg70
g146
sg63
(lp153
S'body'
p154
asbag56
(g77
g58
NtRp155
(dp156
g61
(dp157
g88
g89
ssg70
g146
sg63
(lp158
S':'
asbag56
(g77
g58
NtRp159
(dp160
g61
(dp161
sg70
g146
sg63
(lp162
g56
(g57
g58
NtRp163
(dp164
g61
(dp165
g69
I5
ssg70
g159
sg63
(lp166
S'<cStringIO.StringO object at 0x7f4869ce2f48>'
p167
asbasbasbag56
(g72
g58
NtRp168
(dp169
g61
(dp170
sg70
g66
sg63
(lp171
g56
(g77
g58
NtRp172
(dp173
g61
(dp174
g81
g82
ssg70
g168
sg63
(lp175
S'client'
p176
asbag56
(g77
g58
NtRp177
(dp178
g61
(dp179
g88
g89
ssg70
g168
sg63
(lp180
S':'
asbag56
(g77
g58
NtRp181
(dp182
g61
(dp183
sg70
g168
sg63
(lp184
g56
(g57
g58
NtRp185
(dp186
g61
(dp187
g69
I5
ssg70
g181
sg63
(lp188
S'127.0.0.1'
p189
asbasbasbag56
(g72
g58
NtRp190
(dp191
g61
(dp192
sg70
g66
sg63
(lp193
g56
(g77
g58
NtRp194
(dp195
g61
(dp196
g81
g82
ssg70
g190
sg63
(lp197
S'controller'
p198
asbag56
(g77
g58
NtRp199
(dp200
g61
(dp201
g88
g89
ssg70
g190
sg63
(lp202
S':'
asbag56
(g77
g58
NtRp203
(dp204
g61
(dp205
sg70
g190
sg63
(lp206
g56
(g57
g58
NtRp207
(dp208
g61
(dp209
g69
I5
ssg70
g203
sg63
(lp210
S'default'
p211
asbasbasbag56
(g72
g58
NtRp212
(dp213
g61
(dp214
sg70
g66
sg63
(lp215
g56
(g77
g58
NtRp216
(dp217
g61
(dp218
g81
g82
ssg70
g212
sg63
(lp219
S'cookies'
p220
asbag56
(g77
g58
NtRp221
(dp222
g61
(dp223
g88
g89
ssg70
g212
sg63
(lp224
S':'
asbag56
(g77
g58
NtRp225
(dp226
g61
(dp227
sg70
g212
sg63
(lp228
g56
(g57
g58
NtRp229
(dp230
g61
(dp231
g69
I5
ssg70
g225
sg63
(lp232
g56
(g65
g58
NtRp233
(dp234
g61
(dp235
g69
I4
ssg70
Nsg63
(lp236
g56
(g72
g58
NtRp237
(dp238
g61
(dp239
sg70
g233
sg63
(lp240
g56
(g77
g58
NtRp241
(dp242
g61
(dp243
g81
g82
ssg70
g237
sg63
(lp244
S'session_id_admin'
p245
asbag56
(g77
g58
NtRp246
(dp247
g61
(dp248
g88
g89
ssg70
g237
sg63
(lp249
S':'
asbag56
(g77
g58
NtRp250
(dp251
g61
(dp252
sg70
g237
sg63
(lp253
g56
(g57
g58
NtRp254
(dp255
g61
(dp256
g69
I4
ssg70
g250
sg63
(lp257
g56
(g65
g58
NtRp258
(dp259
g61
(dp260
g69
I3
ssg70
Nsg63
(lp261
g56
(g72
g58
NtRp262
(dp263
g61
(dp264
sg70
g258
sg63
(lp265
g56
(g77
g58
NtRp266
(dp267
g61
(dp268
g81
g82
ssg70
g262
sg63
(lp269
S'comment'
p270
asbag56
(g77
g58
NtRp271
(dp272
g61
(dp273
g88
g89
ssg70
g262
sg63
(lp274
S':'
asbag56
(g77
g58
NtRp275
(dp276
g61
(dp277
sg70
g262
sg63
(lp278
g56
(g57
g58
NtRp279
(dp280
g61
(dp281
g69
I3
ssg70
g275
sg63
(lp282
S''
asbasbasbag56
(g72
g58
NtRp283
(dp284
g61
(dp285
sg70
g258
sg63
(lp286
g56
(g77
g58
NtRp287
(dp288
g61
(dp289
g81
g82
ssg70
g283
sg63
(lp290
S'domain'
p291
asbag56
(g77
g58
NtRp292
(dp293
g61
(dp294
g88
g89
ssg70
g283
sg63
(lp295
S':'
asbag56
(g77
g58
NtRp296
(dp297
g61
(dp298
sg70
g283
sg63
(lp299
g56
(g57
g58
NtRp300
(dp301
g61
(dp302
g69
I3
ssg70
g296
sg63
(lp303
S''
asbasbasbag56
(g72
g58
NtRp304
(dp305
g61
(dp306
sg70
g258
sg63
(lp307
g56
(g77
g58
NtRp308
(dp309
g61
(dp310
g81
g82
ssg70
g304
sg63
(lp311
S'expires'
p312
asbag56
(g77
g58
NtRp313
(dp314
g61
(dp315
g88
g89
ssg70
g304
sg63
(lp316
S':'
asbag56
(g77
g58
NtRp317
(dp318
g61
(dp319
sg70
g304
sg63
(lp320
g56
(g57
g58
NtRp321
(dp322
g61
(dp323
g69
I3
ssg70
g317
sg63
(lp324
S''
asbasbasbag56
(g72
g58
NtRp325
(dp326
g61
(dp327
sg70
g258
sg63
(lp328
g56
(g77
g58
NtRp329
(dp330
g61
(dp331
g81
g82
ssg70
g325
sg63
(lp332
S'httponly'
p333
asbag56
(g77
g58
NtRp334
(dp335
g61
(dp336
g88
g89
ssg70
g325
sg63
(lp337
S':'
asbag56
(g77
g58
NtRp338
(dp339
g61
(dp340
sg70
g325
sg63
(lp341
g56
(g57
g58
NtRp342
(dp343
g61
(dp344
g69
I3
ssg70
g338
sg63
(lp345
S''
asbasbasbag56
(g72
g58
NtRp346
(dp347
g61
(dp348
sg70
g258
sg63
(lp349
g56
(g77
g58
NtRp350
(dp351
g61
(dp352
g81
g82
ssg70
g346
sg63
(lp353
S'max-age'
p354
asbag56
(g77
g58
NtRp355
(dp356
g61
(dp357
g88
g89
ssg70
g346
sg63
(lp358
S':'
asbag56
(g77
g58
NtRp359
(dp360
g61
(dp361
sg70
g346
sg63
(lp362
g56
(g57
g58
NtRp363
(dp364
g61
(dp365
g69
I3
ssg70
g359
sg63
(lp366
S''
asbasbasbag56
(g72
g58
NtRp367
(dp368
g61
(dp369
sg70
g258
sg63
(lp370
g56
(g77
g58
NtRp371
(dp372
g61
(dp373
g81
g82
ssg70
g367
sg63
(lp374
S'path'
p375
asbag56
(g77
g58
NtRp376
(dp377
g61
(dp378
g88
g89
ssg70
g367
sg63
(lp379
S':'
asbag56
(g77
g58
NtRp380
(dp381
g61
(dp382
sg70
g367
sg63
(lp383
g56
(g57
g58
NtRp384
(dp385
g61
(dp386
g69
I3
ssg70
g380
sg63
(lp387
S''
asbasbasbag56
(g72
g58
NtRp388
(dp389
g61
(dp390
sg70
g258
sg63
(lp391
g56
(g77
g58
NtRp392
(dp393
g61
(dp394
g81
g82
ssg70
g388
sg63
(lp395
S'secure'
p396
asbag56
(g77
g58
NtRp397
(dp398
g61
(dp399
g88
g89
ssg70
g388
sg63
(lp400
S':'
asbag56
(g77
g58
NtRp401
(dp402
g61
(dp403
sg70
g388
sg63
(lp404
g56
(g57
g58
NtRp405
(dp406
g61
(dp407
g69
I3
ssg70
g401
sg63
(lp408
S''
asbasbasbag56
(g72
g58
NtRp409
(dp410
g61
(dp411
sg70
g258
sg63
(lp412
g56
(g77
g58
NtRp413
(dp414
g61
(dp415
g81
g82
ssg70
g409
sg63
(lp416
S'version'
p417
asbag56
(g77
g58
NtRp418
(dp419
g61
(dp420
g88
g89
ssg70
g409
sg63
(lp421
S':'
asbag56
(g77
g58
NtRp422
(dp423
g61
(dp424
sg70
g409
sg63
(lp425
g56
(g57
g58
NtRp426
(dp427
g61
(dp428
g69
I3
ssg70
g422
sg63
(lp429
S''
asbasbasbasbasbasbasbag56
(g72
g58
NtRp430
(dp431
g61
(dp432
sg70
g233
sg63
(lp433
g56
(g77
g58
NtRp434
(dp435
g61
(dp436
g81
g82
ssg70
g430
sg63
(lp437
S'session_id_newsapp'
p438
asbag56
(g77
g58
NtRp439
(dp440
g61
(dp441
g88
g89
ssg70
g430
sg63
(lp442
S':'
asbag56
(g77
g58
NtRp443
(dp444
g61
(dp445
sg70
g430
sg63
(lp446
g56
(g57
g58
NtRp447
(dp448
g61
(dp449
g69
I4
ssg70
g443
sg63
(lp450
g56
(g65
g58
NtRp451
(dp452
g61
(dp453
g69
I3
ssg70
Nsg63
(lp454
g56
(g72
g58
NtRp455
(dp456
g61
(dp457
sg70
g451
sg63
(lp458
g56
(g77
g58
NtRp459
(dp460
g61
(dp461
g81
g82
ssg70
g455
sg63
(lp462
g270
asbag56
(g77
g58
NtRp463
(dp464
g61
(dp465
g88
g89
ssg70
g455
sg63
(lp466
S':'
asbag56
(g77
g58
NtRp467
(dp468
g61
(dp469
sg70
g455
sg63
(lp470
g56
(g57
g58
NtRp471
(dp472
g61
(dp473
g69
I3
ssg70
g467
sg63
(lp474
S''
asbasbasbag56
(g72
g58
NtRp475
(dp476
g61
(dp477
sg70
g451
sg63
(lp478
g56
(g77
g58
NtRp479
(dp480
g61
(dp481
g81
g82
ssg70
g475
sg63
(lp482
g291
asbag56
(g77
g58
NtRp483
(dp484
g61
(dp485
g88
g89
ssg70
g475
sg63
(lp486
S':'
asbag56
(g77
g58
NtRp487
(dp488
g61
(dp489
sg70
g475
sg63
(lp490
g56
(g57
g58
NtRp491
(dp492
g61
(dp493
g69
I3
ssg70
g487
sg63
(lp494
S''
asbasbasbag56
(g72
g58
NtRp495
(dp496
g61
(dp497
sg70
g451
sg63
(lp498
g56
(g77
g58
NtRp499
(dp500
g61
(dp501
g81
g82
ssg70
g495
sg63
(lp502
g312
asbag56
(g77
g58
NtRp503
(dp504
g61
(dp505
g88
g89
ssg70
g495
sg63
(lp506
S':'
asbag56
(g77
g58
NtRp507
(dp508
g61
(dp509
sg70
g495
sg63
(lp510
g56
(g57
g58
NtRp511
(dp512
g61
(dp513
g69
I3
ssg70
g507
sg63
(lp514
S''
asbasbasbag56
(g72
g58
NtRp515
(dp516
g61
(dp517
sg70
g451
sg63
(lp518
g56
(g77
g58
NtRp519
(dp520
g61
(dp521
g81
g82
ssg70
g515
sg63
(lp522
g333
asbag56
(g77
g58
NtRp523
(dp524
g61
(dp525
g88
g89
ssg70
g515
sg63
(lp526
S':'
asbag56
(g77
g58
NtRp527
(dp528
g61
(dp529
sg70
g515
sg63
(lp530
g56
(g57
g58
NtRp531
(dp532
g61
(dp533
g69
I3
ssg70
g527
sg63
(lp534
S''
asbasbasbag56
(g72
g58
NtRp535
(dp536
g61
(dp537
sg70
g451
sg63
(lp538
g56
(g77
g58
NtRp539
(dp540
g61
(dp541
g81
g82
ssg70
g535
sg63
(lp542
g354
asbag56
(g77
g58
NtRp543
(dp544
g61
(dp545
g88
g89
ssg70
g535
sg63
(lp546
S':'
asbag56
(g77
g58
NtRp547
(dp548
g61
(dp549
sg70
g535
sg63
(lp550
g56
(g57
g58
NtRp551
(dp552
g61
(dp553
g69
I3
ssg70
g547
sg63
(lp554
S''
asbasbasbag56
(g72
g58
NtRp555
(dp556
g61
(dp557
sg70
g451
sg63
(lp558
g56
(g77
g58
NtRp559
(dp560
g61
(dp561
g81
g82
ssg70
g555
sg63
(lp562
g375
asbag56
(g77
g58
NtRp563
(dp564
g61
(dp565
g88
g89
ssg70
g555
sg63
(lp566
S':'
asbag56
(g77
g58
NtRp567
(dp568
g61
(dp569
sg70
g555
sg63
(lp570
g56
(g57
g58
NtRp571
(dp572
g61
(dp573
g69
I3
ssg70
g567
sg63
(lp574
S''
asbasbasbag56
(g72
g58
NtRp575
(dp576
g61
(dp577
sg70
g451
sg63
(lp578
g56
(g77
g58
NtRp579
(dp580
g61
(dp581
g81
g82
ssg70
g575
sg63
(lp582
g396
asbag56
(g77
g58
NtRp583
(dp584
g61
(dp585
g88
g89
ssg70
g575
sg63
(lp586
S':'
asbag56
(g77
g58
NtRp587
(dp588
g61
(dp589
sg70
g575
sg63
(lp590
g56
(g57
g58
NtRp591
(dp592
g61
(dp593
g69
I3
ssg70
g587
sg63
(lp594
S''
asbasbasbag56
(g72
g58
NtRp595
(dp596
g61
(dp597
sg70
g451
sg63
(lp598
g56
(g77
g58
NtRp599
(dp600
g61
(dp601
g81
g82
ssg70
g595
sg63
(lp602
g417
asbag56
(g77
g58
NtRp603
(dp604
g61
(dp605
g88
g89
ssg70
g595
sg63
(lp606
S':'
asbag56
(g77
g58
NtRp607
(dp608
g61
(dp609
sg70
g595
sg63
(lp610
g56
(g57
g58
NtRp611
(dp612
g61
(dp613
g69
I3
ssg70
g607
sg63
(lp614
S''
asbasbasbasbasbasbasbag56
(g72
g58
NtRp615
(dp616
g61
(dp617
sg70
g233
sg63
(lp618
g56
(g77
g58
NtRp619
(dp620
g61
(dp621
g81
g82
ssg70
g615
sg63
(lp622
S'session_id_welcome'
p623
asbag56
(g77
g58
NtRp624
(dp625
g61
(dp626
g88
g89
ssg70
g615
sg63
(lp627
S':'
asbag56
(g77
g58
NtRp628
(dp629
g61
(dp630
sg70
g615
sg63
(lp631
g56
(g57
g58
NtRp632
(dp633
g61
(dp634
g69
I4
ssg70
g628
sg63
(lp635
g56
(g65
g58
NtRp636
(dp637
g61
(dp638
g69
I3
ssg70
Nsg63
(lp639
g56
(g72
g58
NtRp640
(dp641
g61
(dp642
sg70
g636
sg63
(lp643
g56
(g77
g58
NtRp644
(dp645
g61
(dp646
g81
g82
ssg70
g640
sg63
(lp647
g270
asbag56
(g77
g58
NtRp648
(dp649
g61
(dp650
g88
g89
ssg70
g640
sg63
(lp651
S':'
asbag56
(g77
g58
NtRp652
(dp653
g61
(dp654
sg70
g640
sg63
(lp655
g56
(g57
g58
NtRp656
(dp657
g61
(dp658
g69
I3
ssg70
g652
sg63
(lp659
S''
asbasbasbag56
(g72
g58
NtRp660
(dp661
g61
(dp662
sg70
g636
sg63
(lp663
g56
(g77
g58
NtRp664
(dp665
g61
(dp666
g81
g82
ssg70
g660
sg63
(lp667
g291
asbag56
(g77
g58
NtRp668
(dp669
g61
(dp670
g88
g89
ssg70
g660
sg63
(lp671
S':'
asbag56
(g77
g58
NtRp672
(dp673
g61
(dp674
sg70
g660
sg63
(lp675
g56
(g57
g58
NtRp676
(dp677
g61
(dp678
g69
I3
ssg70
g672
sg63
(lp679
S''
asbasbasbag56
(g72
g58
NtRp680
(dp681
g61
(dp682
sg70
g636
sg63
(lp683
g56
(g77
g58
NtRp684
(dp685
g61
(dp686
g81
g82
ssg70
g680
sg63
(lp687
g312
asbag56
(g77
g58
NtRp688
(dp689
g61
(dp690
g88
g89
ssg70
g680
sg63
(lp691
S':'
asbag56
(g77
g58
NtRp692
(dp693
g61
(dp694
sg70
g680
sg63
(lp695
g56
(g57
g58
NtRp696
(dp697
g61
(dp698
g69
I3
ssg70
g692
sg63
(lp699
S''
asbasbasbag56
(g72
g58
NtRp700
(dp701
g61
(dp702
sg70
g636
sg63
(lp703
g56
(g77
g58
NtRp704
(dp705
g61
(dp706
g81
g82
ssg70
g700
sg63
(lp707
g333
asbag56
(g77
g58
NtRp708
(dp709
g61
(dp710
g88
g89
ssg70
g700
sg63
(lp711
S':'
asbag56
(g77
g58
NtRp712
(dp713
g61
(dp714
sg70
g700
sg63
(lp715
g56
(g57
g58
NtRp716
(dp717
g61
(dp718
g69
I3
ssg70
g712
sg63
(lp719
S''
asbasbasbag56
(g72
g58
NtRp720
(dp721
g61
(dp722
sg70
g636
sg63
(lp723
g56
(g77
g58
NtRp724
(dp725
g61
(dp726
g81
g82
ssg70
g720
sg63
(lp727
g354
asbag56
(g77
g58
NtRp728
(dp729
g61
(dp730
g88
g89
ssg70
g720
sg63
(lp731
S':'
asbag56
(g77
g58
NtRp732
(dp733
g61
(dp734
sg70
g720
sg63
(lp735
g56
(g57
g58
NtRp736
(dp737
g61
(dp738
g69
I3
ssg70
g732
sg63
(lp739
S''
asbasbasbag56
(g72
g58
NtRp740
(dp741
g61
(dp742
sg70
g636
sg63
(lp743
g56
(g77
g58
NtRp744
(dp745
g61
(dp746
g81
g82
ssg70
g740
sg63
(lp747
g375
asbag56
(g77
g58
NtRp748
(dp749
g61
(dp750
g88
g89
ssg70
g740
sg63
(lp751
S':'
asbag56
(g77
g58
NtRp752
(dp753
g61
(dp754
sg70
g740
sg63
(lp755
g56
(g57
g58
NtRp756
(dp757
g61
(dp758
g69
I3
ssg70
g752
sg63
(lp759
S''
asbasbasbag56
(g72
g58
NtRp760
(dp761
g61
(dp762
sg70
g636
sg63
(lp763
g56
(g77
g58
NtRp764
(dp765
g61
(dp766
g81
g82
ssg70
g760
sg63
(lp767
g396
asbag56
(g77
g58
NtRp768
(dp769
g61
(dp770
g88
g89
ssg70
g760
sg63
(lp771
S':'
asbag56
(g77
g58
NtRp772
(dp773
g61
(dp774
sg70
g760
sg63
(lp775
g56
(g57
g58
NtRp776
(dp777
g61
(dp778
g69
I3
ssg70
g772
sg63
(lp779
S''
asbasbasbag56
(g72
g58
NtRp780
(dp781
g61
(dp782
sg70
g636
sg63
(lp783
g56
(g77
g58
NtRp784
(dp785
g61
(dp786
g81
g82
ssg70
g780
sg63
(lp787
g417
asbag56
(g77
g58
NtRp788
(dp789
g61
(dp790
g88
g89
ssg70
g780
sg63
(lp791
S':'
asbag56
(g77
g58
NtRp792
(dp793
g61
(dp794
sg70
g780
sg63
(lp795
g56
(g57
g58
NtRp796
(dp797
g61
(dp798
g69
I3
ssg70
g792
sg63
(lp799
S''
asbasbasbasbasbasbasbasbasbasbasbag56
(g72
g58
NtRp800
(dp801
g61
(dp802
sg70
g66
sg63
(lp803
g56
(g77
g58
NtRp804
(dp805
g61
(dp806
g81
g82
ssg70
g800
sg63
(lp807
S'env'
p808
asbag56
(g77
g58
NtRp809
(dp810
g61
(dp811
g88
g89
ssg70
g800
sg63
(lp812
S':'
asbag56
(g77
g58
NtRp813
(dp814
g61
(dp815
sg70
g800
sg63
(lp816
g56
(g57
g58
NtRp817
(dp818
g61
(dp819
g69
I5
ssg70
g813
sg63
(lp820
g56
(g65
g58
NtRp821
(dp822
g61
(dp823
g69
I4
ssg70
Nsg63
(lp824
g56
(g72
g58
NtRp825
(dp826
g61
(dp827
sg70
g821
sg63
(lp828
g56
(g77
g58
NtRp829
(dp830
g61
(dp831
g81
g82
ssg70
g825
sg63
(lp832
S'app_folders'
p833
asbag56
(g77
g58
NtRp834
(dp835
g61
(dp836
g88
g89
ssg70
g825
sg63
(lp837
S':'
asbag56
(g77
g58
NtRp838
(dp839
g61
(dp840
sg70
g825
sg63
(lp841
g56
(g57
g58
NtRp842
(dp843
g61
(dp844
g69
I4
ssg70
g838
sg63
(lp845
S"set(['/home/pooja/web2py/applications/admin/', '/home/pooja/web2py/applications/newsapp/', '/home/pooja/web2py/applications/welcome/'])"
p846
asbasbasbag56
(g72
g58
NtRp847
(dp848
g61
(dp849
sg70
g821
sg63
(lp850
g56
(g77
g58
NtRp851
(dp852
g61
(dp853
g81
g82
ssg70
g847
sg63
(lp854
S'applications_parent'
p855
asbag56
(g77
g58
NtRp856
(dp857
g61
(dp858
g88
g89
ssg70
g847
sg63
(lp859
S':'
asbag56
(g77
g58
NtRp860
(dp861
g61
(dp862
sg70
g847
sg63
(lp863
g56
(g57
g58
NtRp864
(dp865
g61
(dp866
g69
I4
ssg70
g860
sg63
(lp867
S'/home/pooja/web2py'
p868
asbasbasbag56
(g72
g58
NtRp869
(dp870
g61
(dp871
sg70
g821
sg63
(lp872
g56
(g77
g58
NtRp873
(dp874
g61
(dp875
g81
g82
ssg70
g869
sg63
(lp876
S'cmd_args'
p877
asbag56
(g77
g58
NtRp878
(dp879
g61
(dp880
g88
g89
ssg70
g869
sg63
(lp881
S':'
asbag56
(g77
g58
NtRp882
(dp883
g61
(dp884
sg70
g869
sg63
(lp885
g56
(g57
g58
NtRp886
(dp887
g61
(dp888
g69
I4
ssg70
g882
sg63
(lp889
g56
(g65
g58
NtRp890
(dp891
g61
(dp892
g69
I3
ssg70
Nsg63
(lp893
sbasbasbasbag56
(g72
g58
NtRp894
(dp895
g61
(dp896
sg70
g821
sg63
(lp897
g56
(g77
g58
NtRp898
(dp899
g61
(dp900
g81
g82
ssg70
g894
sg63
(lp901
S'cmd_options'
p902
asbag56
(g77
g58
NtRp903
(dp904
g61
(dp905
g88
g89
ssg70
g894
sg63
(lp906
S':'
asbag56
(g77
g58
NtRp907
(dp908
g61
(dp909
sg70
g894
sg63
(lp910
g56
(g57
g58
NtRp911
(dp912
g61
(dp913
g69
I4
ssg70
g907
sg63
(lp914
S"<Values at 0x7f48bf0bce18: {'verbose': False, 'ip': '127.0.0.1', 'shutdown_timeout': 5, 'taskbar': False, 'nocron': False, 'pid_filename': 'httpserver.pid', 'maxthreads': None, 'softcron': False, 'server_name': 'pooja-HP-15-Notebook-PC', 'bpython': False, 'nogui': False, 'port': 8000, 'extcron': False, 'debuglevel': 30, 'test': None, 'folder': '/home/pooja/web2py', 'config': '', 'import_models': False, 'winservice': '', 'shell': None, 'run': '', 'log_filename': 'httpserver.log', 'args': [''], 'socket_timeout': 5, 'ssl_ca_certificate': None, 'scheduler': None, 'profiler_filename': None, 'ssl_private_key': '', 'password': '<ask>', 'request_queue_size': 5, 'ssl_certificate': '', 'cronjob': False, 'numthreads': None, 'quiet': False, 'interfaces': None, 'minthreads': None, 'timeout': 10, 'plain': False, 'nobanner': False}>"
p915
asbasbasbag56
(g72
g58
NtRp916
(dp917
g61
(dp918
sg70
g821
sg63
(lp919
g56
(g77
g58
NtRp920
(dp921
g61
(dp922
g81
g82
ssg70
g916
sg63
(lp923
S'db_sessions'
p924
asbag56
(g77
g58
NtRp925
(dp926
g61
(dp927
g88
g89
ssg70
g916
sg63
(lp928
S':'
asbag56
(g77
g58
NtRp929
(dp930
g61
(dp931
sg70
g916
sg63
(lp932
g56
(g57
g58
NtRp933
(dp934
g61
(dp935
g69
I4
ssg70
g929
sg63
(lp936
S'set([])'
p937
asbasbasbag56
(g72
g58
NtRp938
(dp939
g61
(dp940
sg70
g821
sg63
(lp941
g56
(g77
g58
NtRp942
(dp943
g61
(dp944
g81
g82
ssg70
g938
sg63
(lp945
S'debugging'
p946
asbag56
(g77
g58
NtRp947
(dp948
g61
(dp949
g88
g89
ssg70
g938
sg63
(lp950
S':'
asbag56
(g77
g58
NtRp951
(dp952
g61
(dp953
sg70
g938
sg63
(lp954
g56
(g57
g58
NtRp955
(dp956
g61
(dp957
g69
I4
ssg70
g951
sg63
(lp958
g99
asbasbasbag56
(g72
g58
NtRp959
(dp960
g61
(dp961
sg70
g821
sg63
(lp962
g56
(g77
g58
NtRp963
(dp964
g61
(dp965
g81
g82
ssg70
g959
sg63
(lp966
S'gluon_parent'
p967
asbag56
(g77
g58
NtRp968
(dp969
g61
(dp970
g88
g89
ssg70
g959
sg63
(lp971
S':'
asbag56
(g77
g58
NtRp972
(dp973
g61
(dp974
sg70
g959
sg63
(lp975
g56
(g57
g58
NtRp976
(dp977
g61
(dp978
g69
I4
ssg70
g972
sg63
(lp979
S'/usr/share/web2py'
p980
asbasbasbag56
(g72
g58
NtRp981
(dp982
g61
(dp983
sg70
g821
sg63
(lp984
g56
(g77
g58
NtRp985
(dp986
g61
(dp987
g81
g82
ssg70
g981
sg63
(lp988
S'http_accept'
p989
asbag56
(g77
g58
NtRp990
(dp991
g61
(dp992
g88
g89
ssg70
g981
sg63
(lp993
S':'
asbag56
(g77
g58
NtRp994
(dp995
g61
(dp996
sg70
g981
sg63
(lp997
g56
(g57
g58
NtRp998
(dp999
g61
(dp1000
g69
I4
ssg70
g994
sg63
(lp1001
S'text/html,application/xhtml+xml,application/xml;q=0.9,image/webp,*/*;q=0.8'
p1002
asbasbasbag56
(g72
g58
NtRp1003
(dp1004
g61
(dp1005
sg70
g821
sg63
(lp1006
g56
(g77
g58
NtRp1007
(dp1008
g61
(dp1009
g81
g82
ssg70
g1003
sg63
(lp1010
S'http_accept_encoding'
p1011
asbag56
(g77
g58
NtRp1012
(dp1013
g61
(dp1014
g88
g89
ssg70
g1003
sg63
(lp1015
S':'
asbag56
(g77
g58
NtRp1016
(dp1017
g61
(dp1018
sg70
g1003
sg63
(lp1019
g56
(g57
g58
NtRp1020
(dp1021
g61
(dp1022
g69
I4
ssg70
g1016
sg63
(lp1023
S'gzip, deflate, sdch'
p1024
asbasbasbag56
(g72
g58
NtRp1025
(dp1026
g61
(dp1027
sg70
g821
sg63
(lp1028
g56
(g77
g58
NtRp1029
(dp1030
g61
(dp1031
g81
g82
ssg70
g1025
sg63
(lp1032
S'http_accept_language'
p1033
asbag56
(g77
g58
NtRp1034
(dp1035
g61
(dp1036
g88
g89
ssg70
g1025
sg63
(lp1037
S':'
asbag56
(g77
g58
NtRp1038
(dp1039
g61
(dp1040
sg70
g1025
sg63
(lp1041
g56
(g57
g58
NtRp1042
(dp1043
g61
(dp1044
g69
I4
ssg70
g1038
sg63
(lp1045
S'en-US,en;q=0.8'
p1046
asbasbasbag56
(g72
g58
NtRp1047
(dp1048
g61
(dp1049
sg70
g821
sg63
(lp1050
g56
(g77
g58
NtRp1051
(dp1052
g61
(dp1053
g81
g82
ssg70
g1047
sg63
(lp1054
S'http_connection'
p1055
asbag56
(g77
g58
NtRp1056
(dp1057
g61
(dp1058
g88
g89
ssg70
g1047
sg63
(lp1059
S':'
asbag56
(g77
g58
NtRp1060
(dp1061
g61
(dp1062
sg70
g1047
sg63
(lp1063
g56
(g57
g58
NtRp1064
(dp1065
g61
(dp1066
g69
I4
ssg70
g1060
sg63
(lp1067
S'keep-alive'
p1068
asbasbasbag56
(g72
g58
NtRp1069
(dp1070
g61
(dp1071
sg70
g821
sg63
(lp1072
g56
(g77
g58
NtRp1073
(dp1074
g61
(dp1075
g81
g82
ssg70
g1069
sg63
(lp1076
S'http_cookie'
p1077
asbag56
(g77
g58
NtRp1078
(dp1079
g61
(dp1080
g88
g89
ssg70
g1069
sg63
(lp1081
S':'
asbag56
(g77
g58
NtRp1082
(dp1083
g61
(dp1084
sg70
g1069
sg63
(lp1085
g56
(g57
g58
NtRp1086
(dp1087
g61
(dp1088
g69
I4
ssg70
g1082
sg63
(lp1089
S'session_id_welcome=127.0.0.1-39cd24b2-3651-4c99-9fb0-a3dd11b0684e; session_id_admin=127.0.0.1-c04865d9-d3b8-4c95-a4e7-88838830d340; session_id_newsapp=127.0.0.1-f56ccde5-80db-47cc-80e8-bbcc8cc05a92'
p1090
asbasbasbag56
(g72
g58
NtRp1091
(dp1092
g61
(dp1093
sg70
g821
sg63
(lp1094
g56
(g77
g58
NtRp1095
(dp1096
g61
(dp1097
g81
g82
ssg70
g1091
sg63
(lp1098
S'http_host'
p1099
asbag56
(g77
g58
NtRp1100
(dp1101
g61
(dp1102
g88
g89
ssg70
g1091
sg63
(lp1103
S':'
asbag56
(g77
g58
NtRp1104
(dp1105
g61
(dp1106
sg70
g1091
sg63
(lp1107
g56
(g57
g58
NtRp1108
(dp1109
g61
(dp1110
g69
I4
ssg70
g1104
sg63
(lp1111
S'127.0.0.1:8000'
p1112
asbasbasbag56
(g72
g58
NtRp1113
(dp1114
g61
(dp1115
sg70
g821
sg63
(lp1116
g56
(g77
g58
NtRp1117
(dp1118
g61
(dp1119
g81
g82
ssg70
g1113
sg63
(lp1120
S'http_user_agent'
p1121
asbag56
(g77
g58
NtRp1122
(dp1123
g61
(dp1124
g88
g89
ssg70
g1113
sg63
(lp1125
S':'
asbag56
(g77
g58
NtRp1126
(dp1127
g61
(dp1128
sg70
g1113
sg63
(lp1129
g56
(g57
g58
NtRp1130
(dp1131
g61
(dp1132
g69
I4
ssg70
g1126
sg63
(lp1133
S'Mozilla/5.0 (X11; Linux x86_64) AppleWebKit/537.36 (KHTML, like Gecko) Chrome/42.0.2311.135 Safari/537.36'
p1134
asbasbasbag56
(g72
g58
NtRp1135
(dp1136
g61
(dp1137
sg70
g821
sg63
(lp1138
g56
(g77
g58
NtRp1139
(dp1140
g61
(dp1141
g81
g82
ssg70
g1135
sg63
(lp1142
S'is_jython'
p1143
asbag56
(g77
g58
NtRp1144
(dp1145
g61
(dp1146
g88
g89
ssg70
g1135
sg63
(lp1147
S':'
asbag56
(g77
g58
NtRp1148
(dp1149
g61
(dp1150
sg70
g1135
sg63
(lp1151
g56
(g57
g58
NtRp1152
(dp1153
g61
(dp1154
g69
I4
ssg70
g1148
sg63
(lp1155
g99
asbasbasbag56
(g72
g58
NtRp1156
(dp1157
g61
(dp1158
sg70
g821
sg63
(lp1159
g56
(g77
g58
NtRp1160
(dp1161
g61
(dp1162
g81
g82
ssg70
g1156
sg63
(lp1163
S'is_pypy'
p1164
asbag56
(g77
g58
NtRp1165
(dp1166
g61
(dp1167
g88
g89
ssg70
g1156
sg63
(lp1168
S':'
asbag56
(g77
g58
NtRp1169
(dp1170
g61
(dp1171
sg70
g1156
sg63
(lp1172
g56
(g57
g58
NtRp1173
(dp1174
g61
(dp1175
g69
I4
ssg70
g1169
sg63
(lp1176
g99
asbasbasbag56
(g72
g58
NtRp1177
(dp1178
g61
(dp1179
sg70
g821
sg63
(lp1180
g56
(g77
g58
NtRp1181
(dp1182
g61
(dp1183
g81
g82
ssg70
g1177
sg63
(lp1184
S'path_info'
p1185
asbag56
(g77
g58
NtRp1186
(dp1187
g61
(dp1188
g88
g89
ssg70
g1177
sg63
(lp1189
S':'
asbag56
(g77
g58
NtRp1190
(dp1191
g61
(dp1192
sg70
g1177
sg63
(lp1193
g56
(g57
g58
NtRp1194
(dp1195
g61
(dp1196
g69
I4
ssg70
g1190
sg63
(lp1197
S'/newsapp/default/tw_trends'
p1198
asbasbasbag56
(g72
g58
NtRp1199
(dp1200
g61
(dp1201
sg70
g821
sg63
(lp1202
g56
(g77
g58
NtRp1203
(dp1204
g61
(dp1205
g81
g82
ssg70
g1199
sg63
(lp1206
S'query_string'
p1207
asbag56
(g77
g58
NtRp1208
(dp1209
g61
(dp1210
g88
g89
ssg70
g1199
sg63
(lp1211
S':'
asbag56
(g77
g58
NtRp1212
(dp1213
g61
(dp1214
sg70
g1199
sg63
(lp1215
g56
(g57
g58
NtRp1216
(dp1217
g61
(dp1218
g69
I4
ssg70
g1212
sg63
(lp1219
S''
asbasbasbag56
(g72
g58
NtRp1220
(dp1221
g61
(dp1222
sg70
g821
sg63
(lp1223
g56
(g77
g58
NtRp1224
(dp1225
g61
(dp1226
g81
g82
ssg70
g1220
sg63
(lp1227
S'remote_addr'
p1228
asbag56
(g77
g58
NtRp1229
(dp1230
g61
(dp1231
g88
g89
ssg70
g1220
sg63
(lp1232
S':'
asbag56
(g77
g58
NtRp1233
(dp1234
g61
(dp1235
sg70
g1220
sg63
(lp1236
g56
(g57
g58
NtRp1237
(dp1238
g61
(dp1239
g69
I4
ssg70
g1233
sg63
(lp1240
g189
asbasbasbag56
(g72
g58
NtRp1241
(dp1242
g61
(dp1243
sg70
g821
sg63
(lp1244
g56
(g77
g58
NtRp1245
(dp1246
g61
(dp1247
g81
g82
ssg70
g1241
sg63
(lp1248
S'remote_port'
p1249
asbag56
(g77
g58
NtRp1250
(dp1251
g61
(dp1252
g88
g89
ssg70
g1241
sg63
(lp1253
S':'
asbag56
(g77
g58
NtRp1254
(dp1255
g61
(dp1256
sg70
g1241
sg63
(lp1257
g56
(g57
g58
NtRp1258
(dp1259
g61
(dp1260
g69
I4
ssg70
g1254
sg63
(lp1261
S'53362'
p1262
asbasbasbag56
(g72
g58
NtRp1263
(dp1264
g61
(dp1265
sg70
g821
sg63
(lp1266
g56
(g77
g58
NtRp1267
(dp1268
g61
(dp1269
g81
g82
ssg70
g1263
sg63
(lp1270
S'request_method'
p1271
asbag56
(g77
g58
NtRp1272
(dp1273
g61
(dp1274
g88
g89
ssg70
g1263
sg63
(lp1275
S':'
asbag56
(g77
g58
NtRp1276
(dp1277
g61
(dp1278
sg70
g1263
sg63
(lp1279
g56
(g57
g58
NtRp1280
(dp1281
g61
(dp1282
g69
I4
ssg70
g1276
sg63
(lp1283
S'GET'
p1284
asbasbasbag56
(g72
g58
NtRp1285
(dp1286
g61
(dp1287
sg70
g821
sg63
(lp1288
g56
(g77
g58
NtRp1289
(dp1290
g61
(dp1291
g81
g82
ssg70
g1285
sg63
(lp1292
S'script_name'
p1293
asbag56
(g77
g58
NtRp1294
(dp1295
g61
(dp1296
g88
g89
ssg70
g1285
sg63
(lp1297
S':'
asbag56
(g77
g58
NtRp1298
(dp1299
g61
(dp1300
sg70
g1285
sg63
(lp1301
g56
(g57
g58
NtRp1302
(dp1303
g61
(dp1304
g69
I4
ssg70
g1298
sg63
(lp1305
S''
asbasbasbag56
(g72
g58
NtRp1306
(dp1307
g61
(dp1308
sg70
g821
sg63
(lp1309
g56
(g77
g58
NtRp1310
(dp1311
g61
(dp1312
g81
g82
ssg70
g1306
sg63
(lp1313
S'server_name'
p1314
asbag56
(g77
g58
NtRp1315
(dp1316
g61
(dp1317
g88
g89
ssg70
g1306
sg63
(lp1318
S':'
asbag56
(g77
g58
NtRp1319
(dp1320
g61
(dp1321
sg70
g1306
sg63
(lp1322
g56
(g57
g58
NtRp1323
(dp1324
g61
(dp1325
g69
I4
ssg70
g1319
sg63
(lp1326
S'pooja-HP-15-Notebook-PC'
p1327
asbasbasbag56
(g72
g58
NtRp1328
(dp1329
g61
(dp1330
sg70
g821
sg63
(lp1331
g56
(g77
g58
NtRp1332
(dp1333
g61
(dp1334
g81
g82
ssg70
g1328
sg63
(lp1335
S'server_port'
p1336
asbag56
(g77
g58
NtRp1337
(dp1338
g61
(dp1339
g88
g89
ssg70
g1328
sg63
(lp1340
S':'
asbag56
(g77
g58
NtRp1341
(dp1342
g61
(dp1343
sg70
g1328
sg63
(lp1344
g56
(g57
g58
NtRp1345
(dp1346
g61
(dp1347
g69
I4
ssg70
g1341
sg63
(lp1348
S'8000'
p1349
asbasbasbag56
(g72
g58
NtRp1350
(dp1351
g61
(dp1352
sg70
g821
sg63
(lp1353
g56
(g77
g58
NtRp1354
(dp1355
g61
(dp1356
g81
g82
ssg70
g1350
sg63
(lp1357
S'server_protocol'
p1358
asbag56
(g77
g58
NtRp1359
(dp1360
g61
(dp1361
g88
g89
ssg70
g1350
sg63
(lp1362
S':'
asbag56
(g77
g58
NtRp1363
(dp1364
g61
(dp1365
sg70
g1350
sg63
(lp1366
g56
(g57
g58
NtRp1367
(dp1368
g61
(dp1369
g69
I4
ssg70
g1363
sg63
(lp1370
S'HTTP/1.1'
p1371
asbasbasbag56
(g72
g58
NtRp1372
(dp1373
g61
(dp1374
sg70
g821
sg63
(lp1375
g56
(g77
g58
NtRp1376
(dp1377
g61
(dp1378
g81
g82
ssg70
g1372
sg63
(lp1379
S'server_software'
p1380
asbag56
(g77
g58
NtRp1381
(dp1382
g61
(dp1383
g88
g89
ssg70
g1372
sg63
(lp1384
S':'
asbag56
(g77
g58
NtRp1385
(dp1386
g61
(dp1387
sg70
g1372
sg63
(lp1388
g56
(g57
g58
NtRp1389
(dp1390
g61
(dp1391
g69
I4
ssg70
g1385
sg63
(lp1392
S'Rocket 1.2.4'
p1393
asbasbasbag56
(g72
g58
NtRp1394
(dp1395
g61
(dp1396
sg70
g821
sg63
(lp1397
g56
(g77
g58
NtRp1398
(dp1399
g61
(dp1400
g81
g82
ssg70
g1394
sg63
(lp1401
S'web2py_crontype'
p1402
asbag56
(g77
g58
NtRp1403
(dp1404
g61
(dp1405
g88
g89
ssg70
g1394
sg63
(lp1406
S':'
asbag56
(g77
g58
NtRp1407
(dp1408
g61
(dp1409
sg70
g1394
sg63
(lp1410
g56
(g57
g58
NtRp1411
(dp1412
g61
(dp1413
g69
I4
ssg70
g1407
sg63
(lp1414
S'hard'
p1415
asbasbasbag56
(g72
g58
NtRp1416
(dp1417
g61
(dp1418
sg70
g821
sg63
(lp1419
g56
(g77
g58
NtRp1420
(dp1421
g61
(dp1422
g81
g82
ssg70
g1416
sg63
(lp1423
S'web2py_path'
p1424
asbag56
(g77
g58
NtRp1425
(dp1426
g61
(dp1427
g88
g89
ssg70
g1416
sg63
(lp1428
S':'
asbag56
(g77
g58
NtRp1429
(dp1430
g61
(dp1431
sg70
g1416
sg63
(lp1432
g56
(g57
g58
NtRp1433
(dp1434
g61
(dp1435
g69
I4
ssg70
g1429
sg63
(lp1436
g868
asbasbasbag56
(g72
g58
NtRp1437
(dp1438
g61
(dp1439
sg70
g821
sg63
(lp1440
g56
(g77
g58
NtRp1441
(dp1442
g61
(dp1443
g81
g82
ssg70
g1437
sg63
(lp1444
S'web2py_version'
p1445
asbag56
(g77
g58
NtRp1446
(dp1447
g61
(dp1448
g88
g89
ssg70
g1437
sg63
(lp1449
S':'
asbag56
(g77
g58
NtRp1450
(dp1451
g61
(dp1452
sg70
g1437
sg63
(lp1453
g56
(g57
g58
NtRp1454
(dp1455
g61
(dp1456
g69
I4
ssg70
g1450
sg63
(lp1457
g56
(g65
g58
NtRp1458
(dp1459
g61
(dp1460
g69
I3
ssg70
Nsg63
(lp1461
g56
(g72
g58
NtRp1462
(dp1463
g61
(dp1464
sg70
g1458
sg63
(lp1465
g56
(g77
g58
NtRp1466
(dp1467
g61
(dp1468
sg70
g1462
sg63
(lp1469
g56
(g57
g58
NtRp1470
(dp1471
g61
(dp1472
g69
I3
ssg70
g1466
sg63
(lp1473
S'1'
asbasbasbag56
(g72
g58
NtRp1474
(dp1475
g61
(dp1476
sg70
g1458
sg63
(lp1477
g56
(g77
g58
NtRp1478
(dp1479
g61
(dp1480
sg70
g1474
sg63
(lp1481
g56
(g57
g58
NtRp1482
(dp1483
g61
(dp1484
g69
I3
ssg70
g1478
sg63
(lp1485
S'99'
p1486
asbasbasbag56
(g72
g58
NtRp1487
(dp1488
g61
(dp1489
sg70
g1458
sg63
(lp1490
g56
(g77
g58
NtRp1491
(dp1492
g61
(dp1493
sg70
g1487
sg63
(lp1494
g56
(g57
g58
NtRp1495
(dp1496
g61
(dp1497
g69
I3
ssg70
g1491
sg63
(lp1498
S'7'
asbasbasbag56
(g72
g58
NtRp1499
(dp1500
g61
(dp1501
sg70
g1458
sg63
(lp1502
g56
(g77
g58
NtRp1503
(dp1504
g61
(dp1505
sg70
g1499
sg63
(lp1506
g56
(g57
g58
NtRp1507
(dp1508
g61
(dp1509
g69
I3
ssg70
g1503
sg63
(lp1510
S'datetime.datetime(2012, 3, 4, 22, 12, 8)'
p1511
asbasbasbag56
(g72
g58
NtRp1512
(dp1513
g61
(dp1514
sg70
g1458
sg63
(lp1515
g56
(g77
g58
NtRp1516
(dp1517
g61
(dp1518
sg70
g1512
sg63
(lp1519
g56
(g57
g58
NtRp1520
(dp1521
g61
(dp1522
g69
I3
ssg70
g1516
sg63
(lp1523
S'stable'
p1524
asbasbasbasbasbasbasbag56
(g72
g58
NtRp1525
(dp1526
g61
(dp1527
sg70
g821
sg63
(lp1528
g56
(g77
g58
NtRp1529
(dp1530
g61
(dp1531
g81
g82
ssg70
g1525
sg63
(lp1532
S'wsgi_errors'
p1533
asbag56
(g77
g58
NtRp1534
(dp1535
g61
(dp1536
g88
g89
ssg70
g1525
sg63
(lp1537
S':'
asbag56
(g77
g58
NtRp1538
(dp1539
g61
(dp1540
sg70
g1525
sg63
(lp1541
g56
(g57
g58
NtRp1542
(dp1543
g61
(dp1544
g69
I4
ssg70
g1538
sg63
(lp1545
S"<open file '<stderr>', mode 'w' at 0x7f48c48d91e0>"
p1546
asbasbasbag56
(g72
g58
NtRp1547
(dp1548
g61
(dp1549
sg70
g821
sg63
(lp1550
g56
(g77
g58
NtRp1551
(dp1552
g61
(dp1553
g81
g82
ssg70
g1547
sg63
(lp1554
S'wsgi_file_wrapper'
p1555
asbag56
(g77
g58
NtRp1556
(dp1557
g61
(dp1558
g88
g89
ssg70
g1547
sg63
(lp1559
S':'
asbag56
(g77
g58
NtRp1560
(dp1561
g61
(dp1562
sg70
g1547
sg63
(lp1563
g56
(g57
g58
NtRp1564
(dp1565
g61
(dp1566
g69
I4
ssg70
g1560
sg63
(lp1567
S'<class wsgiref.util.FileWrapper at 0x7f48c0836e88>'
p1568
asbasbasbag56
(g72
g58
NtRp1569
(dp1570
g61
(dp1571
sg70
g821
sg63
(lp1572
g56
(g77
g58
NtRp1573
(dp1574
g61
(dp1575
g81
g82
ssg70
g1569
sg63
(lp1576
S'wsgi_input'
p1577
asbag56
(g77
g58
NtRp1578
(dp1579
g61
(dp1580
g88
g89
ssg70
g1569
sg63
(lp1581
S':'
asbag56
(g77
g58
NtRp1582
(dp1583
g61
(dp1584
sg70
g1569
sg63
(lp1585
g56
(g57
g58
NtRp1586
(dp1587
g61
(dp1588
g69
I4
ssg70
g1582
sg63
(lp1589
S'<socket._fileobject object at 0x7f486a3b1650>'
p1590
asbasbasbag56
(g72
g58
NtRp1591
(dp1592
g61
(dp1593
sg70
g821
sg63
(lp1594
g56
(g77
g58
NtRp1595
(dp1596
g61
(dp1597
g81
g82
ssg70
g1591
sg63
(lp1598
S'wsgi_multiprocess'
p1599
asbag56
(g77
g58
NtRp1600
(dp1601
g61
(dp1602
g88
g89
ssg70
g1591
sg63
(lp1603
S':'
asbag56
(g77
g58
NtRp1604
(dp1605
g61
(dp1606
sg70
g1591
sg63
(lp1607
g56
(g57
g58
NtRp1608
(dp1609
g61
(dp1610
g69
I4
ssg70
g1604
sg63
(lp1611
g99
asbasbasbag56
(g72
g58
NtRp1612
(dp1613
g61
(dp1614
sg70
g821
sg63
(lp1615
g56
(g77
g58
NtRp1616
(dp1617
g61
(dp1618
g81
g82
ssg70
g1612
sg63
(lp1619
S'wsgi_multithread'
p1620
asbag56
(g77
g58
NtRp1621
(dp1622
g61
(dp1623
g88
g89
ssg70
g1612
sg63
(lp1624
S':'
asbag56
(g77
g58
NtRp1625
(dp1626
g61
(dp1627
sg70
g1612
sg63
(lp1628
g56
(g57
g58
NtRp1629
(dp1630
g61
(dp1631
g69
I4
ssg70
g1625
sg63
(lp1632
S'True'
p1633
asbasbasbag56
(g72
g58
NtRp1634
(dp1635
g61
(dp1636
sg70
g821
sg63
(lp1637
g56
(g77
g58
NtRp1638
(dp1639
g61
(dp1640
g81
g82
ssg70
g1634
sg63
(lp1641
S'wsgi_run_once'
p1642
asbag56
(g77
g58
NtRp1643
(dp1644
g61
(dp1645
g88
g89
ssg70
g1634
sg63
(lp1646
S':'
asbag56
(g77
g58
NtRp1647
(dp1648
g61
(dp1649
sg70
g1634
sg63
(lp1650
g56
(g57
g58
NtRp1651
(dp1652
g61
(dp1653
g69
I4
ssg70
g1647
sg63
(lp1654
g99
asbasbasbag56
(g72
g58
NtRp1655
(dp1656
g61
(dp1657
sg70
g821
sg63
(lp1658
g56
(g77
g58
NtRp1659
(dp1660
g61
(dp1661
g81
g82
ssg70
g1655
sg63
(lp1662
S'wsgi_url_scheme'
p1663
asbag56
(g77
g58
NtRp1664
(dp1665
g61
(dp1666
g88
g89
ssg70
g1655
sg63
(lp1667
S':'
asbag56
(g77
g58
NtRp1668
(dp1669
g61
(dp1670
sg70
g1655
sg63
(lp1671
g56
(g57
g58
NtRp1672
(dp1673
g61
(dp1674
g69
I4
ssg70
g1668
sg63
(lp1675
S'http'
p1676
asbasbasbag56
(g72
g58
NtRp1677
(dp1678
g61
(dp1679
sg70
g821
sg63
(lp1680
g56
(g77
g58
NtRp1681
(dp1682
g61
(dp1683
g81
g82
ssg70
g1677
sg63
(lp1684
S'wsgi_version'
p1685
asbag56
(g77
g58
NtRp1686
(dp1687
g61
(dp1688
g88
g89
ssg70
g1677
sg63
(lp1689
S':'
asbag56
(g77
g58
NtRp1690
(dp1691
g61
(dp1692
sg70
g1677
sg63
(lp1693
g56
(g57
g58
NtRp1694
(dp1695
g61
(dp1696
g69
I4
ssg70
g1690
sg63
(lp1697
g56
(g65
g58
NtRp1698
(dp1699
g61
(dp1700
g69
I3
ssg70
Nsg63
(lp1701
g56
(g72
g58
NtRp1702
(dp1703
g61
(dp1704
sg70
g1698
sg63
(lp1705
g56
(g77
g58
NtRp1706
(dp1707
g61
(dp1708
sg70
g1702
sg63
(lp1709
g56
(g57
g58
NtRp1710
(dp1711
g61
(dp1712
g69
I3
ssg70
g1706
sg63
(lp1713
S'1'
asbasbasbag56
(g72
g58
NtRp1714
(dp1715
g61
(dp1716
sg70
g1698
sg63
(lp1717
g56
(g77
g58
NtRp1718
(dp1719
g61
(dp1720
sg70
g1714
sg63
(lp1721
g56
(g57
g58
NtRp1722
(dp1723
g61
(dp1724
g69
I3
ssg70
g1718
sg63
(lp1725
S'0'
asbasbasbasbasbasbasbasbasbasbasbag56
(g72
g58
NtRp1726
(dp1727
g61
(dp1728
sg70
g66
sg63
(lp1729
g56
(g77
g58
NtRp1730
(dp1731
g61
(dp1732
g81
g82
ssg70
g1726
sg63
(lp1733
S'extension'
p1734
asbag56
(g77
g58
NtRp1735
(dp1736
g61
(dp1737
g88
g89
ssg70
g1726
sg63
(lp1738
S':'
asbag56
(g77
g58
NtRp1739
(dp1740
g61
(dp1741
sg70
g1726
sg63
(lp1742
g56
(g57
g58
NtRp1743
(dp1744
g61
(dp1745
g69
I5
ssg70
g1739
sg63
(lp1746
S'html'
p1747
asbasbasbag56
(g72
g58
NtRp1748
(dp1749
g61
(dp1750
sg70
g66
sg63
(lp1751
g56
(g77
g58
NtRp1752
(dp1753
g61
(dp1754
g81
g82
ssg70
g1748
sg63
(lp1755
S'folder'
p1756
asbag56
(g77
g58
NtRp1757
(dp1758
g61
(dp1759
g88
g89
ssg70
g1748
sg63
(lp1760
S':'
asbag56
(g77
g58
NtRp1761
(dp1762
g61
(dp1763
sg70
g1748
sg63
(lp1764
g56
(g57
g58
NtRp1765
(dp1766
g61
(dp1767
g69
I5
ssg70
g1761
sg63
(lp1768
S'/home/pooja/web2py/applications/newsapp/'
p1769
asbasbasbag56
(g72
g58
NtRp1770
(dp1771
g61
(dp1772
sg70
g66
sg63
(lp1773
g56
(g77
g58
NtRp1774
(dp1775
g61
(dp1776
g81
g82
ssg70
g1770
sg63
(lp1777
S'function'
p1778
asbag56
(g77
g58
NtRp1779
(dp1780
g61
(dp1781
g88
g89
ssg70
g1770
sg63
(lp1782
S':'
asbag56
(g77
g58
NtRp1783
(dp1784
g61
(dp1785
sg70
g1770
sg63
(lp1786
g56
(g57
g58
NtRp1787
(dp1788
g61
(dp1789
g69
I5
ssg70
g1783
sg63
(lp1790
S'tw_trends'
p1791
asbasbasbag56
(g72
g58
NtRp1792
(dp1793
g61
(dp1794
sg70
g66
sg63
(lp1795
g56
(g77
g58
NtRp1796
(dp1797
g61
(dp1798
g81
g82
ssg70
g1792
sg63
(lp1799
S'get_vars'
p1800
asbag56
(g77
g58
NtRp1801
(dp1802
g61
(dp1803
g88
g89
ssg70
g1792
sg63
(lp1804
S':'
asbag56
(g77
g58
NtRp1805
(dp1806
g61
(dp1807
sg70
g1792
sg63
(lp1808
g56
(g57
g58
NtRp1809
(dp1810
g61
(dp1811
g69
I5
ssg70
g1805
sg63
(lp1812
g56
(g65
g58
NtRp1813
(dp1814
g61
(dp1815
g69
I4
ssg70
Nsg63
(lp1816
sbasbasbasbag56
(g72
g58
NtRp1817
(dp1818
g61
(dp1819
sg70
g66
sg63
(lp1820
g56
(g77
g58
NtRp1821
(dp1822
g61
(dp1823
g81
g82
ssg70
g1817
sg63
(lp1824
S'global_settings'
p1825
asbag56
(g77
g58
NtRp1826
(dp1827
g61
(dp1828
g88
g89
ssg70
g1817
sg63
(lp1829
S':'
asbag56
(g77
g58
NtRp1830
(dp1831
g61
(dp1832
sg70
g1817
sg63
(lp1833
g56
(g57
g58
NtRp1834
(dp1835
g61
(dp1836
g69
I5
ssg70
g1830
sg63
(lp1837
g56
(g65
g58
NtRp1838
(dp1839
g61
(dp1840
g69
I4
ssg70
Nsg63
(lp1841
g56
(g72
g58
NtRp1842
(dp1843
g61
(dp1844
sg70
g1838
sg63
(lp1845
g56
(g77
g58
NtRp1846
(dp1847
g61
(dp1848
g81
g82
ssg70
g1842
sg63
(lp1849
g833
asbag56
(g77
g58
NtRp1850
(dp1851
g61
(dp1852
g88
g89
ssg70
g1842
sg63
(lp1853
S':'
asbag56
(g77
g58
NtRp1854
(dp1855
g61
(dp1856
sg70
g1842
sg63
(lp1857
g56
(g57
g58
NtRp1858
(dp1859
g61
(dp1860
g69
I4
ssg70
g1854
sg63
(lp1861
S"set(['/home/pooja/web2py/applications/admin/', '/home/pooja/web2py/applications/newsapp/', '/home/pooja/web2py/applications/welcome/'])"
p1862
asbasbasbag56
(g72
g58
NtRp1863
(dp1864
g61
(dp1865
sg70
g1838
sg63
(lp1866
g56
(g77
g58
NtRp1867
(dp1868
g61
(dp1869
g81
g82
ssg70
g1863
sg63
(lp1870
g855
asbag56
(g77
g58
NtRp1871
(dp1872
g61
(dp1873
g88
g89
ssg70
g1863
sg63
(lp1874
S':'
asbag56
(g77
g58
NtRp1875
(dp1876
g61
(dp1877
sg70
g1863
sg63
(lp1878
g56
(g57
g58
NtRp1879
(dp1880
g61
(dp1881
g69
I4
ssg70
g1875
sg63
(lp1882
g868
asbasbasbag56
(g72
g58
NtRp1883
(dp1884
g61
(dp1885
sg70
g1838
sg63
(lp1886
g56
(g77
g58
NtRp1887
(dp1888
g61
(dp1889
g81
g82
ssg70
g1883
sg63
(lp1890
g877
asbag56
(g77
g58
NtRp1891
(dp1892
g61
(dp1893
g88
g89
ssg70
g1883
sg63
(lp1894
S':'
asbag56
(g77
g58
NtRp1895
(dp1896
g61
(dp1897
sg70
g1883
sg63
(lp1898
g56
(g57
g58
NtRp1899
(dp1900
g61
(dp1901
g69
I4
ssg70
g1895
sg63
(lp1902
g56
(g65
g58
NtRp1903
(dp1904
g61
(dp1905
g69
I3
ssg70
Nsg63
(lp1906
sbasbasbasbag56
(g72
g58
NtRp1907
(dp1908
g61
(dp1909
sg70
g1838
sg63
(lp1910
g56
(g77
g58
NtRp1911
(dp1912
g61
(dp1913
g81
g82
ssg70
g1907
sg63
(lp1914
g902
asbag56
(g77
g58
NtRp1915
(dp1916
g61
(dp1917
g88
g89
ssg70
g1907
sg63
(lp1918
S':'
asbag56
(g77
g58
NtRp1919
(dp1920
g61
(dp1921
sg70
g1907
sg63
(lp1922
g56
(g57
g58
NtRp1923
(dp1924
g61
(dp1925
g69
I4
ssg70
g1919
sg63
(lp1926
S"<Values at 0x7f48bf0bce18: {'verbose': False, 'ip': '127.0.0.1', 'shutdown_timeout': 5, 'taskbar': False, 'nocron': False, 'pid_filename': 'httpserver.pid', 'maxthreads': None, 'softcron': False, 'server_name': 'pooja-HP-15-Notebook-PC', 'bpython': False, 'nogui': False, 'port': 8000, 'extcron': False, 'debuglevel': 30, 'test': None, 'folder': '/home/pooja/web2py', 'config': '', 'import_models': False, 'winservice': '', 'shell': None, 'run': '', 'log_filename': 'httpserver.log', 'args': [''], 'socket_timeout': 5, 'ssl_ca_certificate': None, 'scheduler': None, 'profiler_filename': None, 'ssl_private_key': '', 'password': '<ask>', 'request_queue_size': 5, 'ssl_certificate': '', 'cronjob': False, 'numthreads': None, 'quiet': False, 'interfaces': None, 'minthreads': None, 'timeout': 10, 'plain': False, 'nobanner': False}>"
p1927
asbasbasbag56
(g72
g58
NtRp1928
(dp1929
g61
(dp1930
sg70
g1838
sg63
(lp1931
g56
(g77
g58
NtRp1932
(dp1933
g61
(dp1934
g81
g82
ssg70
g1928
sg63
(lp1935
g924
asbag56
(g77
g58
NtRp1936
(dp1937
g61
(dp1938
g88
g89
ssg70
g1928
sg63
(lp1939
S':'
asbag56
(g77
g58
NtRp1940
(dp1941
g61
(dp1942
sg70
g1928
sg63
(lp1943
g56
(g57
g58
NtRp1944
(dp1945
g61
(dp1946
g69
I4
ssg70
g1940
sg63
(lp1947
S'set([])'
p1948
asbasbasbag56
(g72
g58
NtRp1949
(dp1950
g61
(dp1951
sg70
g1838
sg63
(lp1952
g56
(g77
g58
NtRp1953
(dp1954
g61
(dp1955
g81
g82
ssg70
g1949
sg63
(lp1956
g946
asbag56
(g77
g58
NtRp1957
(dp1958
g61
(dp1959
g88
g89
ssg70
g1949
sg63
(lp1960
S':'
asbag56
(g77
g58
NtRp1961
(dp1962
g61
(dp1963
sg70
g1949
sg63
(lp1964
g56
(g57
g58
NtRp1965
(dp1966
g61
(dp1967
g69
I4
ssg70
g1961
sg63
(lp1968
g99
asbasbasbag56
(g72
g58
NtRp1969
(dp1970
g61
(dp1971
sg70
g1838
sg63
(lp1972
g56
(g77
g58
NtRp1973
(dp1974
g61
(dp1975
g81
g82
ssg70
g1969
sg63
(lp1976
g967
asbag56
(g77
g58
NtRp1977
(dp1978
g61
(dp1979
g88
g89
ssg70
g1969
sg63
(lp1980
S':'
asbag56
(g77
g58
NtRp1981
(dp1982
g61
(dp1983
sg70
g1969
sg63
(lp1984
g56
(g57
g58
NtRp1985
(dp1986
g61
(dp1987
g69
I4
ssg70
g1981
sg63
(lp1988
g980
asbasbasbag56
(g72
g58
NtRp1989
(dp1990
g61
(dp1991
sg70
g1838
sg63
(lp1992
g56
(g77
g58
NtRp1993
(dp1994
g61
(dp1995
g81
g82
ssg70
g1989
sg63
(lp1996
g1143
asbag56
(g77
g58
NtRp1997
(dp1998
g61
(dp1999
g88
g89
ssg70
g1989
sg63
(lp2000
S':'
asbag56
(g77
g58
NtRp2001
(dp2002
g61
(dp2003
sg70
g1989
sg63
(lp2004
g56
(g57
g58
NtRp2005
(dp2006
g61
(dp2007
g69
I4
ssg70
g2001
sg63
(lp2008
g99
asbasbasbag56
(g72
g58
NtRp2009
(dp2010
g61
(dp2011
sg70
g1838
sg63
(lp2012
g56
(g77
g58
NtRp2013
(dp2014
g61
(dp2015
g81
g82
ssg70
g2009
sg63
(lp2016
g1164
asbag56
(g77
g58
NtRp2017
(dp2018
g61
(dp2019
g88
g89
ssg70
g2009
sg63
(lp2020
S':'
asbag56
(g77
g58
NtRp2021
(dp2022
g61
(dp2023
sg70
g2009
sg63
(lp2024
g56
(g57
g58
NtRp2025
(dp2026
g61
(dp2027
g69
I4
ssg70
g2021
sg63
(lp2028
g99
asbasbasbag56
(g72
g58
NtRp2029
(dp2030
g61
(dp2031
sg70
g1838
sg63
(lp2032
g56
(g77
g58
NtRp2033
(dp2034
g61
(dp2035
g81
g82
ssg70
g2029
sg63
(lp2036
g1402
asbag56
(g77
g58
NtRp2037
(dp2038
g61
(dp2039
g88
g89
ssg70
g2029
sg63
(lp2040
S':'
asbag56
(g77
g58
NtRp2041
(dp2042
g61
(dp2043
sg70
g2029
sg63
(lp2044
g56
(g57
g58
NtRp2045
(dp2046
g61
(dp2047
g69
I4
ssg70
g2041
sg63
(lp2048
g1415
asbasbasbag56
(g72
g58
NtRp2049
(dp2050
g61
(dp2051
sg70
g1838
sg63
(lp2052
g56
(g77
g58
NtRp2053
(dp2054
g61
(dp2055
g81
g82
ssg70
g2049
sg63
(lp2056
g1445
asbag56
(g77
g58
NtRp2057
(dp2058
g61
(dp2059
g88
g89
ssg70
g2049
sg63
(lp2060
S':'
asbag56
(g77
g58
NtRp2061
(dp2062
g61
(dp2063
sg70
g2049
sg63
(lp2064
g56
(g57
g58
NtRp2065
(dp2066
g61
(dp2067
g69
I4
ssg70
g2061
sg63
(lp2068
g56
(g65
g58
NtRp2069
(dp2070
g61
(dp2071
g69
I3
ssg70
Nsg63
(lp2072
g56
(g72
g58
NtRp2073
(dp2074
g61
(dp2075
sg70
g2069
sg63
(lp2076
g56
(g77
g58
NtRp2077
(dp2078
g61
(dp2079
sg70
g2073
sg63
(lp2080
g56
(g57
g58
NtRp2081
(dp2082
g61
(dp2083
g69
I3
ssg70
g2077
sg63
(lp2084
S'1'
asbasbasbag56
(g72
g58
NtRp2085
(dp2086
g61
(dp2087
sg70
g2069
sg63
(lp2088
g56
(g77
g58
NtRp2089
(dp2090
g61
(dp2091
sg70
g2085
sg63
(lp2092
g56
(g57
g58
NtRp2093
(dp2094
g61
(dp2095
g69
I3
ssg70
g2089
sg63
(lp2096
S'99'
p2097
asbasbasbag56
(g72
g58
NtRp2098
(dp2099
g61
(dp2100
sg70
g2069
sg63
(lp2101
g56
(g77
g58
NtRp2102
(dp2103
g61
(dp2104
sg70
g2098
sg63
(lp2105
g56
(g57
g58
NtRp2106
(dp2107
g61
(dp2108
g69
I3
ssg70
g2102
sg63
(lp2109
S'7'
asbasbasbag56
(g72
g58
NtRp2110
(dp2111
g61
(dp2112
sg70
g2069
sg63
(lp2113
g56
(g77
g58
NtRp2114
(dp2115
g61
(dp2116
sg70
g2110
sg63
(lp2117
g56
(g57
g58
NtRp2118
(dp2119
g61
(dp2120
g69
I3
ssg70
g2114
sg63
(lp2121
S'datetime.datetime(2012, 3, 4, 22, 12, 8)'
p2122
asbasbasbag56
(g72
g58
NtRp2123
(dp2124
g61
(dp2125
sg70
g2069
sg63
(lp2126
g56
(g77
g58
NtRp2127
(dp2128
g61
(dp2129
sg70
g2123
sg63
(lp2130
g56
(g57
g58
NtRp2131
(dp2132
g61
(dp2133
g69
I3
ssg70
g2127
sg63
(lp2134
g1524
asbasbasbasbasbasbasbasbasbasbasbag56
(g72
g58
NtRp2135
(dp2136
g61
(dp2137
sg70
g66
sg63
(lp2138
g56
(g77
g58
NtRp2139
(dp2140
g61
(dp2141
g81
g82
ssg70
g2135
sg63
(lp2142
S'is_https'
p2143
asbag56
(g77
g58
NtRp2144
(dp2145
g61
(dp2146
g88
g89
ssg70
g2135
sg63
(lp2147
S':'
asbag56
(g77
g58
NtRp2148
(dp2149
g61
(dp2150
sg70
g2135
sg63
(lp2151
g56
(g57
g58
NtRp2152
(dp2153
g61
(dp2154
g69
I5
ssg70
g2148
sg63
(lp2155
g99
asbasbasbag56
(g72
g58
NtRp2156
(dp2157
g61
(dp2158
sg70
g66
sg63
(lp2159
g56
(g77
g58
NtRp2160
(dp2161
g61
(dp2162
g81
g82
ssg70
g2156
sg63
(lp2163
S'is_local'
p2164
asbag56
(g77
g58
NtRp2165
(dp2166
g61
(dp2167
g88
g89
ssg70
g2156
sg63
(lp2168
S':'
asbag56
(g77
g58
NtRp2169
(dp2170
g61
(dp2171
sg70
g2156
sg63
(lp2172
g56
(g57
g58
NtRp2173
(dp2174
g61
(dp2175
g69
I5
ssg70
g2169
sg63
(lp2176
g1633
asbasbasbag56
(g72
g58
NtRp2177
(dp2178
g61
(dp2179
sg70
g66
sg63
(lp2180
g56
(g77
g58
NtRp2181
(dp2182
g61
(dp2183
g81
g82
ssg70
g2177
sg63
(lp2184
S'is_restful'
p2185
asbag56
(g77
g58
NtRp2186
(dp2187
g61
(dp2188
g88
g89
ssg70
g2177
sg63
(lp2189
S':'
asbag56
(g77
g58
NtRp2190
(dp2191
g61
(dp2192
sg70
g2177
sg63
(lp2193
g56
(g57
g58
NtRp2194
(dp2195
g61
(dp2196
g69
I5
ssg70
g2190
sg63
(lp2197
g99
asbasbasbag56
(g72
g58
NtRp2198
(dp2199
g61
(dp2200
sg70
g66
sg63
(lp2201
g56
(g77
g58
NtRp2202
(dp2203
g61
(dp2204
g81
g82
ssg70
g2198
sg63
(lp2205
S'now'
p2206
asbag56
(g77
g58
NtRp2207
(dp2208
g61
(dp2209
g88
g89
ssg70
g2198
sg63
(lp2210
S':'
asbag56
(g77
g58
NtRp2211
(dp2212
g61
(dp2213
sg70
g2198
sg63
(lp2214
g56
(g57
g58
NtRp2215
(dp2216
g61
(dp2217
g69
I5
ssg70
g2211
sg63
(lp2218
S'datetime.datetime(2015, 5, 10, 8, 20, 22, 787064)'
p2219
asbasbasbag56
(g72
g58
NtRp2220
(dp2221
g61
(dp2222
sg70
g66
sg63
(lp2223
g56
(g77
g58
NtRp2224
(dp2225
g61
(dp2226
g81
g82
ssg70
g2220
sg63
(lp2227
S'post_vars'
p2228
asbag56
(g77
g58
NtRp2229
(dp2230
g61
(dp2231
g88
g89
ssg70
g2220
sg63
(lp2232
S':'
asbag56
(g77
g58
NtRp2233
(dp2234
g61
(dp2235
sg70
g2220
sg63
(lp2236
g56
(g57
g58
NtRp2237
(dp2238
g61
(dp2239
g69
I5
ssg70
g2233
sg63
(lp2240
g56
(g65
g58
NtRp2241
(dp2242
g61
(dp2243
g69
I4
ssg70
Nsg63
(lp2244
sbasbasbasbag56
(g72
g58
NtRp2245
(dp2246
g61
(dp2247
sg70
g66
sg63
(lp2248
g56
(g77
g58
NtRp2249
(dp2250
g61
(dp2251
g81
g82
ssg70
g2245
sg63
(lp2252
S'url'
p2253
asbag56
(g77
g58
NtRp2254
(dp2255
g61
(dp2256
g88
g89
ssg70
g2245
sg63
(lp2257
S':'
asbag56
(g77
g58
NtRp2258
(dp2259
g61
(dp2260
sg70
g2245
sg63
(lp2261
g56
(g57
g58
NtRp2262
(dp2263
g61
(dp2264
g69
I5
ssg70
g2258
sg63
(lp2265
S'/newsapp/default/tw_trends'
p2266
asbasbasbag56
(g72
g58
NtRp2267
(dp2268
g61
(dp2269
sg70
g66
sg63
(lp2270
g56
(g77
g58
NtRp2271
(dp2272
g61
(dp2273
g81
g82
ssg70
g2267
sg63
(lp2274
S'utcnow'
p2275
asbag56
(g77
g58
NtRp2276
(dp2277
g61
(dp2278
g88
g89
ssg70
g2267
sg63
(lp2279
S':'
asbag56
(g77
g58
NtRp2280
(dp2281
g61
(dp2282
sg70
g2267
sg63
(lp2283
g56
(g57
g58
NtRp2284
(dp2285
g61
(dp2286
g69
I5
ssg70
g2280
sg63
(lp2287
S'datetime.datetime(2015, 5, 10, 2, 50, 22, 787079)'
p2288
asbasbasbag56
(g72
g58
NtRp2289
(dp2290
g61
(dp2291
sg70
g66
sg63
(lp2292
g56
(g77
g58
NtRp2293
(dp2294
g61
(dp2295
g81
g82
ssg70
g2289
sg63
(lp2296
S'uuid'
p2297
asbag56
(g77
g58
NtRp2298
(dp2299
g61
(dp2300
g88
g89
ssg70
g2289
sg63
(lp2301
S':'
asbag56
(g77
g58
NtRp2302
(dp2303
g61
(dp2304
sg70
g2289
sg63
(lp2305
g56
(g57
g58
NtRp2306
(dp2307
g61
(dp2308
g69
I5
ssg70
g2302
sg63
(lp2309
S'newsapp/127.0.0.1.2015-05-10.08-20-22.4a56c9d4-b5e1-4b73-b1f5-1650c92034a5'
p2310
asbasbasbag56
(g72
g58
NtRp2311
(dp2312
g61
(dp2313
sg70
g66
sg63
(lp2314
g56
(g77
g58
NtRp2315
(dp2316
g61
(dp2317
g81
g82
ssg70
g2311
sg63
(lp2318
S'vars'
p2319
asbag56
(g77
g58
NtRp2320
(dp2321
g61
(dp2322
g88
g89
ssg70
g2311
sg63
(lp2323
S':'
asbag56
(g77
g58
NtRp2324
(dp2325
g61
(dp2326
sg70
g2311
sg63
(lp2327
g56
(g57
g58
NtRp2328
(dp2329
g61
(dp2330
g69
I5
ssg70
g2324
sg63
(lp2331
g56
(g65
g58
NtRp2332
(dp2333
g61
(dp2334
g69
I4
ssg70
Nsg63
(lp2335
sbasbasbasbag56
(g72
g58
NtRp2336
(dp2337
g61
(dp2338
sg70
g66
sg63
(lp2339
g56
(g77
g58
NtRp2340
(dp2341
g61
(dp2342
g81
g82
ssg70
g2336
sg63
(lp2343
S'wsgi'
p2344
asbag56
(g77
g58
NtRp2345
(dp2346
g61
(dp2347
g88
g89
ssg70
g2336
sg63
(lp2348
S':'
asbag56
(g77
g58
NtRp2349
(dp2350
g61
(dp2351
sg70
g2336
sg63
(lp2352
g56
(g57
g58
NtRp2353
(dp2354
g61
(dp2355
g69
I5
ssg70
g2349
sg63
(lp2356
g56
(g65
g58
NtRp2357
(dp2358
g61
(dp2359
g69
I4
ssg70
Nsg63
(lp2360
g56
(g72
g58
NtRp2361
(dp2362
g61
(dp2363
sg70
g2357
sg63
(lp2364
g56
(g77
g58
NtRp2365
(dp2366
g61
(dp2367
g81
g82
ssg70
g2361
sg63
(lp2368
S'environ'
p2369
asbag56
(g77
g58
NtRp2370
(dp2371
g61
(dp2372
g88
g89
ssg70
g2361
sg63
(lp2373
S':'
asbag56
(g77
g58
NtRp2374
(dp2375
g61
(dp2376
sg70
g2361
sg63
(lp2377
g56
(g57
g58
NtRp2378
(dp2379
g61
(dp2380
g69
I4
ssg70
g2374
sg63
(lp2381
g56
(g65
g58
NtRp2382
(dp2383
g61
(dp2384
g69
I3
ssg70
Nsg63
(lp2385
g56
(g72
g58
NtRp2386
(dp2387
g61
(dp2388
sg70
g2382
sg63
(lp2389
g56
(g77
g58
NtRp2390
(dp2391
g61
(dp2392
g81
g82
ssg70
g2386
sg63
(lp2393
S'HTTP_ACCEPT'
p2394
asbag56
(g77
g58
NtRp2395
(dp2396
g61
(dp2397
g88
g89
ssg70
g2386
sg63
(lp2398
S':'
asbag56
(g77
g58
NtRp2399
(dp2400
g61
(dp2401
sg70
g2386
sg63
(lp2402
g56
(g57
g58
NtRp2403
(dp2404
g61
(dp2405
g69
I3
ssg70
g2399
sg63
(lp2406
g1002
asbasbasbag56
(g72
g58
NtRp2407
(dp2408
g61
(dp2409
sg70
g2382
sg63
(lp2410
g56
(g77
g58
NtRp2411
(dp2412
g61
(dp2413
g81
g82
ssg70
g2407
sg63
(lp2414
S'HTTP_ACCEPT_ENCODING'
p2415
asbag56
(g77
g58
NtRp2416
(dp2417
g61
(dp2418
g88
g89
ssg70
g2407
sg63
(lp2419
S':'
asbag56
(g77
g58
NtRp2420
(dp2421
g61
(dp2422
sg70
g2407
sg63
(lp2423
g56
(g57
g58
NtRp2424
(dp2425
g61
(dp2426
g69
I3
ssg70
g2420
sg63
(lp2427
g1024
asbasbasbag56
(g72
g58
NtRp2428
(dp2429
g61
(dp2430
sg70
g2382
sg63
(lp2431
g56
(g77
g58
NtRp2432
(dp2433
g61
(dp2434
g81
g82
ssg70
g2428
sg63
(lp2435
S'HTTP_ACCEPT_LANGUAGE'
p2436
asbag56
(g77
g58
NtRp2437
(dp2438
g61
(dp2439
g88
g89
ssg70
g2428
sg63
(lp2440
S':'
asbag56
(g77
g58
NtRp2441
(dp2442
g61
(dp2443
sg70
g2428
sg63
(lp2444
g56
(g57
g58
NtRp2445
(dp2446
g61
(dp2447
g69
I3
ssg70
g2441
sg63
(lp2448
g1046
asbasbasbag56
(g72
g58
NtRp2449
(dp2450
g61
(dp2451
sg70
g2382
sg63
(lp2452
g56
(g77
g58
NtRp2453
(dp2454
g61
(dp2455
g81
g82
ssg70
g2449
sg63
(lp2456
S'HTTP_CONNECTION'
p2457
asbag56
(g77
g58
NtRp2458
(dp2459
g61
(dp2460
g88
g89
ssg70
g2449
sg63
(lp2461
S':'
asbag56
(g77
g58
NtRp2462
(dp2463
g61
(dp2464
sg70
g2449
sg63
(lp2465
g56
(g57
g58
NtRp2466
(dp2467
g61
(dp2468
g69
I3
ssg70
g2462
sg63
(lp2469
g1068
asbasbasbag56
(g72
g58
NtRp2470
(dp2471
g61
(dp2472
sg70
g2382
sg63
(lp2473
g56
(g77
g58
NtRp2474
(dp2475
g61
(dp2476
g81
g82
ssg70
g2470
sg63
(lp2477
S'HTTP_COOKIE'
p2478
asbag56
(g77
g58
NtRp2479
(dp2480
g61
(dp2481
g88
g89
ssg70
g2470
sg63
(lp2482
S':'
asbag56
(g77
g58
NtRp2483
(dp2484
g61
(dp2485
sg70
g2470
sg63
(lp2486
g56
(g57
g58
NtRp2487
(dp2488
g61
(dp2489
g69
I3
ssg70
g2483
sg63
(lp2490
g1090
asbasbasbag56
(g72
g58
NtRp2491
(dp2492
g61
(dp2493
sg70
g2382
sg63
(lp2494
g56
(g77
g58
NtRp2495
(dp2496
g61
(dp2497
g81
g82
ssg70
g2491
sg63
(lp2498
S'HTTP_HOST'
p2499
asbag56
(g77
g58
NtRp2500
(dp2501
g61
(dp2502
g88
g89
ssg70
g2491
sg63
(lp2503
S':'
asbag56
(g77
g58
NtRp2504
(dp2505
g61
(dp2506
sg70
g2491
sg63
(lp2507
g56
(g57
g58
NtRp2508
(dp2509
g61
(dp2510
g69
I3
ssg70
g2504
sg63
(lp2511
g1112
asbasbasbag56
(g72
g58
NtRp2512
(dp2513
g61
(dp2514
sg70
g2382
sg63
(lp2515
g56
(g77
g58
NtRp2516
(dp2517
g61
(dp2518
g81
g82
ssg70
g2512
sg63
(lp2519
S'HTTP_USER_AGENT'
p2520
asbag56
(g77
g58
NtRp2521
(dp2522
g61
(dp2523
g88
g89
ssg70
g2512
sg63
(lp2524
S':'
asbag56
(g77
g58
NtRp2525
(dp2526
g61
(dp2527
sg70
g2512
sg63
(lp2528
g56
(g57
g58
NtRp2529
(dp2530
g61
(dp2531
g69
I3
ssg70
g2525
sg63
(lp2532
g1134
asbasbasbag56
(g72
g58
NtRp2533
(dp2534
g61
(dp2535
sg70
g2382
sg63
(lp2536
g56
(g77
g58
NtRp2537
(dp2538
g61
(dp2539
g81
g82
ssg70
g2533
sg63
(lp2540
S'PATH_INFO'
p2541
asbag56
(g77
g58
NtRp2542
(dp2543
g61
(dp2544
g88
g89
ssg70
g2533
sg63
(lp2545
S':'
asbag56
(g77
g58
NtRp2546
(dp2547
g61
(dp2548
sg70
g2533
sg63
(lp2549
g56
(g57
g58
NtRp2550
(dp2551
g61
(dp2552
g69
I3
ssg70
g2546
sg63
(lp2553
g1198
asbasbasbag56
(g72
g58
NtRp2554
(dp2555
g61
(dp2556
sg70
g2382
sg63
(lp2557
g56
(g77
g58
NtRp2558
(dp2559
g61
(dp2560
g81
g82
ssg70
g2554
sg63
(lp2561
S'QUERY_STRING'
p2562
asbag56
(g77
g58
NtRp2563
(dp2564
g61
(dp2565
g88
g89
ssg70
g2554
sg63
(lp2566
S':'
asbag56
(g77
g58
NtRp2567
(dp2568
g61
(dp2569
sg70
g2554
sg63
(lp2570
g56
(g57
g58
NtRp2571
(dp2572
g61
(dp2573
g69
I3
ssg70
g2567
sg63
(lp2574
S''
asbasbasbag56
(g72
g58
NtRp2575
(dp2576
g61
(dp2577
sg70
g2382
sg63
(lp2578
g56
(g77
g58
NtRp2579
(dp2580
g61
(dp2581
g81
g82
ssg70
g2575
sg63
(lp2582
S'REMOTE_ADDR'
p2583
asbag56
(g77
g58
NtRp2584
(dp2585
g61
(dp2586
g88
g89
ssg70
g2575
sg63
(lp2587
S':'
asbag56
(g77
g58
NtRp2588
(dp2589
g61
(dp2590
sg70
g2575
sg63
(lp2591
g56
(g57
g58
NtRp2592
(dp2593
g61
(dp2594
g69
I3
ssg70
g2588
sg63
(lp2595
g189
asbasbasbag56
(g72
g58
NtRp2596
(dp2597
g61
(dp2598
sg70
g2382
sg63
(lp2599
g56
(g77
g58
NtRp2600
(dp2601
g61
(dp2602
g81
g82
ssg70
g2596
sg63
(lp2603
S'REMOTE_PORT'
p2604
asbag56
(g77
g58
NtRp2605
(dp2606
g61
(dp2607
g88
g89
ssg70
g2596
sg63
(lp2608
S':'
asbag56
(g77
g58
NtRp2609
(dp2610
g61
(dp2611
sg70
g2596
sg63
(lp2612
g56
(g57
g58
NtRp2613
(dp2614
g61
(dp2615
g69
I3
ssg70
g2609
sg63
(lp2616
g1262
asbasbasbag56
(g72
g58
NtRp2617
(dp2618
g61
(dp2619
sg70
g2382
sg63
(lp2620
g56
(g77
g58
NtRp2621
(dp2622
g61
(dp2623
g81
g82
ssg70
g2617
sg63
(lp2624
S'REQUEST_METHOD'
p2625
asbag56
(g77
g58
NtRp2626
(dp2627
g61
(dp2628
g88
g89
ssg70
g2617
sg63
(lp2629
S':'
asbag56
(g77
g58
NtRp2630
(dp2631
g61
(dp2632
sg70
g2617
sg63
(lp2633
g56
(g57
g58
NtRp2634
(dp2635
g61
(dp2636
g69
I3
ssg70
g2630
sg63
(lp2637
g1284
asbasbasbag56
(g72
g58
NtRp2638
(dp2639
g61
(dp2640
sg70
g2382
sg63
(lp2641
g56
(g77
g58
NtRp2642
(dp2643
g61
(dp2644
g81
g82
ssg70
g2638
sg63
(lp2645
S'SCRIPT_NAME'
p2646
asbag56
(g77
g58
NtRp2647
(dp2648
g61
(dp2649
g88
g89
ssg70
g2638
sg63
(lp2650
S':'
asbag56
(g77
g58
NtRp2651
(dp2652
g61
(dp2653
sg70
g2638
sg63
(lp2654
g56
(g57
g58
NtRp2655
(dp2656
g61
(dp2657
g69
I3
ssg70
g2651
sg63
(lp2658
S''
asbasbasbag56
(g72
g58
NtRp2659
(dp2660
g61
(dp2661
sg70
g2382
sg63
(lp2662
g56
(g77
g58
NtRp2663
(dp2664
g61
(dp2665
g81
g82
ssg70
g2659
sg63
(lp2666
S'SERVER_NAME'
p2667
asbag56
(g77
g58
NtRp2668
(dp2669
g61
(dp2670
g88
g89
ssg70
g2659
sg63
(lp2671
S':'
asbag56
(g77
g58
NtRp2672
(dp2673
g61
(dp2674
sg70
g2659
sg63
(lp2675
g56
(g57
g58
NtRp2676
(dp2677
g61
(dp2678
g69
I3
ssg70
g2672
sg63
(lp2679
g1327
asbasbasbag56
(g72
g58
NtRp2680
(dp2681
g61
(dp2682
sg70
g2382
sg63
(lp2683
g56
(g77
g58
NtRp2684
(dp2685
g61
(dp2686
g81
g82
ssg70
g2680
sg63
(lp2687
S'SERVER_PORT'
p2688
asbag56
(g77
g58
NtRp2689
(dp2690
g61
(dp2691
g88
g89
ssg70
g2680
sg63
(lp2692
S':'
asbag56
(g77
g58
NtRp2693
(dp2694
g61
(dp2695
sg70
g2680
sg63
(lp2696
g56
(g57
g58
NtRp2697
(dp2698
g61
(dp2699
g69
I3
ssg70
g2693
sg63
(lp2700
g1349
asbasbasbag56
(g72
g58
NtRp2701
(dp2702
g61
(dp2703
sg70
g2382
sg63
(lp2704
g56
(g77
g58
NtRp2705
(dp2706
g61
(dp2707
g81
g82
ssg70
g2701
sg63
(lp2708
S'SERVER_PROTOCOL'
p2709
asbag56
(g77
g58
NtRp2710
(dp2711
g61
(dp2712
g88
g89
ssg70
g2701
sg63
(lp2713
S':'
asbag56
(g77
g58
NtRp2714
(dp2715
g61
(dp2716
sg70
g2701
sg63
(lp2717
g56
(g57
g58
NtRp2718
(dp2719
g61
(dp2720
g69
I3
ssg70
g2714
sg63
(lp2721
g1371
asbasbasbag56
(g72
g58
NtRp2722
(dp2723
g61
(dp2724
sg70
g2382
sg63
(lp2725
g56
(g77
g58
NtRp2726
(dp2727
g61
(dp2728
g81
g82
ssg70
g2722
sg63
(lp2729
S'SERVER_SOFTWARE'
p2730
asbag56
(g77
g58
NtRp2731
(dp2732
g61
(dp2733
g88
g89
ssg70
g2722
sg63
(lp2734
S':'
asbag56
(g77
g58
NtRp2735
(dp2736
g61
(dp2737
sg70
g2722
sg63
(lp2738
g56
(g57
g58
NtRp2739
(dp2740
g61
(dp2741
g69
I3
ssg70
g2735
sg63
(lp2742
g1393
asbasbasbag56
(g72
g58
NtRp2743
(dp2744
g61
(dp2745
sg70
g2382
sg63
(lp2746
g56
(g77
g58
NtRp2747
(dp2748
g61
(dp2749
g81
g82
ssg70
g2743
sg63
(lp2750
S'wsgi.errors'
p2751
asbag56
(g77
g58
NtRp2752
(dp2753
g61
(dp2754
g88
g89
ssg70
g2743
sg63
(lp2755
S':'
asbag56
(g77
g58
NtRp2756
(dp2757
g61
(dp2758
sg70
g2743
sg63
(lp2759
g56
(g57
g58
NtRp2760
(dp2761
g61
(dp2762
g69
I3
ssg70
g2756
sg63
(lp2763
S"<open file '<stderr>', mode 'w' at 0x7f48c48d91e0>"
p2764
asbasbasbag56
(g72
g58
NtRp2765
(dp2766
g61
(dp2767
sg70
g2382
sg63
(lp2768
g56
(g77
g58
NtRp2769
(dp2770
g61
(dp2771
g81
g82
ssg70
g2765
sg63
(lp2772
S'wsgi.file_wrapper'
p2773
asbag56
(g77
g58
NtRp2774
(dp2775
g61
(dp2776
g88
g89
ssg70
g2765
sg63
(lp2777
S':'
asbag56
(g77
g58
NtRp2778
(dp2779
g61
(dp2780
sg70
g2765
sg63
(lp2781
g56
(g57
g58
NtRp2782
(dp2783
g61
(dp2784
g69
I3
ssg70
g2778
sg63
(lp2785
S'<class wsgiref.util.FileWrapper at 0x7f48c0836e88>'
p2786
asbasbasbag56
(g72
g58
NtRp2787
(dp2788
g61
(dp2789
sg70
g2382
sg63
(lp2790
g56
(g77
g58
NtRp2791
(dp2792
g61
(dp2793
g81
g82
ssg70
g2787
sg63
(lp2794
S'wsgi.input'
p2795
asbag56
(g77
g58
NtRp2796
(dp2797
g61
(dp2798
g88
g89
ssg70
g2787
sg63
(lp2799
S':'
asbag56
(g77
g58
NtRp2800
(dp2801
g61
(dp2802
sg70
g2787
sg63
(lp2803
g56
(g57
g58
NtRp2804
(dp2805
g61
(dp2806
g69
I3
ssg70
g2800
sg63
(lp2807
S'<cStringIO.StringO object at 0x7f4869ce2f48>'
p2808
asbasbasbag56
(g72
g58
NtRp2809
(dp2810
g61
(dp2811
sg70
g2382
sg63
(lp2812
g56
(g77
g58
NtRp2813
(dp2814
g61
(dp2815
g81
g82
ssg70
g2809
sg63
(lp2816
S'wsgi.multiprocess'
p2817
asbag56
(g77
g58
NtRp2818
(dp2819
g61
(dp2820
g88
g89
ssg70
g2809
sg63
(lp2821
S':'
asbag56
(g77
g58
NtRp2822
(dp2823
g61
(dp2824
sg70
g2809
sg63
(lp2825
g56
(g57
g58
NtRp2826
(dp2827
g61
(dp2828
g69
I3
ssg70
g2822
sg63
(lp2829
g99
asbasbasbag56
(g72
g58
NtRp2830
(dp2831
g61
(dp2832
sg70
g2382
sg63
(lp2833
g56
(g77
g58
NtRp2834
(dp2835
g61
(dp2836
g81
g82
ssg70
g2830
sg63
(lp2837
S'wsgi.multithread'
p2838
asbag56
(g77
g58
NtRp2839
(dp2840
g61
(dp2841
g88
g89
ssg70
g2830
sg63
(lp2842
S':'
asbag56
(g77
g58
NtRp2843
(dp2844
g61
(dp2845
sg70
g2830
sg63
(lp2846
g56
(g57
g58
NtRp2847
(dp2848
g61
(dp2849
g69
I3
ssg70
g2843
sg63
(lp2850
g1633
asbasbasbag56
(g72
g58
NtRp2851
(dp2852
g61
(dp2853
sg70
g2382
sg63
(lp2854
g56
(g77
g58
NtRp2855
(dp2856
g61
(dp2857
g81
g82
ssg70
g2851
sg63
(lp2858
S'wsgi.run_once'
p2859
asbag56
(g77
g58
NtRp2860
(dp2861
g61
(dp2862
g88
g89
ssg70
g2851
sg63
(lp2863
S':'
asbag56
(g77
g58
NtRp2864
(dp2865
g61
(dp2866
sg70
g2851
sg63
(lp2867
g56
(g57
g58
NtRp2868
(dp2869
g61
(dp2870
g69
I3
ssg70
g2864
sg63
(lp2871
g99
asbasbasbag56
(g72
g58
NtRp2872
(dp2873
g61
(dp2874
sg70
g2382
sg63
(lp2875
g56
(g77
g58
NtRp2876
(dp2877
g61
(dp2878
g81
g82
ssg70
g2872
sg63
(lp2879
S'wsgi.url_scheme'
p2880
asbag56
(g77
g58
NtRp2881
(dp2882
g61
(dp2883
g88
g89
ssg70
g2872
sg63
(lp2884
S':'
asbag56
(g77
g58
NtRp2885
(dp2886
g61
(dp2887
sg70
g2872
sg63
(lp2888
g56
(g57
g58
NtRp2889
(dp2890
g61
(dp2891
g69
I3
ssg70
g2885
sg63
(lp2892
g1676
asbasbasbag56
(g72
g58
NtRp2893
(dp2894
g61
(dp2895
sg70
g2382
sg63
(lp2896
g56
(g77
g58
NtRp2897
(dp2898
g61
(dp2899
g81
g82
ssg70
g2893
sg63
(lp2900
S'wsgi.version'
p2901
asbag56
(g77
g58
NtRp2902
(dp2903
g61
(dp2904
g88
g89
ssg70
g2893
sg63
(lp2905
S':'
asbag56
(g77
g58
NtRp2906
(dp2907
g61
(dp2908
sg70
g2893
sg63
(lp2909
g56
(g57
g58
NtRp2910
(dp2911
g61
(dp2912
g69
I3
ssg70
g2906
sg63
(lp2913
S'1'
asbasbasbasbasbasbasbasbasbasbasbasbasbsS'frames'
p2914
(lp2915
(dp2916
S'file'
p2917
S'/usr/lib/pymodules/python2.7/gluon/restricted.py'
p2918
sS'dump'
p2919
(dp2920
S'environment'
p2921
S"{'A': <class 'gluon.html.A'>, 'Auth': <class 'gluon.tools.Auth'>, 'B': <class 'gluon.html.B'>, 'BEAUTIFY': <class 'gluon.html.BEAUTIFY'>, 'BODY': <class 'gluon.html.BODY'>, 'BR': <class 'gluon.html.BR'>, 'BUTTON': <class 'gluon.html.BUTTON'>, 'CAT': <class 'gluon.html.CAT'>, 'CENTER': <class 'gluon.html.CENTER'>, 'CLEANUP': <class 'gluon.validators.CLEANUP'>, ...}"
p2922
sS'ccode'
p2923
S'<code object <module> at 0x7f486a3b1a30, file "/...ications/newsapp/controllers/default.py", line 1>'
p2924
ssS'lnum'
p2925
I205
sS'lines'
p2926
(dp2927
I200
S'    try:'
p2928
sI201
S'        if type(code) == types.CodeType:'
p2929
sI202
S'            ccode = code'
p2930
sI203
S'        else:'
p2931
sI204
S'            ccode = compile2(code,layer)'
p2932
sI205
S'        exec ccode in environment'
p2933
sI206
S'    except HTTP:'
p2934
sI207
S'        raise'
p2935
sI208
S'    except RestrictedError:'
p2936
sI209
S'        # do not encapsulate (obfuscate) the original RestrictedError'
p2937
ssS'call'
p2938
S"(code='import urllib,urllib2\\nfrom urlparse import *\\nimp...ct()\\n\\nresponse._vars=response._caller(tw_trends)\\n', environment={'A': <class 'gluon.html.A'>, 'Auth': <class 'gluon.tools.Auth'>, 'B': <class 'gluon.html.B'>, 'BEAUTIFY': <class 'gluon.html.BEAUTIFY'>, 'BODY': <class 'gluon.html.BODY'>, 'BR': <class 'gluon.html.BR'>, 'BUTTON': <class 'gluon.html.BUTTON'>, 'CAT': <class 'gluon.html.CAT'>, 'CENTER': <class 'gluon.html.CENTER'>, 'CLEANUP': <class 'gluon.validators.CLEANUP'>, ...}, layer='/home/pooja/web2py/applications/newsapp/controllers/default.py')"
p2939
sS'func'
p2940
S'restricted'
p2941
sa(dp2942
g2917
S'/home/pooja/web2py/applications/newsapp/controllers/default.py'
p2943
sg2919
(dp2944
sg2925
I117
sg2926
(dp2945
I106
S'    url += "&fb_exchange_token=%s"%(token)'
p2946
sI107
S''
sI108
S'    data = urllib2.urlopen(url)'
p2947
sI109
S'    interm = data.read().split("=")'
p2948
sI110
S'    token = interm[1].split("&")'
p2949
sI111
S'    extended_token = token[0]'
p2950
sI112
S'    session.extended_token = extended_token'
p2951
sI113
S'    expires = interm[2]'
p2952
sI114
S'    fb_status = db.executesql("""INSERT IGNORE INTO  fb_details(name,email_id,fb_id,access_token,expiry) VALUES (%s,%s,%s,%s,%s);""",(name,email_id,session.fb_id,extended_token,expires))'
p2953
sI115
S'    return dict()'
p2954
ssg2938
S'()'
p2955
sg2940
S'<module>'
p2956
sa(dp2957
g2917
S'/usr/lib/pymodules/python2.7/gluon/globals.py'
p2958
sg2919
(dp2959
S'self'
p2960
S'undefined'
p2961
sS'f'
S'<function tw_trends>'
p2962
ssg2925
I173
sg2926
(dp2963
I168
S'        self.menu = []             # used by the default view layout'
p2964
sI169
S'        self.files = []            # used by web2py_ajax.html'
p2965
sI170
S'        self.generic_patterns = [] # patterns to allow generic views'
p2966
sI171
S"        self.delimiters = ('{{','}}')"
p2967
sI172
S'        self._vars = None'
p2968
sI173
S'        self._caller = lambda f: f()'
p2969
sI174
S'        self._view_environment = None'
p2970
sI175
S'        self._custom_commit = None'
p2971
sI176
S'        self._custom_rollback = None'
p2972
sI177
S''
ssg2938
S'(f=<function tw_trends>)'
p2973
sg2940
S'<lambda>'
p2974
sa(dp2975
g2917
S'/home/pooja/web2py/applications/newsapp/controllers/default.py'
p2976
sg2919
(dp2977
S'data'
p2978
S"[{u'as_of': u'2015-05-10T02:50:23Z', u'created_at': u'2015-05-10T02:41:47Z', u'locations': [{u'name': u'India', u'woeid': 23424848}], u'trends': [{u'name': u'#\\u0b85\\u0ba9\\u0bcd\\u0ba9\\u0bc8\\u0baf\\u0bb0\\u0bcd\\u0ba4\\u0bbf\\u0ba9\\u0bae\\u0bcd', u'promoted_content': None, u'query': u'%23%E0%AE%85%E0%AE%A9%E0%AF%8D%E0%AE%A9%E0%AF%...%8D%E0%AE%A4%E0%AE%BF%E0%AE%A9%E0%AE%AE%E0%AF%8D', u'url': u'http://twitter.com/search?q=%23%E0%AE%85%E0%AE...%8D%E0%AE%A4%E0%AE%BF%E0%AE%A9%E0%AE%AE%E0%AF%8D'}, {u'name': u'#HappyMothersDay', u'promoted_content': None, u'query': u'%23HappyMothersDay', u'url': u'http://twitter.com/search?q=%23HappyMothersDay'}, {u'name': u'#OhNoNiall', u'promoted_content': None, u'query': u'%23OhNoNiall', u'url': u'http://twitter.com/search?q=%23OhNoNiall'}, {u'name': u'#ThinkBIGSundayWithMarsha', u'promoted_content': None, u'query': u'%23ThinkBIGSundayWithMarsha', u'url': u'http://twitter.com/search?q=%23ThinkBIGSundayWithMarsha'}, {u'name': u'#KKRvsKXIP', u'promoted_content': None, u'query': u'%23KKRvsKXIP', u'url': u'http://twitter.com/search?q=%23KKRvsKXIP'}, {u'name': u'Chhattisgarh', u'promoted_content': None, u'query': u'Chhattisgarh', u'url': u'http://twitter.com/search?q=Chhattisgarh'}, {u'name': u'Gopal Krishna Gokhale', u'promoted_content': None, u'query': u'%22Gopal+Krishna+Gokhale%22', u'url': u'http://twitter.com/search?q=%22Gopal+Krishna+Gokhale%22'}, {u'name': u'episode 4', u'promoted_content': None, u'query': u'%22episode+4%22', u'url': u'http://twitter.com/search?q=%22episode+4%22'}, {u'name': u'De Gea', u'promoted_content': None, u'query': u'%22De+Gea%22', u'url': u'http://twitter.com/search?q=%22De+Gea%22'}, {u'name': u'Ashish Joshi', u'promoted_content': None, u'query': u'%22Ashish+Joshi%22', u'url': u'http://twitter.com/search?q=%22Ashish+Joshi%22'}]}]"
p2979
ssg2925
I63
sg2926
(dp2980
I64
S'        return dict(content = data)'
p2981
sI65
S''
sI66
S'def get_extented_token():'
p2982
sI67
S'    token = request.vars.token'
p2983
sI58
S'        client = Client(consumer, token)'
p2984
sI59
S'        #response, content = client.request(\'https://api.twitter.com/1.1/statuses/user_timeline.json?screen_name=poojakvj\', "GET")'
p2985
sI60
S'        #response, content = client.request(\'https://api.twitter.com/1.1/trends/available.json\', "GET")'
p2986
sI61
S'        response, content = client.request(\'https://api.twitter.com/1.1/trends/place.json?id=23424848\', "GET")'
p2987
sI62
S'        data = json.loads(content)'
p2988
sI63
S'        print data[0][0]'
p2989
ssg2938
S'()'
p2990
sg2940
S'tw_trends'
p2991
sasS'pyver'
p2992
S'Python 2.7.6: /usr/bin/python'
p2993
sS'session'
p2994
g56
(g57
g58
NtRp2995
(dp2996
g61
(dp2997
sg63
(lp2998
g56
(g65
g58
NtRp2999
(dp3000
g61
(dp3001
g69
I5
ssg70
Nsg63
(lp3002
g56
(g72
g58
NtRp3003
(dp3004
g61
(dp3005
sg70
g2999
sg63
(lp3006
g56
(g77
g58
NtRp3007
(dp3008
g61
(dp3009
g81
g82
ssg70
g3003
sg63
(lp3010
S'access_token'
p3011
asbag56
(g77
g58
NtRp3012
(dp3013
g61
(dp3014
g88
g89
ssg70
g3003
sg63
(lp3015
S':'
asbag56
(g77
g58
NtRp3016
(dp3017
g61
(dp3018
sg70
g3003
sg63
(lp3019
g56
(g57
g58
NtRp3020
(dp3021
g61
(dp3022
g69
I5
ssg70
g3016
sg63
(lp3023
g56
(g65
g58
NtRp3024
(dp3025
g61
(dp3026
g69
I4
ssg70
Nsg63
(lp3027
g56
(g72
g58
NtRp3028
(dp3029
g61
(dp3030
sg70
g3024
sg63
(lp3031
g56
(g77
g58
NtRp3032
(dp3033
g61
(dp3034
g81
g82
ssg70
g3028
sg63
(lp3035
S'oauth_token'
p3036
asbag56
(g77
g58
NtRp3037
(dp3038
g61
(dp3039
g88
g89
ssg70
g3028
sg63
(lp3040
S':'
asbag56
(g77
g58
NtRp3041
(dp3042
g61
(dp3043
sg70
g3028
sg63
(lp3044
g56
(g57
g58
NtRp3045
(dp3046
g61
(dp3047
g69
I4
ssg70
g3041
sg63
(lp3048
S'269256901-Tms0dXy6Yd3ymJZJbGEgKf4EbijtLdKTABJCXd0L'
p3049
asbasbasbag56
(g72
g58
NtRp3050
(dp3051
g61
(dp3052
sg70
g3024
sg63
(lp3053
g56
(g77
g58
NtRp3054
(dp3055
g61
(dp3056
g81
g82
ssg70
g3050
sg63
(lp3057
S'oauth_token_secret'
p3058
asbag56
(g77
g58
NtRp3059
(dp3060
g61
(dp3061
g88
g89
ssg70
g3050
sg63
(lp3062
S':'
asbag56
(g77
g58
NtRp3063
(dp3064
g61
(dp3065
sg70
g3050
sg63
(lp3066
g56
(g57
g58
NtRp3067
(dp3068
g61
(dp3069
g69
I4
ssg70
g3063
sg63
(lp3070
S'cnW26x6ID9yebEJLhTH50Xm36dr3anNuR4mFzzh14AMYr'
p3071
asbasbasbag56
(g72
g58
NtRp3072
(dp3073
g61
(dp3074
sg70
g3024
sg63
(lp3075
g56
(g77
g58
NtRp3076
(dp3077
g61
(dp3078
g81
g82
ssg70
g3072
sg63
(lp3079
S'screen_name'
p3080
asbag56
(g77
g58
NtRp3081
(dp3082
g61
(dp3083
g88
g89
ssg70
g3072
sg63
(lp3084
S':'
asbag56
(g77
g58
NtRp3085
(dp3086
g61
(dp3087
sg70
g3072
sg63
(lp3088
g56
(g57
g58
NtRp3089
(dp3090
g61
(dp3091
g69
I4
ssg70
g3085
sg63
(lp3092
S'poojakvj'
p3093
asbasbasbag56
(g72
g58
NtRp3094
(dp3095
g61
(dp3096
sg70
g3024
sg63
(lp3097
g56
(g77
g58
NtRp3098
(dp3099
g61
(dp3100
g81
g82
ssg70
g3094
sg63
(lp3101
S'user_id'
p3102
asbag56
(g77
g58
NtRp3103
(dp3104
g61
(dp3105
g88
g89
ssg70
g3094
sg63
(lp3106
S':'
asbag56
(g77
g58
NtRp3107
(dp3108
g61
(dp3109
sg70
g3094
sg63
(lp3110
g56
(g57
g58
NtRp3111
(dp3112
g61
(dp3113
g69
I4
ssg70
g3107
sg63
(lp3114
S'269256901'
p3115
asbasbasbasbasbasbasbag56
(g72
g58
NtRp3116
(dp3117
g61
(dp3118
sg70
g2999
sg63
(lp3119
g56
(g77
g58
NtRp3120
(dp3121
g61
(dp3122
g81
g82
ssg70
g3116
sg63
(lp3123
S'request_token'
p3124
asbag56
(g77
g58
NtRp3125
(dp3126
g61
(dp3127
g88
g89
ssg70
g3116
sg63
(lp3128
S':'
asbag56
(g77
g58
NtRp3129
(dp3130
g61
(dp3131
sg70
g3116
sg63
(lp3132
g56
(g57
g58
NtRp3133
(dp3134
g61
(dp3135
g69
I5
ssg70
g3129
sg63
(lp3136
g56
(g65
g58
NtRp3137
(dp3138
g61
(dp3139
g69
I4
ssg70
Nsg63
(lp3140
g56
(g72
g58
NtRp3141
(dp3142
g61
(dp3143
sg70
g3137
sg63
(lp3144
g56
(g77
g58
NtRp3145
(dp3146
g61
(dp3147
g81
g82
ssg70
g3141
sg63
(lp3148
S'oauth_callback_confirmed'
p3149
asbag56
(g77
g58
NtRp3150
(dp3151
g61
(dp3152
g88
g89
ssg70
g3141
sg63
(lp3153
S':'
asbag56
(g77
g58
NtRp3154
(dp3155
g61
(dp3156
sg70
g3141
sg63
(lp3157
g56
(g57
g58
NtRp3158
(dp3159
g61
(dp3160
g69
I4
ssg70
g3154
sg63
(lp3161
S'true'
p3162
asbasbasbag56
(g72
g58
NtRp3163
(dp3164
g61
(dp3165
sg70
g3137
sg63
(lp3166
g56
(g77
g58
NtRp3167
(dp3168
g61
(dp3169
g81
g82
ssg70
g3163
sg63
(lp3170
S'oauth_token'
p3171
asbag56
(g77
g58
NtRp3172
(dp3173
g61
(dp3174
g88
g89
ssg70
g3163
sg63
(lp3175
S':'
asbag56
(g77
g58
NtRp3176
(dp3177
g61
(dp3178
sg70
g3163
sg63
(lp3179
g56
(g57
g58
NtRp3180
(dp3181
g61
(dp3182
g69
I4
ssg70
g3176
sg63
(lp3183
S'iuWsbUHgxzYFQ74yRDgMoup4ltVcwSiW'
p3184
asbasbasbag56
(g72
g58
NtRp3185
(dp3186
g61
(dp3187
sg70
g3137
sg63
(lp3188
g56
(g77
g58
NtRp3189
(dp3190
g61
(dp3191
g81
g82
ssg70
g3185
sg63
(lp3192
S'oauth_token_secret'
p3193
asbag56
(g77
g58
NtRp3194
(dp3195
g61
(dp3196
g88
g89
ssg70
g3185
sg63
(lp3197
S':'
asbag56
(g77
g58
NtRp3198
(dp3199
g61
(dp3200
sg70
g3185
sg63
(lp3201
g56
(g57
g58
NtRp3202
(dp3203
g61
(dp3204
g69
I4
ssg70
g3198
sg63
(lp3205
S'wPUyYl0s9q6dFNw3NpyWccFw5HafIyFg'
p3206
asbasbasbasbasbasbasbasbasbsS'etype'
p3207
S"<type 'exceptions.KeyError'>"
p3208
sS'date'
p3209
S'Sun May 10 08:20:23 2015'
p3210
sS'response'
p3211
g56
(g57
g58
NtRp3212
(dp3213
g61
(dp3214
sg63
(lp3215
g56
(g65
g58
NtRp3216
(dp3217
g61
(dp3218
g69
I5
ssg70
Nsg63
(lp3219
g56
(g72
g58
NtRp3220
(dp3221
g61
(dp3222
sg70
g3216
sg63
(lp3223
g56
(g77
g58
NtRp3224
(dp3225
g61
(dp3226
g81
g82
ssg70
g3220
sg63
(lp3227
g154
asbag56
(g77
g58
NtRp3228
(dp3229
g61
(dp3230
g88
g89
ssg70
g3220
sg63
(lp3231
S':'
asbag56
(g77
g58
NtRp3232
(dp3233
g61
(dp3234
sg70
g3220
sg63
(lp3235
g56
(g57
g58
NtRp3236
(dp3237
g61
(dp3238
g69
I5
ssg70
g3232
sg63
(lp3239
S'<cStringIO.StringO object at 0x7f48bf10cae8>'
p3240
asbasbasbag56
(g72
g58
NtRp3241
(dp3242
g61
(dp3243
sg70
g3216
sg63
(lp3244
g56
(g77
g58
NtRp3245
(dp3246
g61
(dp3247
g81
g82
ssg70
g3241
sg63
(lp3248
g220
asbag56
(g77
g58
NtRp3249
(dp3250
g61
(dp3251
g88
g89
ssg70
g3241
sg63
(lp3252
S':'
asbag56
(g77
g58
NtRp3253
(dp3254
g61
(dp3255
sg70
g3241
sg63
(lp3256
g56
(g57
g58
NtRp3257
(dp3258
g61
(dp3259
g69
I5
ssg70
g3253
sg63
(lp3260
g56
(g65
g58
NtRp3261
(dp3262
g61
(dp3263
g69
I4
ssg70
Nsg63
(lp3264
g56
(g72
g58
NtRp3265
(dp3266
g61
(dp3267
sg70
g3261
sg63
(lp3268
g56
(g77
g58
NtRp3269
(dp3270
g61
(dp3271
g81
g82
ssg70
g3265
sg63
(lp3272
S'session_id_newsapp'
p3273
asbag56
(g77
g58
NtRp3274
(dp3275
g61
(dp3276
g88
g89
ssg70
g3265
sg63
(lp3277
S':'
asbag56
(g77
g58
NtRp3278
(dp3279
g61
(dp3280
sg70
g3265
sg63
(lp3281
g56
(g57
g58
NtRp3282
(dp3283
g61
(dp3284
g69
I4
ssg70
g3278
sg63
(lp3285
g56
(g65
g58
NtRp3286
(dp3287
g61
(dp3288
g69
I3
ssg70
Nsg63
(lp3289
g56
(g72
g58
NtRp3290
(dp3291
g61
(dp3292
sg70
g3286
sg63
(lp3293
g56
(g77
g58
NtRp3294
(dp3295
g61
(dp3296
g81
g82
ssg70
g3290
sg63
(lp3297
g270
asbag56
(g77
g58
NtRp3298
(dp3299
g61
(dp3300
g88
g89
ssg70
g3290
sg63
(lp3301
S':'
asbag56
(g77
g58
NtRp3302
(dp3303
g61
(dp3304
sg70
g3290
sg63
(lp3305
g56
(g57
g58
NtRp3306
(dp3307
g61
(dp3308
g69
I3
ssg70
g3302
sg63
(lp3309
S''
asbasbasbag56
(g72
g58
NtRp3310
(dp3311
g61
(dp3312
sg70
g3286
sg63
(lp3313
g56
(g77
g58
NtRp3314
(dp3315
g61
(dp3316
g81
g82
ssg70
g3310
sg63
(lp3317
g291
asbag56
(g77
g58
NtRp3318
(dp3319
g61
(dp3320
g88
g89
ssg70
g3310
sg63
(lp3321
S':'
asbag56
(g77
g58
NtRp3322
(dp3323
g61
(dp3324
sg70
g3310
sg63
(lp3325
g56
(g57
g58
NtRp3326
(dp3327
g61
(dp3328
g69
I3
ssg70
g3322
sg63
(lp3329
S''
asbasbasbag56
(g72
g58
NtRp3330
(dp3331
g61
(dp3332
sg70
g3286
sg63
(lp3333
g56
(g77
g58
NtRp3334
(dp3335
g61
(dp3336
g81
g82
ssg70
g3330
sg63
(lp3337
g312
asbag56
(g77
g58
NtRp3338
(dp3339
g61
(dp3340
g88
g89
ssg70
g3330
sg63
(lp3341
S':'
asbag56
(g77
g58
NtRp3342
(dp3343
g61
(dp3344
sg70
g3330
sg63
(lp3345
g56
(g57
g58
NtRp3346
(dp3347
g61
(dp3348
g69
I3
ssg70
g3342
sg63
(lp3349
S''
asbasbasbag56
(g72
g58
NtRp3350
(dp3351
g61
(dp3352
sg70
g3286
sg63
(lp3353
g56
(g77
g58
NtRp3354
(dp3355
g61
(dp3356
g81
g82
ssg70
g3350
sg63
(lp3357
g333
asbag56
(g77
g58
NtRp3358
(dp3359
g61
(dp3360
g88
g89
ssg70
g3350
sg63
(lp3361
S':'
asbag56
(g77
g58
NtRp3362
(dp3363
g61
(dp3364
sg70
g3350
sg63
(lp3365
g56
(g57
g58
NtRp3366
(dp3367
g61
(dp3368
g69
I3
ssg70
g3362
sg63
(lp3369
S''
asbasbasbag56
(g72
g58
NtRp3370
(dp3371
g61
(dp3372
sg70
g3286
sg63
(lp3373
g56
(g77
g58
NtRp3374
(dp3375
g61
(dp3376
g81
g82
ssg70
g3370
sg63
(lp3377
g354
asbag56
(g77
g58
NtRp3378
(dp3379
g61
(dp3380
g88
g89
ssg70
g3370
sg63
(lp3381
S':'
asbag56
(g77
g58
NtRp3382
(dp3383
g61
(dp3384
sg70
g3370
sg63
(lp3385
g56
(g57
g58
NtRp3386
(dp3387
g61
(dp3388
g69
I3
ssg70
g3382
sg63
(lp3389
S''
asbasbasbag56
(g72
g58
NtRp3390
(dp3391
g61
(dp3392
sg70
g3286
sg63
(lp3393
g56
(g77
g58
NtRp3394
(dp3395
g61
(dp3396
g81
g82
ssg70
g3390
sg63
(lp3397
g375
asbag56
(g77
g58
NtRp3398
(dp3399
g61
(dp3400
g88
g89
ssg70
g3390
sg63
(lp3401
S':'
asbag56
(g77
g58
NtRp3402
(dp3403
g61
(dp3404
sg70
g3390
sg63
(lp3405
g56
(g57
g58
NtRp3406
(dp3407
g61
(dp3408
g69
I3
ssg70
g3402
sg63
(lp3409
S'/'
asbasbasbag56
(g72
g58
NtRp3410
(dp3411
g61
(dp3412
sg70
g3286
sg63
(lp3413
g56
(g77
g58
NtRp3414
(dp3415
g61
(dp3416
g81
g82
ssg70
g3410
sg63
(lp3417
g396
asbag56
(g77
g58
NtRp3418
(dp3419
g61
(dp3420
g88
g89
ssg70
g3410
sg63
(lp3421
S':'
asbag56
(g77
g58
NtRp3422
(dp3423
g61
(dp3424
sg70
g3410
sg63
(lp3425
g56
(g57
g58
NtRp3426
(dp3427
g61
(dp3428
g69
I3
ssg70
g3422
sg63
(lp3429
S''
asbasbasbag56
(g72
g58
NtRp3430
(dp3431
g61
(dp3432
sg70
g3286
sg63
(lp3433
g56
(g77
g58
NtRp3434
(dp3435
g61
(dp3436
g81
g82
ssg70
g3430
sg63
(lp3437
g417
asbag56
(g77
g58
NtRp3438
(dp3439
g61
(dp3440
g88
g89
ssg70
g3430
sg63
(lp3441
S':'
asbag56
(g77
g58
NtRp3442
(dp3443
g61
(dp3444
sg70
g3430
sg63
(lp3445
g56
(g57
g58
NtRp3446
(dp3447
g61
(dp3448
g69
I3
ssg70
g3442
sg63
(lp3449
S''
asbasbasbasbasbasbasbasbasbasbasbag56
(g72
g58
NtRp3450
(dp3451
g61
(dp3452
sg70
g3216
sg63
(lp3453
g56
(g77
g58
NtRp3454
(dp3455
g61
(dp3456
g81
g82
ssg70
g3450
sg63
(lp3457
S'delimiters'
p3458
asbag56
(g77
g58
NtRp3459
(dp3460
g61
(dp3461
g88
g89
ssg70
g3450
sg63
(lp3462
S':'
asbag56
(g77
g58
NtRp3463
(dp3464
g61
(dp3465
sg70
g3450
sg63
(lp3466
g56
(g57
g58
NtRp3467
(dp3468
g61
(dp3469
g69
I5
ssg70
g3463
sg63
(lp3470
g56
(g65
g58
NtRp3471
(dp3472
g61
(dp3473
g69
I4
ssg70
Nsg63
(lp3474
g56
(g72
g58
NtRp3475
(dp3476
g61
(dp3477
sg70
g3471
sg63
(lp3478
g56
(g77
g58
NtRp3479
(dp3480
g61
(dp3481
sg70
g3475
sg63
(lp3482
g56
(g57
g58
NtRp3483
(dp3484
g61
(dp3485
g69
I4
ssg70
g3479
sg63
(lp3486
S'{{'
p3487
asbasbasbag56
(g72
g58
NtRp3488
(dp3489
g61
(dp3490
sg70
g3471
sg63
(lp3491
g56
(g77
g58
NtRp3492
(dp3493
g61
(dp3494
sg70
g3488
sg63
(lp3495
g56
(g57
g58
NtRp3496
(dp3497
g61
(dp3498
g69
I4
ssg70
g3492
sg63
(lp3499
S'}}'
p3500
asbasbasbasbasbasbasbag56
(g72
g58
NtRp3501
(dp3502
g61
(dp3503
sg70
g3216
sg63
(lp3504
g56
(g77
g58
NtRp3505
(dp3506
g61
(dp3507
g81
g82
ssg70
g3501
sg63
(lp3508
S'files'
p3509
asbag56
(g77
g58
NtRp3510
(dp3511
g61
(dp3512
g88
g89
ssg70
g3501
sg63
(lp3513
S':'
asbag56
(g77
g58
NtRp3514
(dp3515
g61
(dp3516
sg70
g3501
sg63
(lp3517
g56
(g57
g58
NtRp3518
(dp3519
g61
(dp3520
g69
I5
ssg70
g3514
sg63
(lp3521
g56
(g65
g58
NtRp3522
(dp3523
g61
(dp3524
g69
I4
ssg70
Nsg63
(lp3525
sbasbasbasbag56
(g72
g58
NtRp3526
(dp3527
g61
(dp3528
sg70
g3216
sg63
(lp3529
g56
(g77
g58
NtRp3530
(dp3531
g61
(dp3532
g81
g82
ssg70
g3526
sg63
(lp3533
S'flash'
p3534
asbag56
(g77
g58
NtRp3535
(dp3536
g61
(dp3537
g88
g89
ssg70
g3526
sg63
(lp3538
S':'
asbag56
(g77
g58
NtRp3539
(dp3540
g61
(dp3541
sg70
g3526
sg63
(lp3542
g56
(g57
g58
NtRp3543
(dp3544
g61
(dp3545
g69
I5
ssg70
g3539
sg63
(lp3546
S''
asbasbasbag56
(g72
g58
NtRp3547
(dp3548
g61
(dp3549
sg70
g3216
sg63
(lp3550
g56
(g77
g58
NtRp3551
(dp3552
g61
(dp3553
g81
g82
ssg70
g3547
sg63
(lp3554
S'generic_patterns'
p3555
asbag56
(g77
g58
NtRp3556
(dp3557
g61
(dp3558
g88
g89
ssg70
g3547
sg63
(lp3559
S':'
asbag56
(g77
g58
NtRp3560
(dp3561
g61
(dp3562
sg70
g3547
sg63
(lp3563
g56
(g57
g58
NtRp3564
(dp3565
g61
(dp3566
g69
I5
ssg70
g3560
sg63
(lp3567
g56
(g65
g58
NtRp3568
(dp3569
g61
(dp3570
g69
I4
ssg70
Nsg63
(lp3571
g56
(g72
g58
NtRp3572
(dp3573
g61
(dp3574
sg70
g3568
sg63
(lp3575
g56
(g77
g58
NtRp3576
(dp3577
g61
(dp3578
sg70
g3572
sg63
(lp3579
g56
(g57
g58
NtRp3580
(dp3581
g61
(dp3582
g69
I4
ssg70
g3576
sg63
(lp3583
S'*'
asbasbasbasbasbasbasbag56
(g72
g58
NtRp3584
(dp3585
g61
(dp3586
sg70
g3216
sg63
(lp3587
g56
(g77
g58
NtRp3588
(dp3589
g61
(dp3590
g81
g82
ssg70
g3584
sg63
(lp3591
S'headers'
p3592
asbag56
(g77
g58
NtRp3593
(dp3594
g61
(dp3595
g88
g89
ssg70
g3584
sg63
(lp3596
S':'
asbag56
(g77
g58
NtRp3597
(dp3598
g61
(dp3599
sg70
g3584
sg63
(lp3600
g56
(g57
g58
NtRp3601
(dp3602
g61
(dp3603
g69
I5
ssg70
g3597
sg63
(lp3604
g56
(g65
g58
NtRp3605
(dp3606
g61
(dp3607
g69
I4
ssg70
Nsg63
(lp3608
g56
(g72
g58
NtRp3609
(dp3610
g61
(dp3611
sg70
g3605
sg63
(lp3612
g56
(g77
g58
NtRp3613
(dp3614
g61
(dp3615
g81
g82
ssg70
g3609
sg63
(lp3616
S'Cache-Control'
p3617
asbag56
(g77
g58
NtRp3618
(dp3619
g61
(dp3620
g88
g89
ssg70
g3609
sg63
(lp3621
S':'
asbag56
(g77
g58
NtRp3622
(dp3623
g61
(dp3624
sg70
g3609
sg63
(lp3625
g56
(g57
g58
NtRp3626
(dp3627
g61
(dp3628
g69
I4
ssg70
g3622
sg63
(lp3629
S'no-store, no-cache, must-revalidate, post-check=0, pre-check=0'
p3630
asbasbasbag56
(g72
g58
NtRp3631
(dp3632
g61
(dp3633
sg70
g3605
sg63
(lp3634
g56
(g77
g58
NtRp3635
(dp3636
g61
(dp3637
g81
g82
ssg70
g3631
sg63
(lp3638
S'Content-Type'
p3639
asbag56
(g77
g58
NtRp3640
(dp3641
g61
(dp3642
g88
g89
ssg70
g3631
sg63
(lp3643
S':'
asbag56
(g77
g58
NtRp3644
(dp3645
g61
(dp3646
sg70
g3631
sg63
(lp3647
g56
(g57
g58
NtRp3648
(dp3649
g61
(dp3650
g69
I4
ssg70
g3644
sg63
(lp3651
S'text/html; charset=utf-8'
p3652
asbasbasbag56
(g72
g58
NtRp3653
(dp3654
g61
(dp3655
sg70
g3605
sg63
(lp3656
g56
(g77
g58
NtRp3657
(dp3658
g61
(dp3659
g81
g82
ssg70
g3653
sg63
(lp3660
S'Expires'
p3661
asbag56
(g77
g58
NtRp3662
(dp3663
g61
(dp3664
g88
g89
ssg70
g3653
sg63
(lp3665
S':'
asbag56
(g77
g58
NtRp3666
(dp3667
g61
(dp3668
sg70
g3653
sg63
(lp3669
g56
(g57
g58
NtRp3670
(dp3671
g61
(dp3672
g69
I4
ssg70
g3666
sg63
(lp3673
S'Sun, 10 May 2015 02:50:22 GMT'
p3674
asbasbasbag56
(g72
g58
NtRp3675
(dp3676
g61
(dp3677
sg70
g3605
sg63
(lp3678
g56
(g77
g58
NtRp3679
(dp3680
g61
(dp3681
g81
g82
ssg70
g3675
sg63
(lp3682
S'Pragma'
p3683
asbag56
(g77
g58
NtRp3684
(dp3685
g61
(dp3686
g88
g89
ssg70
g3675
sg63
(lp3687
S':'
asbag56
(g77
g58
NtRp3688
(dp3689
g61
(dp3690
sg70
g3675
sg63
(lp3691
g56
(g57
g58
NtRp3692
(dp3693
g61
(dp3694
g69
I4
ssg70
g3688
sg63
(lp3695
S'no-cache'
p3696
asbasbasbag56
(g72
g58
NtRp3697
(dp3698
g61
(dp3699
sg70
g3605
sg63
(lp3700
g56
(g77
g58
NtRp3701
(dp3702
g61
(dp3703
g81
g82
ssg70
g3697
sg63
(lp3704
S'X-Powered-By'
p3705
asbag56
(g77
g58
NtRp3706
(dp3707
g61
(dp3708
g88
g89
ssg70
g3697
sg63
(lp3709
S':'
asbag56
(g77
g58
NtRp3710
(dp3711
g61
(dp3712
sg70
g3697
sg63
(lp3713
g56
(g57
g58
NtRp3714
(dp3715
g61
(dp3716
g69
I4
ssg70
g3710
sg63
(lp3717
S'web2py'
p3718
asbasbasbasbasbasbasbag56
(g72
g58
NtRp3719
(dp3720
g61
(dp3721
sg70
g3216
sg63
(lp3722
g56
(g77
g58
NtRp3723
(dp3724
g61
(dp3725
g81
g82
ssg70
g3719
sg63
(lp3726
S'menu'
p3727
asbag56
(g77
g58
NtRp3728
(dp3729
g61
(dp3730
g88
g89
ssg70
g3719
sg63
(lp3731
S':'
asbag56
(g77
g58
NtRp3732
(dp3733
g61
(dp3734
sg70
g3719
sg63
(lp3735
g56
(g57
g58
NtRp3736
(dp3737
g61
(dp3738
g69
I5
ssg70
g3732
sg63
(lp3739
g56
(g65
g58
NtRp3740
(dp3741
g61
(dp3742
g69
I4
ssg70
Nsg63
(lp3743
g56
(g72
g58
NtRp3744
(dp3745
g61
(dp3746
sg70
g3740
sg63
(lp3747
g56
(g77
g58
NtRp3748
(dp3749
g61
(dp3750
sg70
g3744
sg63
(lp3751
g56
(g57
g58
NtRp3752
(dp3753
g61
(dp3754
g69
I4
ssg70
g3748
sg63
(lp3755
g56
(g65
g58
NtRp3756
(dp3757
g61
(dp3758
g69
I3
ssg70
Nsg63
(lp3759
g56
(g72
g58
NtRp3760
(dp3761
g61
(dp3762
sg70
g3756
sg63
(lp3763
g56
(g77
g58
NtRp3764
(dp3765
g61
(dp3766
sg70
g3760
sg63
(lp3767
g56
(g57
g58
NtRp3768
(dp3769
g61
(dp3770
g69
I3
ssg70
g3764
sg63
(lp3771
cgluon.languages
lazyT_unpickle
p3772
(S't\x04\x00\x00\x00Home'
tRp3773
asbasbasbag56
(g72
g58
NtRp3774
(dp3775
g61
(dp3776
sg70
g3756
sg63
(lp3777
g56
(g77
g58
NtRp3778
(dp3779
g61
(dp3780
sg70
g3774
sg63
(lp3781
g56
(g57
g58
NtRp3782
(dp3783
g61
(dp3784
g69
I3
ssg70
g3778
sg63
(lp3785
g99
asbasbasbag56
(g72
g58
NtRp3786
(dp3787
g61
(dp3788
sg70
g3756
sg63
(lp3789
g56
(g77
g58
NtRp3790
(dp3791
g61
(dp3792
sg70
g3786
sg63
(lp3793
g56
(g57
g58
NtRp3794
(dp3795
g61
(dp3796
g69
I3
ssg70
g3790
sg63
(lp3797
S'/newsapp/default/index'
p3798
asbasbasbag56
(g72
g58
NtRp3799
(dp3800
g61
(dp3801
sg70
g3756
sg63
(lp3802
g56
(g77
g58
NtRp3803
(dp3804
g61
(dp3805
sg70
g3799
sg63
(lp3806
g56
(g57
g58
NtRp3807
(dp3808
g61
(dp3809
g69
I3
ssg70
g3803
sg63
(lp3810
g56
(g65
g58
NtRp3811
(dp3812
g61
(dp3813
g69
I2
ssg70
Nsg63
(lp3814
sbasbasbasbasbasbasbasbag56
(g72
g58
NtRp3815
(dp3816
g61
(dp3817
sg70
g3740
sg63
(lp3818
g56
(g77
g58
NtRp3819
(dp3820
g61
(dp3821
sg70
g3815
sg63
(lp3822
g56
(g57
g58
NtRp3823
(dp3824
g61
(dp3825
g69
I4
ssg70
g3819
sg63
(lp3826
g56
(g65
g58
NtRp3827
(dp3828
g61
(dp3829
g69
I3
ssg70
Nsg63
(lp3830
g56
(g72
g58
NtRp3831
(dp3832
g61
(dp3833
sg70
g3827
sg63
(lp3834
g56
(g77
g58
NtRp3835
(dp3836
g61
(dp3837
sg70
g3831
sg63
(lp3838
g56
(g57
g58
NtRp3839
(dp3840
g61
(dp3841
g69
I3
ssg70
g3835
sg63
(lp3842
g56
(cgluon.html
SPAN
p3843
g58
NtRp3844
(dp3845
g61
(dp3846
g81
S'color:yellow'
p3847
ssg70
Nsg63
(lp3848
g3718
asbasbasbasbag56
(g72
g58
NtRp3849
(dp3850
g61
(dp3851
sg70
g3827
sg63
(lp3852
g56
(g77
g58
NtRp3853
(dp3854
g61
(dp3855
sg70
g3849
sg63
(lp3856
g56
(g57
g58
NtRp3857
(dp3858
g61
(dp3859
g69
I3
ssg70
g3853
sg63
(lp3860
g99
asbasbasbag56
(g72
g58
NtRp3861
(dp3862
g61
(dp3863
sg70
g3827
sg63
(lp3864
g56
(g77
g58
NtRp3865
(dp3866
g61
(dp3867
sg70
g3861
sg63
(lp3868
g56
(g57
g58
NtRp3869
(dp3870
g61
(dp3871
g69
I3
ssg70
g3865
sg63
(lp3872
S'None'
p3873
asbasbasbag56
(g72
g58
NtRp3874
(dp3875
g61
(dp3876
sg70
g3827
sg63
(lp3877
g56
(g77
g58
NtRp3878
(dp3879
g61
(dp3880
sg70
g3874
sg63
(lp3881
g56
(g57
g58
NtRp3882
(dp3883
g61
(dp3884
g69
I3
ssg70
g3878
sg63
(lp3885
g56
(g65
g58
NtRp3886
(dp3887
g61
(dp3888
g69
I2
ssg70
Nsg63
(lp3889
g56
(g72
g58
NtRp3890
(dp3891
g61
(dp3892
sg70
g3886
sg63
(lp3893
g56
(g77
g58
NtRp3894
(dp3895
g61
(dp3896
sg70
g3890
sg63
(lp3897
g56
(g57
g58
NtRp3898
(dp3899
g61
(dp3900
g69
I2
ssg70
g3894
sg63
(lp3901
g56
(g65
g58
NtRp3902
(dp3903
g61
(dp3904
g69
I1
ssg70
Nsg63
(lp3905
g56
(g72
g58
NtRp3906
(dp3907
g61
(dp3908
sg70
g3902
sg63
(lp3909
g56
(g77
g58
NtRp3910
(dp3911
g61
(dp3912
sg70
g3906
sg63
(lp3913
g56
(g57
g58
NtRp3914
(dp3915
g61
(dp3916
g69
I1
ssg70
g3910
sg63
(lp3917
g3772
(S's\x08\x00\x00\x00My Sites'
tRp3918
asbasbasbag56
(g72
g58
NtRp3919
(dp3920
g61
(dp3921
sg70
g3902
sg63
(lp3922
g56
(g77
g58
NtRp3923
(dp3924
g61
(dp3925
sg70
g3919
sg63
(lp3926
g56
(g57
g58
NtRp3927
(dp3928
g61
(dp3929
g69
I1
ssg70
g3923
sg63
(lp3930
I00
asbasbasbag56
(g72
g58
NtRp3931
(dp3932
g61
(dp3933
sg70
g3902
sg63
(lp3934
g56
(g77
g58
NtRp3935
(dp3936
g61
(dp3937
sg70
g3931
sg63
(lp3938
g56
(g57
g58
NtRp3939
(dp3940
g61
(dp3941
g69
I1
ssg70
g3935
sg63
(lp3942
S'/admin/default/site'
p3943
asbasbasbasbasbasbasbag56
(g72
g58
NtRp3944
(dp3945
g61
(dp3946
sg70
g3886
sg63
(lp3947
g56
(g77
g58
NtRp3948
(dp3949
g61
(dp3950
sg70
g3944
sg63
(lp3951
g56
(g57
g58
NtRp3952
(dp3953
g61
(dp3954
g69
I2
ssg70
g3948
sg63
(lp3955
g56
(g65
g58
NtRp3956
(dp3957
g61
(dp3958
g69
I1
ssg70
Nsg63
(lp3959
g56
(g72
g58
NtRp3960
(dp3961
g61
(dp3962
sg70
g3956
sg63
(lp3963
g56
(g77
g58
NtRp3964
(dp3965
g61
(dp3966
sg70
g3960
sg63
(lp3967
g56
(g57
g58
NtRp3968
(dp3969
g61
(dp3970
g69
I1
ssg70
g3964
sg63
(lp3971
g3772
(S's\x08\x00\x00\x00This App'
tRp3972
asbasbasbag56
(g72
g58
NtRp3973
(dp3974
g61
(dp3975
sg70
g3956
sg63
(lp3976
g56
(g77
g58
NtRp3977
(dp3978
g61
(dp3979
sg70
g3973
sg63
(lp3980
g56
(g57
g58
NtRp3981
(dp3982
g61
(dp3983
g69
I1
ssg70
g3977
sg63
(lp3984
I00
asbasbasbag56
(g72
g58
NtRp3985
(dp3986
g61
(dp3987
sg70
g3956
sg63
(lp3988
g56
(g77
g58
NtRp3989
(dp3990
g61
(dp3991
sg70
g3985
sg63
(lp3992
g56
(g57
g58
NtRp3993
(dp3994
g61
(dp3995
g69
I1
ssg70
g3989
sg63
(lp3996
S'/admin/default/design/newsapp'
p3997
asbasbasbag56
(g72
g58
NtRp3998
(dp3999
g61
(dp4000
sg70
g3956
sg63
(lp4001
g56
(g77
g58
NtRp4002
(dp4003
g61
(dp4004
sg70
g3998
sg63
(lp4005
g56
(g57
g58
NtRp4006
(dp4007
g61
(dp4008
g69
I1
ssg70
g4002
sg63
(lp4009
(lp4010
(g3772
(S't\n\x00\x00\x00Controller'
tRp4011
I00
S'/admin/default/edit/newsapp/controllers/default.py'
tp4012
a(g3772
(S't\x04\x00\x00\x00View'
tRp4013
I00
S'/admin/default/edit/newsapp/views/default/tw_trends.html'
tp4014
a(g3772
(S't\x06\x00\x00\x00Layout'
tRp4015
I00
S'/admin/default/edit/newsapp/views/layout.html'
tp4016
a(g3772
(S't\n\x00\x00\x00Stylesheet'
tRp4017
I00
S'/admin/default/edit/newsapp/static/css/web2py.css'
tp4018
a(g3772
(S's\x08\x00\x00\x00DB Model'
tRp4019
I00
S'/admin/default/edit/newsapp/models/db.py'
tp4020
a(g3772
(S's\n\x00\x00\x00Menu Model'
tRp4021
I00
S'/admin/default/edit/newsapp/models/menu.py'
tp4022
a(g3772
(S't\x08\x00\x00\x00Database'
tRp4023
I00
S'/newsapp/appadmin/index'
tp4024
a(g3772
(S't\x06\x00\x00\x00Errors'
tRp4025
I00
S'/admin/default/errors/newsapp'
tp4026
a(g3772
(S't\x05\x00\x00\x00About'
tRp4027
I00
S'/admin/default/about/newsapp'
tp4028
aasbasbasbasbasbasbasbag56
(g72
g58
NtRp4029
(dp4030
g61
(dp4031
sg70
g3886
sg63
(lp4032
g56
(g77
g58
NtRp4033
(dp4034
g61
(dp4035
sg70
g4029
sg63
(lp4036
g56
(g57
g58
NtRp4037
(dp4038
g61
(dp4039
g69
I2
ssg70
g4033
sg63
(lp4040
g56
(g65
g58
NtRp4041
(dp4042
g61
(dp4043
g69
I1
ssg70
Nsg63
(lp4044
g56
(g72
g58
NtRp4045
(dp4046
g61
(dp4047
sg70
g4041
sg63
(lp4048
g56
(g77
g58
NtRp4049
(dp4050
g61
(dp4051
sg70
g4045
sg63
(lp4052
g56
(g57
g58
NtRp4053
(dp4054
g61
(dp4055
g69
I1
ssg70
g4049
sg63
(lp4056
S'web2py.com'
p4057
asbasbasbag56
(g72
g58
NtRp4058
(dp4059
g61
(dp4060
sg70
g4041
sg63
(lp4061
g56
(g77
g58
NtRp4062
(dp4063
g61
(dp4064
sg70
g4058
sg63
(lp4065
g56
(g57
g58
NtRp4066
(dp4067
g61
(dp4068
g69
I1
ssg70
g4062
sg63
(lp4069
I00
asbasbasbag56
(g72
g58
NtRp4070
(dp4071
g61
(dp4072
sg70
g4041
sg63
(lp4073
g56
(g77
g58
NtRp4074
(dp4075
g61
(dp4076
sg70
g4070
sg63
(lp4077
g56
(g57
g58
NtRp4078
(dp4079
g61
(dp4080
g69
I1
ssg70
g4074
sg63
(lp4081
S'http://www.web2py.com'
p4082
asbasbasbag56
(g72
g58
NtRp4083
(dp4084
g61
(dp4085
sg70
g4041
sg63
(lp4086
g56
(g77
g58
NtRp4087
(dp4088
g61
(dp4089
sg70
g4083
sg63
(lp4090
g56
(g57
g58
NtRp4091
(dp4092
g61
(dp4093
g69
I1
ssg70
g4087
sg63
(lp4094
(lp4095
(g3772
(S't\x08\x00\x00\x00Download'
tRp4096
I00
S'http://www.web2py.com/examples/default/download'
p4097
tp4098
a(g3772
(S't\x07\x00\x00\x00Support'
tRp4099
I00
S'http://www.web2py.com/examples/default/support'
p4100
tp4101
a(g3772
(S't\x04\x00\x00\x00Demo'
tRp4102
I00
S'http://web2py.com/demo_admin'
p4103
tp4104
a(g3772
(S's\x0e\x00\x00\x00Quick Examples'
tRp4105
I00
S'http://web2py.com/examples/default/examples'
p4106
tp4107
a(g3772
(S't\x03\x00\x00\x00FAQ'
tRp4108
I00
S'http://web2py.com/AlterEgo'
p4109
tp4110
a(g3772
(S't\x06\x00\x00\x00Videos'
tRp4111
I00
S'http://www.web2py.com/examples/default/videos/'
p4112
tp4113
a(g3772
(S's\x11\x00\x00\x00Free Applications'
tRp4114
I00
S'http://web2py.com/appliances'
p4115
tp4116
a(g3772
(S't\x07\x00\x00\x00Plugins'
tRp4117
I00
S'http://web2py.com/plugins'
p4118
tp4119
a(g3772
(S't\x07\x00\x00\x00Layouts'
tRp4120
I00
S'http://web2py.com/layouts'
p4121
tp4122
a(g3772
(S't\x07\x00\x00\x00Recipes'
tRp4123
I00
S'http://web2pyslices.com/'
p4124
tp4125
a(g3772
(S't\x08\x00\x00\x00Semantic'
tRp4126
I00
S'http://web2py.com/semantic'
p4127
tp4128
aasbasbasbasbasbasbasbag56
(g72
g58
NtRp4129
(dp4130
g61
(dp4131
sg70
g3886
sg63
(lp4132
g56
(g77
g58
NtRp4133
(dp4134
g61
(dp4135
sg70
g4129
sg63
(lp4136
g56
(g57
g58
NtRp4137
(dp4138
g61
(dp4139
g69
I2
ssg70
g4133
sg63
(lp4140
g56
(g65
g58
NtRp4141
(dp4142
g61
(dp4143
g69
I1
ssg70
Nsg63
(lp4144
g56
(g72
g58
NtRp4145
(dp4146
g61
(dp4147
sg70
g4141
sg63
(lp4148
g56
(g77
g58
NtRp4149
(dp4150
g61
(dp4151
sg70
g4145
sg63
(lp4152
g56
(g57
g58
NtRp4153
(dp4154
g61
(dp4155
g69
I1
ssg70
g4149
sg63
(lp4156
g3772
(S't\r\x00\x00\x00Documentation'
tRp4157
asbasbasbag56
(g72
g58
NtRp4158
(dp4159
g61
(dp4160
sg70
g4141
sg63
(lp4161
g56
(g77
g58
NtRp4162
(dp4163
g61
(dp4164
sg70
g4158
sg63
(lp4165
g56
(g57
g58
NtRp4166
(dp4167
g61
(dp4168
g69
I1
ssg70
g4162
sg63
(lp4169
I00
asbasbasbag56
(g72
g58
NtRp4170
(dp4171
g61
(dp4172
sg70
g4141
sg63
(lp4173
g56
(g77
g58
NtRp4174
(dp4175
g61
(dp4176
sg70
g4170
sg63
(lp4177
g56
(g57
g58
NtRp4178
(dp4179
g61
(dp4180
g69
I1
ssg70
g4174
sg63
(lp4181
S'http://www.web2py.com/book'
p4182
asbasbasbag56
(g72
g58
NtRp4183
(dp4184
g61
(dp4185
sg70
g4141
sg63
(lp4186
g56
(g77
g58
NtRp4187
(dp4188
g61
(dp4189
sg70
g4183
sg63
(lp4190
g56
(g57
g58
NtRp4191
(dp4192
g61
(dp4193
g69
I1
ssg70
g4187
sg63
(lp4194
(lp4195
(g3772
(S't\x07\x00\x00\x00Preface'
tRp4196
I00
S'http://www.web2py.com/book/default/chapter/00'
p4197
tp4198
a(g3772
(S't\x0c\x00\x00\x00Introduction'
tRp4199
I00
S'http://www.web2py.com/book/default/chapter/01'
p4200
tp4201
a(g3772
(S't\x06\x00\x00\x00Python'
tRp4202
I00
S'http://www.web2py.com/book/default/chapter/02'
p4203
tp4204
a(g3772
(S't\x08\x00\x00\x00Overview'
tRp4205
I00
S'http://www.web2py.com/book/default/chapter/03'
p4206
tp4207
a(g3772
(S's\x08\x00\x00\x00The Core'
tRp4208
I00
S'http://www.web2py.com/book/default/chapter/04'
p4209
tp4210
a(g3772
(S's\t\x00\x00\x00The Views'
tRp4211
I00
S'http://www.web2py.com/book/default/chapter/05'
p4212
tp4213
a(g3772
(S't\x08\x00\x00\x00Database'
tRp4214
I00
S'http://www.web2py.com/book/default/chapter/06'
p4215
tp4216
a(g3772
(S's\x14\x00\x00\x00Forms and Validators'
tRp4217
I00
S'http://www.web2py.com/book/default/chapter/07'
p4218
tp4219
a(g3772
(S's\r\x00\x00\x00Email and SMS'
tRp4220
I00
S'http://www.web2py.com/book/default/chapter/08'
p4221
tp4222
a(g3772
(S's\x0e\x00\x00\x00Access Control'
tRp4223
I00
S'http://www.web2py.com/book/default/chapter/09'
p4224
tp4225
a(g3772
(S't\x08\x00\x00\x00Services'
tRp4226
I00
S'http://www.web2py.com/book/default/chapter/10'
p4227
tp4228
a(g3772
(S's\x0c\x00\x00\x00Ajax Recipes'
tRp4229
I00
S'http://www.web2py.com/book/default/chapter/11'
p4230
tp4231
a(g3772
(S's\x16\x00\x00\x00Components and Plugins'
tRp4232
I00
S'http://www.web2py.com/book/default/chapter/12'
p4233
tp4234
a(g3772
(S's\x12\x00\x00\x00Deployment Recipes'
tRp4235
I00
S'http://www.web2py.com/book/default/chapter/13'
p4236
tp4237
a(g3772
(S's\r\x00\x00\x00Other Recipes'
tRp4238
I00
S'http://www.web2py.com/book/default/chapter/14'
p4239
tp4240
a(g3772
(S's\r\x00\x00\x00Buy this book'
tRp4241
I00
S'http://stores.lulu.com/web2py'
p4242
tp4243
aasbasbasbasbasbasbasbag56
(g72
g58
NtRp4244
(dp4245
g61
(dp4246
sg70
g3886
sg63
(lp4247
g56
(g77
g58
NtRp4248
(dp4249
g61
(dp4250
sg70
g4244
sg63
(lp4251
g56
(g57
g58
NtRp4252
(dp4253
g61
(dp4254
g69
I2
ssg70
g4248
sg63
(lp4255
g56
(g65
g58
NtRp4256
(dp4257
g61
(dp4258
g69
I1
ssg70
Nsg63
(lp4259
g56
(g72
g58
NtRp4260
(dp4261
g61
(dp4262
sg70
g4256
sg63
(lp4263
g56
(g77
g58
NtRp4264
(dp4265
g61
(dp4266
sg70
g4260
sg63
(lp4267
g56
(g57
g58
NtRp4268
(dp4269
g61
(dp4270
g69
I1
ssg70
g4264
sg63
(lp4271
g3772
(S't\t\x00\x00\x00Community'
tRp4272
asbasbasbag56
(g72
g58
NtRp4273
(dp4274
g61
(dp4275
sg70
g4256
sg63
(lp4276
g56
(g77
g58
NtRp4277
(dp4278
g61
(dp4279
sg70
g4273
sg63
(lp4280
g56
(g57
g58
NtRp4281
(dp4282
g61
(dp4283
g69
I1
ssg70
g4277
sg63
(lp4284
I00
asbasbasbag56
(g72
g58
NtRp4285
(dp4286
g61
(dp4287
sg70
g4256
sg63
(lp4288
g56
(g77
g58
NtRp4289
(dp4290
g61
(dp4291
sg70
g4285
sg63
(lp4292
g56
(g57
g58
NtRp4293
(dp4294
g61
(dp4295
g69
I1
ssg70
g4289
sg63
(lp4296
Nasbasbasbag56
(g72
g58
NtRp4297
(dp4298
g61
(dp4299
sg70
g4256
sg63
(lp4300
g56
(g77
g58
NtRp4301
(dp4302
g61
(dp4303
sg70
g4297
sg63
(lp4304
g56
(g57
g58
NtRp4305
(dp4306
g61
(dp4307
g69
I1
ssg70
g4301
sg63
(lp4308
(lp4309
(g3772
(S't\x06\x00\x00\x00Groups'
tRp4310
I00
S'http://www.web2py.com/examples/default/usergroups'
p4311
tp4312
a(g3772
(S't\x07\x00\x00\x00Twitter'
tRp4313
I00
S'http://twitter.com/web2py'
p4314
tp4315
a(g3772
(S's\t\x00\x00\x00Live Chat'
tRp4316
I00
S'http://webchat.freenode.net/?channels=web2py'
p4317
tp4318
aasbasbasbasbasbasbasbag56
(g72
g58
NtRp4319
(dp4320
g61
(dp4321
sg70
g3886
sg63
(lp4322
g56
(g77
g58
NtRp4323
(dp4324
g61
(dp4325
sg70
g4319
sg63
(lp4326
g56
(g57
g58
NtRp4327
(dp4328
g61
(dp4329
g69
I2
ssg70
g4323
sg63
(lp4330
g56
(g65
g58
NtRp4331
(dp4332
g61
(dp4333
g69
I1
ssg70
Nsg63
(lp4334
g56
(g72
g58
NtRp4335
(dp4336
g61
(dp4337
sg70
g4331
sg63
(lp4338
g56
(g77
g58
NtRp4339
(dp4340
g61
(dp4341
sg70
g4335
sg63
(lp4342
g56
(g57
g58
NtRp4343
(dp4344
g61
(dp4345
g69
I1
ssg70
g4339
sg63
(lp4346
g3772
(S't\x07\x00\x00\x00Plugins'
tRp4347
asbasbasbag56
(g72
g58
NtRp4348
(dp4349
g61
(dp4350
sg70
g4331
sg63
(lp4351
g56
(g77
g58
NtRp4352
(dp4353
g61
(dp4354
sg70
g4348
sg63
(lp4355
g56
(g57
g58
NtRp4356
(dp4357
g61
(dp4358
g69
I1
ssg70
g4352
sg63
(lp4359
I00
asbasbasbag56
(g72
g58
NtRp4360
(dp4361
g61
(dp4362
sg70
g4331
sg63
(lp4363
g56
(g77
g58
NtRp4364
(dp4365
g61
(dp4366
sg70
g4360
sg63
(lp4367
g56
(g57
g58
NtRp4368
(dp4369
g61
(dp4370
g69
I1
ssg70
g4364
sg63
(lp4371
Nasbasbasbag56
(g72
g58
NtRp4372
(dp4373
g61
(dp4374
sg70
g4331
sg63
(lp4375
g56
(g77
g58
NtRp4376
(dp4377
g61
(dp4378
sg70
g4372
sg63
(lp4379
g56
(g57
g58
NtRp4380
(dp4381
g61
(dp4382
g69
I1
ssg70
g4376
sg63
(lp4383
(lp4384
(S'plugin_wiki'
p4385
I00
S'http://web2py.com/examples/default/download'
p4386
tp4387
a(g3772
(S's\r\x00\x00\x00Other Plugins'
tRp4388
I00
g4118
tp4389
a(g3772
(S's\x0e\x00\x00\x00Layout Plugins'
tRp4390
I00
g4121
tp4391
aasbasbasbasbasbasbasbasbasbasbasbasbasbasbasbasbasbasbasbag56
(g72
g58
NtRp4392
(dp4393
g61
(dp4394
sg70
g3216
sg63
(lp4395
g56
(g77
g58
NtRp4396
(dp4397
g61
(dp4398
g81
g82
ssg70
g4392
sg63
(lp4399
S'meta'
p4400
asbag56
(g77
g58
NtRp4401
(dp4402
g61
(dp4403
g88
g89
ssg70
g4392
sg63
(lp4404
S':'
asbag56
(g77
g58
NtRp4405
(dp4406
g61
(dp4407
sg70
g4392
sg63
(lp4408
g56
(g57
g58
NtRp4409
(dp4410
g61
(dp4411
g69
I5
ssg70
g4405
sg63
(lp4412
g56
(g65
g58
NtRp4413
(dp4414
g61
(dp4415
g69
I4
ssg70
Nsg63
(lp4416
g56
(g72
g58
NtRp4417
(dp4418
g61
(dp4419
sg70
g4413
sg63
(lp4420
g56
(g77
g58
NtRp4421
(dp4422
g61
(dp4423
g81
g82
ssg70
g4417
sg63
(lp4424
S'author'
p4425
asbag56
(g77
g58
NtRp4426
(dp4427
g61
(dp4428
g88
g89
ssg70
g4417
sg63
(lp4429
S':'
asbag56
(g77
g58
NtRp4430
(dp4431
g61
(dp4432
sg70
g4417
sg63
(lp4433
g56
(g57
g58
NtRp4434
(dp4435
g61
(dp4436
g69
I4
ssg70
g4430
sg63
(lp4437
S'Your Name <you@example.com>'
p4438
asbasbasbag56
(g72
g58
NtRp4439
(dp4440
g61
(dp4441
sg70
g4413
sg63
(lp4442
g56
(g77
g58
NtRp4443
(dp4444
g61
(dp4445
g81
g82
ssg70
g4439
sg63
(lp4446
S'copyright'
p4447
asbag56
(g77
g58
NtRp4448
(dp4449
g61
(dp4450
g88
g89
ssg70
g4439
sg63
(lp4451
S':'
asbag56
(g77
g58
NtRp4452
(dp4453
g61
(dp4454
sg70
g4439
sg63
(lp4455
g56
(g57
g58
NtRp4456
(dp4457
g61
(dp4458
g69
I4
ssg70
g4452
sg63
(lp4459
S'Copyright 2011'
p4460
asbasbasbag56
(g72
g58
NtRp4461
(dp4462
g61
(dp4463
sg70
g4413
sg63
(lp4464
g56
(g77
g58
NtRp4465
(dp4466
g61
(dp4467
g81
g82
ssg70
g4461
sg63
(lp4468
S'description'
p4469
asbag56
(g77
g58
NtRp4470
(dp4471
g61
(dp4472
g88
g89
ssg70
g4461
sg63
(lp4473
S':'
asbag56
(g77
g58
NtRp4474
(dp4475
g61
(dp4476
sg70
g4461
sg63
(lp4477
g56
(g57
g58
NtRp4478
(dp4479
g61
(dp4480
g69
I4
ssg70
g4474
sg63
(lp4481
S'a cool new app'
p4482
asbasbasbag56
(g72
g58
NtRp4483
(dp4484
g61
(dp4485
sg70
g4413
sg63
(lp4486
g56
(g77
g58
NtRp4487
(dp4488
g61
(dp4489
g81
g82
ssg70
g4483
sg63
(lp4490
S'generator'
p4491
asbag56
(g77
g58
NtRp4492
(dp4493
g61
(dp4494
g88
g89
ssg70
g4483
sg63
(lp4495
S':'
asbag56
(g77
g58
NtRp4496
(dp4497
g61
(dp4498
sg70
g4483
sg63
(lp4499
g56
(g57
g58
NtRp4500
(dp4501
g61
(dp4502
g69
I4
ssg70
g4496
sg63
(lp4503
S'Web2py Web Framework'
p4504
asbasbasbag56
(g72
g58
NtRp4505
(dp4506
g61
(dp4507
sg70
g4413
sg63
(lp4508
g56
(g77
g58
NtRp4509
(dp4510
g61
(dp4511
g81
g82
ssg70
g4505
sg63
(lp4512
S'keywords'
p4513
asbag56
(g77
g58
NtRp4514
(dp4515
g61
(dp4516
g88
g89
ssg70
g4505
sg63
(lp4517
S':'
asbag56
(g77
g58
NtRp4518
(dp4519
g61
(dp4520
sg70
g4505
sg63
(lp4521
g56
(g57
g58
NtRp4522
(dp4523
g61
(dp4524
g69
I4
ssg70
g4518
sg63
(lp4525
S'web2py, python, framework'
p4526
asbasbasbasbasbasbasbag56
(g72
g58
NtRp4527
(dp4528
g61
(dp4529
sg70
g3216
sg63
(lp4530
g56
(g77
g58
NtRp4531
(dp4532
g61
(dp4533
g81
g82
ssg70
g4527
sg63
(lp4534
S'postprocessing'
p4535
asbag56
(g77
g58
NtRp4536
(dp4537
g61
(dp4538
g88
g89
ssg70
g4527
sg63
(lp4539
S':'
asbag56
(g77
g58
NtRp4540
(dp4541
g61
(dp4542
sg70
g4527
sg63
(lp4543
g56
(g57
g58
NtRp4544
(dp4545
g61
(dp4546
g69
I5
ssg70
g4540
sg63
(lp4547
g56
(g65
g58
NtRp4548
(dp4549
g61
(dp4550
g69
I4
ssg70
Nsg63
(lp4551
sbasbasbasbag56
(g72
g58
NtRp4552
(dp4553
g61
(dp4554
sg70
g3216
sg63
(lp4555
g56
(g77
g58
NtRp4556
(dp4557
g61
(dp4558
g81
g82
ssg70
g4552
sg63
(lp4559
S'session_file'
p4560
asbag56
(g77
g58
NtRp4561
(dp4562
g61
(dp4563
g88
g89
ssg70
g4552
sg63
(lp4564
S':'
asbag56
(g77
g58
NtRp4565
(dp4566
g61
(dp4567
sg70
g4552
sg63
(lp4568
g56
(g57
g58
NtRp4569
(dp4570
g61
(dp4571
g69
I5
ssg70
g4565
sg63
(lp4572
S"<open file '/home/pooja/web2py/applications/newsapp/sessions/127.0.0.1-f56ccde5-80db-47cc-80e8-bbcc8cc05a92', mode 'rb+' at 0x7f48a409de40>"
p4573
asbasbasbag56
(g72
g58
NtRp4574
(dp4575
g61
(dp4576
sg70
g3216
sg63
(lp4577
g56
(g77
g58
NtRp4578
(dp4579
g61
(dp4580
g81
g82
ssg70
g4574
sg63
(lp4581
S'session_filename'
p4582
asbag56
(g77
g58
NtRp4583
(dp4584
g61
(dp4585
g88
g89
ssg70
g4574
sg63
(lp4586
S':'
asbag56
(g77
g58
NtRp4587
(dp4588
g61
(dp4589
sg70
g4574
sg63
(lp4590
g56
(g57
g58
NtRp4591
(dp4592
g61
(dp4593
g69
I5
ssg70
g4587
sg63
(lp4594
S'/home/pooja/web2py/applications/newsapp/sessions/127.0.0.1-f56ccde5-80db-47cc-80e8-bbcc8cc05a92'
p4595
asbasbasbag56
(g72
g58
NtRp4596
(dp4597
g61
(dp4598
sg70
g3216
sg63
(lp4599
g56
(g77
g58
NtRp4600
(dp4601
g61
(dp4602
g81
g82
ssg70
g4596
sg63
(lp4603
S'session_id'
p4604
asbag56
(g77
g58
NtRp4605
(dp4606
g61
(dp4607
g88
g89
ssg70
g4596
sg63
(lp4608
S':'
asbag56
(g77
g58
NtRp4609
(dp4610
g61
(dp4611
sg70
g4596
sg63
(lp4612
g56
(g57
g58
NtRp4613
(dp4614
g61
(dp4615
g69
I5
ssg70
g4609
sg63
(lp4616
S'127.0.0.1-f56ccde5-80db-47cc-80e8-bbcc8cc05a92'
p4617
asbasbasbag56
(g72
g58
NtRp4618
(dp4619
g61
(dp4620
sg70
g3216
sg63
(lp4621
g56
(g77
g58
NtRp4622
(dp4623
g61
(dp4624
g81
g82
ssg70
g4618
sg63
(lp4625
S'session_id_name'
p4626
asbag56
(g77
g58
NtRp4627
(dp4628
g61
(dp4629
g88
g89
ssg70
g4618
sg63
(lp4630
S':'
asbag56
(g77
g58
NtRp4631
(dp4632
g61
(dp4633
sg70
g4618
sg63
(lp4634
g56
(g57
g58
NtRp4635
(dp4636
g61
(dp4637
g69
I5
ssg70
g4631
sg63
(lp4638
g3273
asbasbasbag56
(g72
g58
NtRp4639
(dp4640
g61
(dp4641
sg70
g3216
sg63
(lp4642
g56
(g77
g58
NtRp4643
(dp4644
g61
(dp4645
g81
g82
ssg70
g4639
sg63
(lp4646
S'session_locked'
p4647
asbag56
(g77
g58
NtRp4648
(dp4649
g61
(dp4650
g88
g89
ssg70
g4639
sg63
(lp4651
S':'
asbag56
(g77
g58
NtRp4652
(dp4653
g61
(dp4654
sg70
g4639
sg63
(lp4655
g56
(g57
g58
NtRp4656
(dp4657
g61
(dp4658
g69
I5
ssg70
g4652
sg63
(lp4659
g1633
asbasbasbag56
(g72
g58
NtRp4660
(dp4661
g61
(dp4662
sg70
g3216
sg63
(lp4663
g56
(g77
g58
NtRp4664
(dp4665
g61
(dp4666
g81
g82
ssg70
g4660
sg63
(lp4667
S'session_new'
p4668
asbag56
(g77
g58
NtRp4669
(dp4670
g61
(dp4671
g88
g89
ssg70
g4660
sg63
(lp4672
S':'
asbag56
(g77
g58
NtRp4673
(dp4674
g61
(dp4675
sg70
g4660
sg63
(lp4676
g56
(g57
g58
NtRp4677
(dp4678
g61
(dp4679
g69
I5
ssg70
g4673
sg63
(lp4680
g99
asbasbasbag56
(g72
g58
NtRp4681
(dp4682
g61
(dp4683
sg70
g3216
sg63
(lp4684
g56
(g77
g58
NtRp4685
(dp4686
g61
(dp4687
g81
g82
ssg70
g4681
sg63
(lp4688
S'status'
p4689
asbag56
(g77
g58
NtRp4690
(dp4691
g61
(dp4692
g88
g89
ssg70
g4681
sg63
(lp4693
S':'
asbag56
(g77
g58
NtRp4694
(dp4695
g61
(dp4696
sg70
g4681
sg63
(lp4697
g56
(g57
g58
NtRp4698
(dp4699
g61
(dp4700
g69
I5
ssg70
g4694
sg63
(lp4701
S'200'
p4702
asbasbasbag56
(g72
g58
NtRp4703
(dp4704
g61
(dp4705
sg70
g3216
sg63
(lp4706
g56
(g77
g58
NtRp4707
(dp4708
g61
(dp4709
g81
g82
ssg70
g4703
sg63
(lp4710
S'subtitle'
p4711
asbag56
(g77
g58
NtRp4712
(dp4713
g61
(dp4714
g88
g89
ssg70
g4703
sg63
(lp4715
S':'
asbag56
(g77
g58
NtRp4716
(dp4717
g61
(dp4718
sg70
g4703
sg63
(lp4719
g56
(g57
g58
NtRp4720
(dp4721
g61
(dp4722
g69
I5
ssg70
g4716
sg63
(lp4723
g3772
(S's\r\x00\x00\x00customize me!'
tRp4724
asbasbasbag56
(g72
g58
NtRp4725
(dp4726
g61
(dp4727
sg70
g3216
sg63
(lp4728
g56
(g77
g58
NtRp4729
(dp4730
g61
(dp4731
g81
g82
ssg70
g4725
sg63
(lp4732
S'title'
p4733
asbag56
(g77
g58
NtRp4734
(dp4735
g61
(dp4736
g88
g89
ssg70
g4725
sg63
(lp4737
S':'
asbag56
(g77
g58
NtRp4738
(dp4739
g61
(dp4740
sg70
g4725
sg63
(lp4741
g56
(g57
g58
NtRp4742
(dp4743
g61
(dp4744
g69
I5
ssg70
g4738
sg63
(lp4745
S'Newsapp'
p4746
asbasbasbag56
(g72
g58
NtRp4747
(dp4748
g61
(dp4749
sg70
g3216
sg63
(lp4750
g56
(g77
g58
NtRp4751
(dp4752
g61
(dp4753
g81
g82
ssg70
g4747
sg63
(lp4754
g2297
asbag56
(g77
g58
NtRp4755
(dp4756
g61
(dp4757
g88
g89
ssg70
g4747
sg63
(lp4758
S':'
asbag56
(g77
g58
NtRp4759
(dp4760
g61
(dp4761
sg70
g4747
sg63
(lp4762
g56
(g57
g58
NtRp4763
(dp4764
g61
(dp4765
g69
I5
ssg70
g4759
sg63
(lp4766
g2310
asbasbasbag56
(g72
g58
NtRp4767
(dp4768
g61
(dp4769
sg70
g3216
sg63
(lp4770
g56
(g77
g58
NtRp4771
(dp4772
g61
(dp4773
g81
g82
ssg70
g4767
sg63
(lp4774
S'view'
p4775
asbag56
(g77
g58
NtRp4776
(dp4777
g61
(dp4778
g88
g89
ssg70
g4767
sg63
(lp4779
S':'
asbag56
(g77
g58
NtRp4780
(dp4781
g61
(dp4782
sg70
g4767
sg63
(lp4783
g56
(g57
g58
NtRp4784
(dp4785
g61
(dp4786
g69
I5
ssg70
g4780
sg63
(lp4787
S'default/tw_trends.html'
p4788
asbasbasbasbasbsS'locals'
p4789
(dp4790
S'data'
p4791
S"[{u'as_of': u'2015-05-10T02:50:23Z', u'created_at': u'2015-05-10T02:41:47Z', u'locations': [{u'name': u'India', u'woeid': 23424848}], u'trends': [{u'name': u'#\\u0b85\\u0ba9\\u0bcd\\u0ba9\\u0bc8\\u0baf\\u0bb0\\u0bcd\\u0ba4\\u0bbf\\u0ba9\\u0bae\\u0bcd', u'promoted_content': None, u'query': u'%23%E0%AE%85%E0%AE%A9%E0%AF%8D%E0%AE%A9%E0%AF%...%8D%E0%AE%A4%E0%AE%BF%E0%AE%A9%E0%AE%AE%E0%AF%8D', u'url': u'http://twitter.com/search?q=%23%E0%AE%85%E0%AE...%8D%E0%AE%A4%E0%AE%BF%E0%AE%A9%E0%AE%AE%E0%AF%8D'}, {u'name': u'#HappyMothersDay', u'promoted_content': None, u'query': u'%23HappyMothersDay', u'url': u'http://twitter.com/search?q=%23HappyMothersDay'}, {u'name': u'#OhNoNiall', u'promoted_content': None, u'query': u'%23OhNoNiall', u'url': u'http://twitter.com/search?q=%23OhNoNiall'}, {u'name': u'#ThinkBIGSundayWithMarsha', u'promoted_content': None, u'query': u'%23ThinkBIGSundayWithMarsha', u'url': u'http://twitter.com/search?q=%23ThinkBIGSundayWithMarsha'}, {u'name': u'#KKRvsKXIP', u'promoted_content': None, u'query': u'%23KKRvsKXIP', u'url': u'http://twitter.com/search?q=%23KKRvsKXIP'}, {u'name': u'Chhattisgarh', u'promoted_content': None, u'query': u'Chhattisgarh', u'url': u'http://twitter.com/search?q=Chhattisgarh'}, {u'name': u'Gopal Krishna Gokhale', u'promoted_content': None, u'query': u'%22Gopal+Krishna+Gokhale%22', u'url': u'http://twitter.com/search?q=%22Gopal+Krishna+Gokhale%22'}, {u'name': u'episode 4', u'promoted_content': None, u'query': u'%22episode+4%22', u'url': u'http://twitter.com/search?q=%22episode+4%22'}, {u'name': u'De Gea', u'promoted_content': None, u'query': u'%22De+Gea%22', u'url': u'http://twitter.com/search?q=%22De+Gea%22'}, {u'name': u'Ashish Joshi', u'promoted_content': None, u'query': u'%22Ashish+Joshi%22', u'url': u'http://twitter.com/search?q=%22Ashish+Joshi%22'}]}]"
p4792
sS'content'
p4793
S'r\'[{"trends":[{"name":"#\\u0B85\\u0BA9\\u0BCD\\u0BA9\\u..."locations":[{"name":"India","woeid":23424848}]}]\''
p4794
sS'token'
p4795
S'<oauth2.Token object>'
p4796
sg176
S'<oauth2.Client object>'
p4797
sS'consumer'
p4798
S'<oauth2.Consumer object>'
p4799
sg3211
S"{'content-length': '1745', 'x-rate-limit-reset':...'content-type': 'application/json;charset=utf-8'}"
p4800
sssS'traceback'
p4801
S'Traceback (most recent call last):\n  File "/usr/lib/pymodules/python2.7/gluon/restricted.py", line 205, in restricted\n    exec ccode in environment\n  File "/home/pooja/web2py/applications/newsapp/controllers/default.py", line 117, in <module>\n  File "/usr/lib/pymodules/python2.7/gluon/globals.py", line 173, in <lambda>\n    self._caller = lambda f: f()\n  File "/home/pooja/web2py/applications/newsapp/controllers/default.py", line 63, in tw_trends\n    print data[0][0]\nKeyError: 0\n'
p4802
s.