(dp1
S'output'
p2
S''
sS'layer'
p3
S'Framework'
p4
sS'code'
p5
S''
sS'snapshot'
p6
(dp7
S'exception'
p8
(dp9
S'__hash__'
p10
S"<method-wrapper '__hash__' of exceptions.AttributeError object>"
p11
sS'__setattr__'
p12
S"<method-wrapper '__setattr__' of exceptions.AttributeError object>"
p13
sS'__reduce_ex__'
p14
S'<built-in method __reduce_ex__ of exceptions.AttributeError object>'
p15
sS'__getslice__'
p16
S"<method-wrapper '__getslice__' of exceptions.AttributeError object>"
p17
sS'__getitem__'
p18
S"<method-wrapper '__getitem__' of exceptions.AttributeError object>"
p19
sS'__setstate__'
p20
S'<built-in method __setstate__ of exceptions.AttributeError object>'
p21
sS'args'
p22
S"('view',)"
p23
sS'__reduce__'
p24
S'<built-in method __reduce__ of exceptions.AttributeError object>'
p25
sS'__str__'
p26
S"<method-wrapper '__str__' of exceptions.AttributeError object>"
p27
sS'__format__'
p28
S'<built-in method __format__ of exceptions.AttributeError object>'
p29
sS'__getattribute__'
p30
S"<method-wrapper '__getattribute__' of exceptions.AttributeError object>"
p31
sS'__class__'
p32
S"<type 'exceptions.AttributeError'>"
p33
sS'__unicode__'
p34
S'<built-in method __unicode__ of exceptions.AttributeError object>'
p35
sS'__delattr__'
p36
S"<method-wrapper '__delattr__' of exceptions.AttributeError object>"
p37
sS'__subclasshook__'
p38
S'<built-in method __subclasshook__ of type object>'
p39
sS'__repr__'
p40
S"<method-wrapper '__repr__' of exceptions.AttributeError object>"
p41
sS'__dict__'
p42
S'{}'
p43
sS'__sizeof__'
p44
S'<built-in method __sizeof__ of exceptions.AttributeError object>'
p45
sS'__doc__'
p46
S"'Attribute not found.'"
p47
sS'__init__'
p48
S"<method-wrapper '__init__' of exceptions.AttributeError object>"
p49
sS'__new__'
p50
S'<built-in method __new__ of type object>'
p51
ssS'evalue'
p52
S'view'
p53
sS'request'
p54
ccopy_reg
_reconstructor
p55
(cgluon.html
BEAUTIFY
p56
c__builtin__
object
p57
NtRp58
(dp59
S'attributes'
p60
(dp61
sS'components'
p62
(lp63
g55
(cgluon.html
TABLE
p64
g57
NtRp65
(dp66
g60
(dp67
S'level'
p68
I5
ssS'parent'
p69
Nsg62
(lp70
g55
(cgluon.html
TR
p71
g57
NtRp72
(dp73
g60
(dp74
sg69
g65
sg62
(lp75
g55
(cgluon.html
TD
p76
g57
NtRp77
(dp78
g60
(dp79
S'_style'
p80
S'font-weight:bold;vertical-align:top'
p81
ssg69
g72
sg62
(lp82
S'ajax'
p83
asbag55
(g76
g57
NtRp84
(dp85
g60
(dp86
S'_valign'
p87
S'top'
p88
ssg69
g72
sg62
(lp89
S':'
asbag55
(g76
g57
NtRp90
(dp91
g60
(dp92
sg69
g72
sg62
(lp93
g55
(g56
g57
NtRp94
(dp95
g60
(dp96
g68
I5
ssg69
g90
sg62
(lp97
S'False'
p98
asbasbasbag55
(g71
g57
NtRp99
(dp100
g60
(dp101
sg69
g65
sg62
(lp102
g55
(g76
g57
NtRp103
(dp104
g60
(dp105
g80
g81
ssg69
g99
sg62
(lp106
S'application'
p107
asbag55
(g76
g57
NtRp108
(dp109
g60
(dp110
g87
g88
ssg69
g99
sg62
(lp111
S':'
asbag55
(g76
g57
NtRp112
(dp113
g60
(dp114
sg69
g99
sg62
(lp115
g55
(g56
g57
NtRp116
(dp117
g60
(dp118
g68
I5
ssg69
g112
sg62
(lp119
S'newsapp'
p120
asbasbasbag55
(g71
g57
NtRp121
(dp122
g60
(dp123
sg69
g65
sg62
(lp124
g55
(g76
g57
NtRp125
(dp126
g60
(dp127
g80
g81
ssg69
g121
sg62
(lp128
g22
asbag55
(g76
g57
NtRp129
(dp130
g60
(dp131
g87
g88
ssg69
g121
sg62
(lp132
S':'
asbag55
(g76
g57
NtRp133
(dp134
g60
(dp135
sg69
g121
sg62
(lp136
g55
(g56
g57
NtRp137
(dp138
g60
(dp139
g68
I5
ssg69
g133
sg62
(lp140
g55
(g64
g57
NtRp141
(dp142
g60
(dp143
g68
I4
ssg69
Nsg62
(lp144
sbasbasbasbag55
(g71
g57
NtRp145
(dp146
g60
(dp147
sg69
g65
sg62
(lp148
g55
(g76
g57
NtRp149
(dp150
g60
(dp151
g80
g81
ssg69
g145
sg62
(lp152
S'body'
p153
asbag55
(g76
g57
NtRp154
(dp155
g60
(dp156
g87
g88
ssg69
g145
sg62
(lp157
S':'
asbag55
(g76
g57
NtRp158
(dp159
g60
(dp160
sg69
g145
sg62
(lp161
g55
(g56
g57
NtRp162
(dp163
g60
(dp164
g68
I5
ssg69
g158
sg62
(lp165
S'<cStringIO.StringO object at 0x7f7701b48c38>'
p166
asbasbasbag55
(g71
g57
NtRp167
(dp168
g60
(dp169
sg69
g65
sg62
(lp170
g55
(g76
g57
NtRp171
(dp172
g60
(dp173
g80
g81
ssg69
g167
sg62
(lp174
S'client'
p175
asbag55
(g76
g57
NtRp176
(dp177
g60
(dp178
g87
g88
ssg69
g167
sg62
(lp179
S':'
asbag55
(g76
g57
NtRp180
(dp181
g60
(dp182
sg69
g167
sg62
(lp183
g55
(g56
g57
NtRp184
(dp185
g60
(dp186
g68
I5
ssg69
g180
sg62
(lp187
S'127.0.0.1'
p188
asbasbasbag55
(g71
g57
NtRp189
(dp190
g60
(dp191
sg69
g65
sg62
(lp192
g55
(g76
g57
NtRp193
(dp194
g60
(dp195
g80
g81
ssg69
g189
sg62
(lp196
S'controller'
p197
asbag55
(g76
g57
NtRp198
(dp199
g60
(dp200
g87
g88
ssg69
g189
sg62
(lp201
S':'
asbag55
(g76
g57
NtRp202
(dp203
g60
(dp204
sg69
g189
sg62
(lp205
g55
(g56
g57
NtRp206
(dp207
g60
(dp208
g68
I5
ssg69
g202
sg62
(lp209
S'default'
p210
asbasbasbag55
(g71
g57
NtRp211
(dp212
g60
(dp213
sg69
g65
sg62
(lp214
g55
(g76
g57
NtRp215
(dp216
g60
(dp217
g80
g81
ssg69
g211
sg62
(lp218
S'cookies'
p219
asbag55
(g76
g57
NtRp220
(dp221
g60
(dp222
g87
g88
ssg69
g211
sg62
(lp223
S':'
asbag55
(g76
g57
NtRp224
(dp225
g60
(dp226
sg69
g211
sg62
(lp227
g55
(g56
g57
NtRp228
(dp229
g60
(dp230
g68
I5
ssg69
g224
sg62
(lp231
g55
(g64
g57
NtRp232
(dp233
g60
(dp234
g68
I4
ssg69
Nsg62
(lp235
g55
(g71
g57
NtRp236
(dp237
g60
(dp238
sg69
g232
sg62
(lp239
g55
(g76
g57
NtRp240
(dp241
g60
(dp242
g80
g81
ssg69
g236
sg62
(lp243
S'session_id_admin'
p244
asbag55
(g76
g57
NtRp245
(dp246
g60
(dp247
g87
g88
ssg69
g236
sg62
(lp248
S':'
asbag55
(g76
g57
NtRp249
(dp250
g60
(dp251
sg69
g236
sg62
(lp252
g55
(g56
g57
NtRp253
(dp254
g60
(dp255
g68
I4
ssg69
g249
sg62
(lp256
g55
(g64
g57
NtRp257
(dp258
g60
(dp259
g68
I3
ssg69
Nsg62
(lp260
g55
(g71
g57
NtRp261
(dp262
g60
(dp263
sg69
g257
sg62
(lp264
g55
(g76
g57
NtRp265
(dp266
g60
(dp267
g80
g81
ssg69
g261
sg62
(lp268
S'comment'
p269
asbag55
(g76
g57
NtRp270
(dp271
g60
(dp272
g87
g88
ssg69
g261
sg62
(lp273
S':'
asbag55
(g76
g57
NtRp274
(dp275
g60
(dp276
sg69
g261
sg62
(lp277
g55
(g56
g57
NtRp278
(dp279
g60
(dp280
g68
I3
ssg69
g274
sg62
(lp281
S''
asbasbasbag55
(g71
g57
NtRp282
(dp283
g60
(dp284
sg69
g257
sg62
(lp285
g55
(g76
g57
NtRp286
(dp287
g60
(dp288
g80
g81
ssg69
g282
sg62
(lp289
S'domain'
p290
asbag55
(g76
g57
NtRp291
(dp292
g60
(dp293
g87
g88
ssg69
g282
sg62
(lp294
S':'
asbag55
(g76
g57
NtRp295
(dp296
g60
(dp297
sg69
g282
sg62
(lp298
g55
(g56
g57
NtRp299
(dp300
g60
(dp301
g68
I3
ssg69
g295
sg62
(lp302
S''
asbasbasbag55
(g71
g57
NtRp303
(dp304
g60
(dp305
sg69
g257
sg62
(lp306
g55
(g76
g57
NtRp307
(dp308
g60
(dp309
g80
g81
ssg69
g303
sg62
(lp310
S'expires'
p311
asbag55
(g76
g57
NtRp312
(dp313
g60
(dp314
g87
g88
ssg69
g303
sg62
(lp315
S':'
asbag55
(g76
g57
NtRp316
(dp317
g60
(dp318
sg69
g303
sg62
(lp319
g55
(g56
g57
NtRp320
(dp321
g60
(dp322
g68
I3
ssg69
g316
sg62
(lp323
S''
asbasbasbag55
(g71
g57
NtRp324
(dp325
g60
(dp326
sg69
g257
sg62
(lp327
g55
(g76
g57
NtRp328
(dp329
g60
(dp330
g80
g81
ssg69
g324
sg62
(lp331
S'httponly'
p332
asbag55
(g76
g57
NtRp333
(dp334
g60
(dp335
g87
g88
ssg69
g324
sg62
(lp336
S':'
asbag55
(g76
g57
NtRp337
(dp338
g60
(dp339
sg69
g324
sg62
(lp340
g55
(g56
g57
NtRp341
(dp342
g60
(dp343
g68
I3
ssg69
g337
sg62
(lp344
S''
asbasbasbag55
(g71
g57
NtRp345
(dp346
g60
(dp347
sg69
g257
sg62
(lp348
g55
(g76
g57
NtRp349
(dp350
g60
(dp351
g80
g81
ssg69
g345
sg62
(lp352
S'max-age'
p353
asbag55
(g76
g57
NtRp354
(dp355
g60
(dp356
g87
g88
ssg69
g345
sg62
(lp357
S':'
asbag55
(g76
g57
NtRp358
(dp359
g60
(dp360
sg69
g345
sg62
(lp361
g55
(g56
g57
NtRp362
(dp363
g60
(dp364
g68
I3
ssg69
g358
sg62
(lp365
S''
asbasbasbag55
(g71
g57
NtRp366
(dp367
g60
(dp368
sg69
g257
sg62
(lp369
g55
(g76
g57
NtRp370
(dp371
g60
(dp372
g80
g81
ssg69
g366
sg62
(lp373
S'path'
p374
asbag55
(g76
g57
NtRp375
(dp376
g60
(dp377
g87
g88
ssg69
g366
sg62
(lp378
S':'
asbag55
(g76
g57
NtRp379
(dp380
g60
(dp381
sg69
g366
sg62
(lp382
g55
(g56
g57
NtRp383
(dp384
g60
(dp385
g68
I3
ssg69
g379
sg62
(lp386
S''
asbasbasbag55
(g71
g57
NtRp387
(dp388
g60
(dp389
sg69
g257
sg62
(lp390
g55
(g76
g57
NtRp391
(dp392
g60
(dp393
g80
g81
ssg69
g387
sg62
(lp394
S'secure'
p395
asbag55
(g76
g57
NtRp396
(dp397
g60
(dp398
g87
g88
ssg69
g387
sg62
(lp399
S':'
asbag55
(g76
g57
NtRp400
(dp401
g60
(dp402
sg69
g387
sg62
(lp403
g55
(g56
g57
NtRp404
(dp405
g60
(dp406
g68
I3
ssg69
g400
sg62
(lp407
S''
asbasbasbag55
(g71
g57
NtRp408
(dp409
g60
(dp410
sg69
g257
sg62
(lp411
g55
(g76
g57
NtRp412
(dp413
g60
(dp414
g80
g81
ssg69
g408
sg62
(lp415
S'version'
p416
asbag55
(g76
g57
NtRp417
(dp418
g60
(dp419
g87
g88
ssg69
g408
sg62
(lp420
S':'
asbag55
(g76
g57
NtRp421
(dp422
g60
(dp423
sg69
g408
sg62
(lp424
g55
(g56
g57
NtRp425
(dp426
g60
(dp427
g68
I3
ssg69
g421
sg62
(lp428
S''
asbasbasbasbasbasbasbag55
(g71
g57
NtRp429
(dp430
g60
(dp431
sg69
g232
sg62
(lp432
g55
(g76
g57
NtRp433
(dp434
g60
(dp435
g80
g81
ssg69
g429
sg62
(lp436
S'session_id_newsapp'
p437
asbag55
(g76
g57
NtRp438
(dp439
g60
(dp440
g87
g88
ssg69
g429
sg62
(lp441
S':'
asbag55
(g76
g57
NtRp442
(dp443
g60
(dp444
sg69
g429
sg62
(lp445
g55
(g56
g57
NtRp446
(dp447
g60
(dp448
g68
I4
ssg69
g442
sg62
(lp449
g55
(g64
g57
NtRp450
(dp451
g60
(dp452
g68
I3
ssg69
Nsg62
(lp453
g55
(g71
g57
NtRp454
(dp455
g60
(dp456
sg69
g450
sg62
(lp457
g55
(g76
g57
NtRp458
(dp459
g60
(dp460
g80
g81
ssg69
g454
sg62
(lp461
g269
asbag55
(g76
g57
NtRp462
(dp463
g60
(dp464
g87
g88
ssg69
g454
sg62
(lp465
S':'
asbag55
(g76
g57
NtRp466
(dp467
g60
(dp468
sg69
g454
sg62
(lp469
g55
(g56
g57
NtRp470
(dp471
g60
(dp472
g68
I3
ssg69
g466
sg62
(lp473
S''
asbasbasbag55
(g71
g57
NtRp474
(dp475
g60
(dp476
sg69
g450
sg62
(lp477
g55
(g76
g57
NtRp478
(dp479
g60
(dp480
g80
g81
ssg69
g474
sg62
(lp481
g290
asbag55
(g76
g57
NtRp482
(dp483
g60
(dp484
g87
g88
ssg69
g474
sg62
(lp485
S':'
asbag55
(g76
g57
NtRp486
(dp487
g60
(dp488
sg69
g474
sg62
(lp489
g55
(g56
g57
NtRp490
(dp491
g60
(dp492
g68
I3
ssg69
g486
sg62
(lp493
S''
asbasbasbag55
(g71
g57
NtRp494
(dp495
g60
(dp496
sg69
g450
sg62
(lp497
g55
(g76
g57
NtRp498
(dp499
g60
(dp500
g80
g81
ssg69
g494
sg62
(lp501
g311
asbag55
(g76
g57
NtRp502
(dp503
g60
(dp504
g87
g88
ssg69
g494
sg62
(lp505
S':'
asbag55
(g76
g57
NtRp506
(dp507
g60
(dp508
sg69
g494
sg62
(lp509
g55
(g56
g57
NtRp510
(dp511
g60
(dp512
g68
I3
ssg69
g506
sg62
(lp513
S''
asbasbasbag55
(g71
g57
NtRp514
(dp515
g60
(dp516
sg69
g450
sg62
(lp517
g55
(g76
g57
NtRp518
(dp519
g60
(dp520
g80
g81
ssg69
g514
sg62
(lp521
g332
asbag55
(g76
g57
NtRp522
(dp523
g60
(dp524
g87
g88
ssg69
g514
sg62
(lp525
S':'
asbag55
(g76
g57
NtRp526
(dp527
g60
(dp528
sg69
g514
sg62
(lp529
g55
(g56
g57
NtRp530
(dp531
g60
(dp532
g68
I3
ssg69
g526
sg62
(lp533
S''
asbasbasbag55
(g71
g57
NtRp534
(dp535
g60
(dp536
sg69
g450
sg62
(lp537
g55
(g76
g57
NtRp538
(dp539
g60
(dp540
g80
g81
ssg69
g534
sg62
(lp541
g353
asbag55
(g76
g57
NtRp542
(dp543
g60
(dp544
g87
g88
ssg69
g534
sg62
(lp545
S':'
asbag55
(g76
g57
NtRp546
(dp547
g60
(dp548
sg69
g534
sg62
(lp549
g55
(g56
g57
NtRp550
(dp551
g60
(dp552
g68
I3
ssg69
g546
sg62
(lp553
S''
asbasbasbag55
(g71
g57
NtRp554
(dp555
g60
(dp556
sg69
g450
sg62
(lp557
g55
(g76
g57
NtRp558
(dp559
g60
(dp560
g80
g81
ssg69
g554
sg62
(lp561
g374
asbag55
(g76
g57
NtRp562
(dp563
g60
(dp564
g87
g88
ssg69
g554
sg62
(lp565
S':'
asbag55
(g76
g57
NtRp566
(dp567
g60
(dp568
sg69
g554
sg62
(lp569
g55
(g56
g57
NtRp570
(dp571
g60
(dp572
g68
I3
ssg69
g566
sg62
(lp573
S''
asbasbasbag55
(g71
g57
NtRp574
(dp575
g60
(dp576
sg69
g450
sg62
(lp577
g55
(g76
g57
NtRp578
(dp579
g60
(dp580
g80
g81
ssg69
g574
sg62
(lp581
g395
asbag55
(g76
g57
NtRp582
(dp583
g60
(dp584
g87
g88
ssg69
g574
sg62
(lp585
S':'
asbag55
(g76
g57
NtRp586
(dp587
g60
(dp588
sg69
g574
sg62
(lp589
g55
(g56
g57
NtRp590
(dp591
g60
(dp592
g68
I3
ssg69
g586
sg62
(lp593
S''
asbasbasbag55
(g71
g57
NtRp594
(dp595
g60
(dp596
sg69
g450
sg62
(lp597
g55
(g76
g57
NtRp598
(dp599
g60
(dp600
g80
g81
ssg69
g594
sg62
(lp601
g416
asbag55
(g76
g57
NtRp602
(dp603
g60
(dp604
g87
g88
ssg69
g594
sg62
(lp605
S':'
asbag55
(g76
g57
NtRp606
(dp607
g60
(dp608
sg69
g594
sg62
(lp609
g55
(g56
g57
NtRp610
(dp611
g60
(dp612
g68
I3
ssg69
g606
sg62
(lp613
S''
asbasbasbasbasbasbasbag55
(g71
g57
NtRp614
(dp615
g60
(dp616
sg69
g232
sg62
(lp617
g55
(g76
g57
NtRp618
(dp619
g60
(dp620
g80
g81
ssg69
g614
sg62
(lp621
S'session_id_welcome'
p622
asbag55
(g76
g57
NtRp623
(dp624
g60
(dp625
g87
g88
ssg69
g614
sg62
(lp626
S':'
asbag55
(g76
g57
NtRp627
(dp628
g60
(dp629
sg69
g614
sg62
(lp630
g55
(g56
g57
NtRp631
(dp632
g60
(dp633
g68
I4
ssg69
g627
sg62
(lp634
g55
(g64
g57
NtRp635
(dp636
g60
(dp637
g68
I3
ssg69
Nsg62
(lp638
g55
(g71
g57
NtRp639
(dp640
g60
(dp641
sg69
g635
sg62
(lp642
g55
(g76
g57
NtRp643
(dp644
g60
(dp645
g80
g81
ssg69
g639
sg62
(lp646
g269
asbag55
(g76
g57
NtRp647
(dp648
g60
(dp649
g87
g88
ssg69
g639
sg62
(lp650
S':'
asbag55
(g76
g57
NtRp651
(dp652
g60
(dp653
sg69
g639
sg62
(lp654
g55
(g56
g57
NtRp655
(dp656
g60
(dp657
g68
I3
ssg69
g651
sg62
(lp658
S''
asbasbasbag55
(g71
g57
NtRp659
(dp660
g60
(dp661
sg69
g635
sg62
(lp662
g55
(g76
g57
NtRp663
(dp664
g60
(dp665
g80
g81
ssg69
g659
sg62
(lp666
g290
asbag55
(g76
g57
NtRp667
(dp668
g60
(dp669
g87
g88
ssg69
g659
sg62
(lp670
S':'
asbag55
(g76
g57
NtRp671
(dp672
g60
(dp673
sg69
g659
sg62
(lp674
g55
(g56
g57
NtRp675
(dp676
g60
(dp677
g68
I3
ssg69
g671
sg62
(lp678
S''
asbasbasbag55
(g71
g57
NtRp679
(dp680
g60
(dp681
sg69
g635
sg62
(lp682
g55
(g76
g57
NtRp683
(dp684
g60
(dp685
g80
g81
ssg69
g679
sg62
(lp686
g311
asbag55
(g76
g57
NtRp687
(dp688
g60
(dp689
g87
g88
ssg69
g679
sg62
(lp690
S':'
asbag55
(g76
g57
NtRp691
(dp692
g60
(dp693
sg69
g679
sg62
(lp694
g55
(g56
g57
NtRp695
(dp696
g60
(dp697
g68
I3
ssg69
g691
sg62
(lp698
S''
asbasbasbag55
(g71
g57
NtRp699
(dp700
g60
(dp701
sg69
g635
sg62
(lp702
g55
(g76
g57
NtRp703
(dp704
g60
(dp705
g80
g81
ssg69
g699
sg62
(lp706
g332
asbag55
(g76
g57
NtRp707
(dp708
g60
(dp709
g87
g88
ssg69
g699
sg62
(lp710
S':'
asbag55
(g76
g57
NtRp711
(dp712
g60
(dp713
sg69
g699
sg62
(lp714
g55
(g56
g57
NtRp715
(dp716
g60
(dp717
g68
I3
ssg69
g711
sg62
(lp718
S''
asbasbasbag55
(g71
g57
NtRp719
(dp720
g60
(dp721
sg69
g635
sg62
(lp722
g55
(g76
g57
NtRp723
(dp724
g60
(dp725
g80
g81
ssg69
g719
sg62
(lp726
g353
asbag55
(g76
g57
NtRp727
(dp728
g60
(dp729
g87
g88
ssg69
g719
sg62
(lp730
S':'
asbag55
(g76
g57
NtRp731
(dp732
g60
(dp733
sg69
g719
sg62
(lp734
g55
(g56
g57
NtRp735
(dp736
g60
(dp737
g68
I3
ssg69
g731
sg62
(lp738
S''
asbasbasbag55
(g71
g57
NtRp739
(dp740
g60
(dp741
sg69
g635
sg62
(lp742
g55
(g76
g57
NtRp743
(dp744
g60
(dp745
g80
g81
ssg69
g739
sg62
(lp746
g374
asbag55
(g76
g57
NtRp747
(dp748
g60
(dp749
g87
g88
ssg69
g739
sg62
(lp750
S':'
asbag55
(g76
g57
NtRp751
(dp752
g60
(dp753
sg69
g739
sg62
(lp754
g55
(g56
g57
NtRp755
(dp756
g60
(dp757
g68
I3
ssg69
g751
sg62
(lp758
S''
asbasbasbag55
(g71
g57
NtRp759
(dp760
g60
(dp761
sg69
g635
sg62
(lp762
g55
(g76
g57
NtRp763
(dp764
g60
(dp765
g80
g81
ssg69
g759
sg62
(lp766
g395
asbag55
(g76
g57
NtRp767
(dp768
g60
(dp769
g87
g88
ssg69
g759
sg62
(lp770
S':'
asbag55
(g76
g57
NtRp771
(dp772
g60
(dp773
sg69
g759
sg62
(lp774
g55
(g56
g57
NtRp775
(dp776
g60
(dp777
g68
I3
ssg69
g771
sg62
(lp778
S''
asbasbasbag55
(g71
g57
NtRp779
(dp780
g60
(dp781
sg69
g635
sg62
(lp782
g55
(g76
g57
NtRp783
(dp784
g60
(dp785
g80
g81
ssg69
g779
sg62
(lp786
g416
asbag55
(g76
g57
NtRp787
(dp788
g60
(dp789
g87
g88
ssg69
g779
sg62
(lp790
S':'
asbag55
(g76
g57
NtRp791
(dp792
g60
(dp793
sg69
g779
sg62
(lp794
g55
(g56
g57
NtRp795
(dp796
g60
(dp797
g68
I3
ssg69
g791
sg62
(lp798
S''
asbasbasbasbasbasbasbasbasbasbasbag55
(g71
g57
NtRp799
(dp800
g60
(dp801
sg69
g65
sg62
(lp802
g55
(g76
g57
NtRp803
(dp804
g60
(dp805
g80
g81
ssg69
g799
sg62
(lp806
S'env'
p807
asbag55
(g76
g57
NtRp808
(dp809
g60
(dp810
g87
g88
ssg69
g799
sg62
(lp811
S':'
asbag55
(g76
g57
NtRp812
(dp813
g60
(dp814
sg69
g799
sg62
(lp815
g55
(g56
g57
NtRp816
(dp817
g60
(dp818
g68
I5
ssg69
g812
sg62
(lp819
g55
(g64
g57
NtRp820
(dp821
g60
(dp822
g68
I4
ssg69
Nsg62
(lp823
g55
(g71
g57
NtRp824
(dp825
g60
(dp826
sg69
g820
sg62
(lp827
g55
(g76
g57
NtRp828
(dp829
g60
(dp830
g80
g81
ssg69
g824
sg62
(lp831
S'app_folders'
p832
asbag55
(g76
g57
NtRp833
(dp834
g60
(dp835
g87
g88
ssg69
g824
sg62
(lp836
S':'
asbag55
(g76
g57
NtRp837
(dp838
g60
(dp839
sg69
g824
sg62
(lp840
g55
(g56
g57
NtRp841
(dp842
g60
(dp843
g68
I4
ssg69
g837
sg62
(lp844
S"set(['/home/pooja/web2py/applications/admin/', '/home/pooja/web2py/applications/newsapp/', '/home/pooja/web2py/applications/welcome/'])"
p845
asbasbasbag55
(g71
g57
NtRp846
(dp847
g60
(dp848
sg69
g820
sg62
(lp849
g55
(g76
g57
NtRp850
(dp851
g60
(dp852
g80
g81
ssg69
g846
sg62
(lp853
S'applications_parent'
p854
asbag55
(g76
g57
NtRp855
(dp856
g60
(dp857
g87
g88
ssg69
g846
sg62
(lp858
S':'
asbag55
(g76
g57
NtRp859
(dp860
g60
(dp861
sg69
g846
sg62
(lp862
g55
(g56
g57
NtRp863
(dp864
g60
(dp865
g68
I4
ssg69
g859
sg62
(lp866
S'/home/pooja/web2py'
p867
asbasbasbag55
(g71
g57
NtRp868
(dp869
g60
(dp870
sg69
g820
sg62
(lp871
g55
(g76
g57
NtRp872
(dp873
g60
(dp874
g80
g81
ssg69
g868
sg62
(lp875
S'cmd_args'
p876
asbag55
(g76
g57
NtRp877
(dp878
g60
(dp879
g87
g88
ssg69
g868
sg62
(lp880
S':'
asbag55
(g76
g57
NtRp881
(dp882
g60
(dp883
sg69
g868
sg62
(lp884
g55
(g56
g57
NtRp885
(dp886
g60
(dp887
g68
I4
ssg69
g881
sg62
(lp888
g55
(g64
g57
NtRp889
(dp890
g60
(dp891
g68
I3
ssg69
Nsg62
(lp892
sbasbasbasbag55
(g71
g57
NtRp893
(dp894
g60
(dp895
sg69
g820
sg62
(lp896
g55
(g76
g57
NtRp897
(dp898
g60
(dp899
g80
g81
ssg69
g893
sg62
(lp900
S'cmd_options'
p901
asbag55
(g76
g57
NtRp902
(dp903
g60
(dp904
g87
g88
ssg69
g893
sg62
(lp905
S':'
asbag55
(g76
g57
NtRp906
(dp907
g60
(dp908
sg69
g893
sg62
(lp909
g55
(g56
g57
NtRp910
(dp911
g60
(dp912
g68
I4
ssg69
g906
sg62
(lp913
S"<Values at 0x7f77019dce18: {'verbose': False, 'ip': '127.0.0.1', 'shutdown_timeout': 5, 'taskbar': False, 'nocron': False, 'pid_filename': 'httpserver.pid', 'maxthreads': None, 'softcron': False, 'server_name': 'pooja-HP-15-Notebook-PC', 'bpython': False, 'nogui': False, 'port': 8000, 'extcron': False, 'debuglevel': 30, 'test': None, 'folder': '/home/pooja/web2py', 'config': '', 'import_models': False, 'winservice': '', 'shell': None, 'run': '', 'log_filename': 'httpserver.log', 'args': [''], 'socket_timeout': 5, 'ssl_ca_certificate': None, 'scheduler': None, 'profiler_filename': None, 'ssl_private_key': '', 'password': '<ask>', 'request_queue_size': 5, 'ssl_certificate': '', 'cronjob': False, 'numthreads': None, 'quiet': False, 'interfaces': None, 'minthreads': None, 'timeout': 10, 'plain': False, 'nobanner': False}>"
p914
asbasbasbag55
(g71
g57
NtRp915
(dp916
g60
(dp917
sg69
g820
sg62
(lp918
g55
(g76
g57
NtRp919
(dp920
g60
(dp921
g80
g81
ssg69
g915
sg62
(lp922
S'db_sessions'
p923
asbag55
(g76
g57
NtRp924
(dp925
g60
(dp926
g87
g88
ssg69
g915
sg62
(lp927
S':'
asbag55
(g76
g57
NtRp928
(dp929
g60
(dp930
sg69
g915
sg62
(lp931
g55
(g56
g57
NtRp932
(dp933
g60
(dp934
g68
I4
ssg69
g928
sg62
(lp935
S'set([])'
p936
asbasbasbag55
(g71
g57
NtRp937
(dp938
g60
(dp939
sg69
g820
sg62
(lp940
g55
(g76
g57
NtRp941
(dp942
g60
(dp943
g80
g81
ssg69
g937
sg62
(lp944
S'debugging'
p945
asbag55
(g76
g57
NtRp946
(dp947
g60
(dp948
g87
g88
ssg69
g937
sg62
(lp949
S':'
asbag55
(g76
g57
NtRp950
(dp951
g60
(dp952
sg69
g937
sg62
(lp953
g55
(g56
g57
NtRp954
(dp955
g60
(dp956
g68
I4
ssg69
g950
sg62
(lp957
g98
asbasbasbag55
(g71
g57
NtRp958
(dp959
g60
(dp960
sg69
g820
sg62
(lp961
g55
(g76
g57
NtRp962
(dp963
g60
(dp964
g80
g81
ssg69
g958
sg62
(lp965
S'gluon_parent'
p966
asbag55
(g76
g57
NtRp967
(dp968
g60
(dp969
g87
g88
ssg69
g958
sg62
(lp970
S':'
asbag55
(g76
g57
NtRp971
(dp972
g60
(dp973
sg69
g958
sg62
(lp974
g55
(g56
g57
NtRp975
(dp976
g60
(dp977
g68
I4
ssg69
g971
sg62
(lp978
S'/usr/share/web2py'
p979
asbasbasbag55
(g71
g57
NtRp980
(dp981
g60
(dp982
sg69
g820
sg62
(lp983
g55
(g76
g57
NtRp984
(dp985
g60
(dp986
g80
g81
ssg69
g980
sg62
(lp987
S'http_accept'
p988
asbag55
(g76
g57
NtRp989
(dp990
g60
(dp991
g87
g88
ssg69
g980
sg62
(lp992
S':'
asbag55
(g76
g57
NtRp993
(dp994
g60
(dp995
sg69
g980
sg62
(lp996
g55
(g56
g57
NtRp997
(dp998
g60
(dp999
g68
I4
ssg69
g993
sg62
(lp1000
S'text/html,application/xhtml+xml,application/xml;q=0.9,image/webp,*/*;q=0.8'
p1001
asbasbasbag55
(g71
g57
NtRp1002
(dp1003
g60
(dp1004
sg69
g820
sg62
(lp1005
g55
(g76
g57
NtRp1006
(dp1007
g60
(dp1008
g80
g81
ssg69
g1002
sg62
(lp1009
S'http_accept_encoding'
p1010
asbag55
(g76
g57
NtRp1011
(dp1012
g60
(dp1013
g87
g88
ssg69
g1002
sg62
(lp1014
S':'
asbag55
(g76
g57
NtRp1015
(dp1016
g60
(dp1017
sg69
g1002
sg62
(lp1018
g55
(g56
g57
NtRp1019
(dp1020
g60
(dp1021
g68
I4
ssg69
g1015
sg62
(lp1022
S'gzip, deflate, sdch'
p1023
asbasbasbag55
(g71
g57
NtRp1024
(dp1025
g60
(dp1026
sg69
g820
sg62
(lp1027
g55
(g76
g57
NtRp1028
(dp1029
g60
(dp1030
g80
g81
ssg69
g1024
sg62
(lp1031
S'http_accept_language'
p1032
asbag55
(g76
g57
NtRp1033
(dp1034
g60
(dp1035
g87
g88
ssg69
g1024
sg62
(lp1036
S':'
asbag55
(g76
g57
NtRp1037
(dp1038
g60
(dp1039
sg69
g1024
sg62
(lp1040
g55
(g56
g57
NtRp1041
(dp1042
g60
(dp1043
g68
I4
ssg69
g1037
sg62
(lp1044
S'en-US,en;q=0.8'
p1045
asbasbasbag55
(g71
g57
NtRp1046
(dp1047
g60
(dp1048
sg69
g820
sg62
(lp1049
g55
(g76
g57
NtRp1050
(dp1051
g60
(dp1052
g80
g81
ssg69
g1046
sg62
(lp1053
S'http_connection'
p1054
asbag55
(g76
g57
NtRp1055
(dp1056
g60
(dp1057
g87
g88
ssg69
g1046
sg62
(lp1058
S':'
asbag55
(g76
g57
NtRp1059
(dp1060
g60
(dp1061
sg69
g1046
sg62
(lp1062
g55
(g56
g57
NtRp1063
(dp1064
g60
(dp1065
g68
I4
ssg69
g1059
sg62
(lp1066
S'keep-alive'
p1067
asbasbasbag55
(g71
g57
NtRp1068
(dp1069
g60
(dp1070
sg69
g820
sg62
(lp1071
g55
(g76
g57
NtRp1072
(dp1073
g60
(dp1074
g80
g81
ssg69
g1068
sg62
(lp1075
S'http_cookie'
p1076
asbag55
(g76
g57
NtRp1077
(dp1078
g60
(dp1079
g87
g88
ssg69
g1068
sg62
(lp1080
S':'
asbag55
(g76
g57
NtRp1081
(dp1082
g60
(dp1083
sg69
g1068
sg62
(lp1084
g55
(g56
g57
NtRp1085
(dp1086
g60
(dp1087
g68
I4
ssg69
g1081
sg62
(lp1088
S'session_id_welcome=127.0.0.1-bfe1b2f3-6e5c-463b-835b-a9a9d2de689f; session_id_admin=127.0.0.1-d419fce3-c7a4-4912-81a7-01bc1ab17202; session_id_newsapp=127.0.0.1-d05dcd52-8177-4b76-8afc-d26144393d56'
p1089
asbasbasbag55
(g71
g57
NtRp1090
(dp1091
g60
(dp1092
sg69
g820
sg62
(lp1093
g55
(g76
g57
NtRp1094
(dp1095
g60
(dp1096
g80
g81
ssg69
g1090
sg62
(lp1097
S'http_host'
p1098
asbag55
(g76
g57
NtRp1099
(dp1100
g60
(dp1101
g87
g88
ssg69
g1090
sg62
(lp1102
S':'
asbag55
(g76
g57
NtRp1103
(dp1104
g60
(dp1105
sg69
g1090
sg62
(lp1106
g55
(g56
g57
NtRp1107
(dp1108
g60
(dp1109
g68
I4
ssg69
g1103
sg62
(lp1110
S'127.0.0.1:8000'
p1111
asbasbasbag55
(g71
g57
NtRp1112
(dp1113
g60
(dp1114
sg69
g820
sg62
(lp1115
g55
(g76
g57
NtRp1116
(dp1117
g60
(dp1118
g80
g81
ssg69
g1112
sg62
(lp1119
S'http_user_agent'
p1120
asbag55
(g76
g57
NtRp1121
(dp1122
g60
(dp1123
g87
g88
ssg69
g1112
sg62
(lp1124
S':'
asbag55
(g76
g57
NtRp1125
(dp1126
g60
(dp1127
sg69
g1112
sg62
(lp1128
g55
(g56
g57
NtRp1129
(dp1130
g60
(dp1131
g68
I4
ssg69
g1125
sg62
(lp1132
S'Mozilla/5.0 (X11; Linux x86_64) AppleWebKit/537.36 (KHTML, like Gecko) Chrome/42.0.2311.135 Safari/537.36'
p1133
asbasbasbag55
(g71
g57
NtRp1134
(dp1135
g60
(dp1136
sg69
g820
sg62
(lp1137
g55
(g76
g57
NtRp1138
(dp1139
g60
(dp1140
g80
g81
ssg69
g1134
sg62
(lp1141
S'is_jython'
p1142
asbag55
(g76
g57
NtRp1143
(dp1144
g60
(dp1145
g87
g88
ssg69
g1134
sg62
(lp1146
S':'
asbag55
(g76
g57
NtRp1147
(dp1148
g60
(dp1149
sg69
g1134
sg62
(lp1150
g55
(g56
g57
NtRp1151
(dp1152
g60
(dp1153
g68
I4
ssg69
g1147
sg62
(lp1154
g98
asbasbasbag55
(g71
g57
NtRp1155
(dp1156
g60
(dp1157
sg69
g820
sg62
(lp1158
g55
(g76
g57
NtRp1159
(dp1160
g60
(dp1161
g80
g81
ssg69
g1155
sg62
(lp1162
S'is_pypy'
p1163
asbag55
(g76
g57
NtRp1164
(dp1165
g60
(dp1166
g87
g88
ssg69
g1155
sg62
(lp1167
S':'
asbag55
(g76
g57
NtRp1168
(dp1169
g60
(dp1170
sg69
g1155
sg62
(lp1171
g55
(g56
g57
NtRp1172
(dp1173
g60
(dp1174
g68
I4
ssg69
g1168
sg62
(lp1175
g98
asbasbasbag55
(g71
g57
NtRp1176
(dp1177
g60
(dp1178
sg69
g820
sg62
(lp1179
g55
(g76
g57
NtRp1180
(dp1181
g60
(dp1182
g80
g81
ssg69
g1176
sg62
(lp1183
S'path_info'
p1184
asbag55
(g76
g57
NtRp1185
(dp1186
g60
(dp1187
g87
g88
ssg69
g1176
sg62
(lp1188
S':'
asbag55
(g76
g57
NtRp1189
(dp1190
g60
(dp1191
sg69
g1176
sg62
(lp1192
g55
(g56
g57
NtRp1193
(dp1194
g60
(dp1195
g68
I4
ssg69
g1189
sg62
(lp1196
S'/newsapp/default/trends'
p1197
asbasbasbag55
(g71
g57
NtRp1198
(dp1199
g60
(dp1200
sg69
g820
sg62
(lp1201
g55
(g76
g57
NtRp1202
(dp1203
g60
(dp1204
g80
g81
ssg69
g1198
sg62
(lp1205
S'query_string'
p1206
asbag55
(g76
g57
NtRp1207
(dp1208
g60
(dp1209
g87
g88
ssg69
g1198
sg62
(lp1210
S':'
asbag55
(g76
g57
NtRp1211
(dp1212
g60
(dp1213
sg69
g1198
sg62
(lp1214
g55
(g56
g57
NtRp1215
(dp1216
g60
(dp1217
g68
I4
ssg69
g1211
sg62
(lp1218
S''
asbasbasbag55
(g71
g57
NtRp1219
(dp1220
g60
(dp1221
sg69
g820
sg62
(lp1222
g55
(g76
g57
NtRp1223
(dp1224
g60
(dp1225
g80
g81
ssg69
g1219
sg62
(lp1226
S'remote_addr'
p1227
asbag55
(g76
g57
NtRp1228
(dp1229
g60
(dp1230
g87
g88
ssg69
g1219
sg62
(lp1231
S':'
asbag55
(g76
g57
NtRp1232
(dp1233
g60
(dp1234
sg69
g1219
sg62
(lp1235
g55
(g56
g57
NtRp1236
(dp1237
g60
(dp1238
g68
I4
ssg69
g1232
sg62
(lp1239
g188
asbasbasbag55
(g71
g57
NtRp1240
(dp1241
g60
(dp1242
sg69
g820
sg62
(lp1243
g55
(g76
g57
NtRp1244
(dp1245
g60
(dp1246
g80
g81
ssg69
g1240
sg62
(lp1247
S'remote_port'
p1248
asbag55
(g76
g57
NtRp1249
(dp1250
g60
(dp1251
g87
g88
ssg69
g1240
sg62
(lp1252
S':'
asbag55
(g76
g57
NtRp1253
(dp1254
g60
(dp1255
sg69
g1240
sg62
(lp1256
g55
(g56
g57
NtRp1257
(dp1258
g60
(dp1259
g68
I4
ssg69
g1253
sg62
(lp1260
S'50071'
p1261
asbasbasbag55
(g71
g57
NtRp1262
(dp1263
g60
(dp1264
sg69
g820
sg62
(lp1265
g55
(g76
g57
NtRp1266
(dp1267
g60
(dp1268
g80
g81
ssg69
g1262
sg62
(lp1269
S'request_method'
p1270
asbag55
(g76
g57
NtRp1271
(dp1272
g60
(dp1273
g87
g88
ssg69
g1262
sg62
(lp1274
S':'
asbag55
(g76
g57
NtRp1275
(dp1276
g60
(dp1277
sg69
g1262
sg62
(lp1278
g55
(g56
g57
NtRp1279
(dp1280
g60
(dp1281
g68
I4
ssg69
g1275
sg62
(lp1282
S'GET'
p1283
asbasbasbag55
(g71
g57
NtRp1284
(dp1285
g60
(dp1286
sg69
g820
sg62
(lp1287
g55
(g76
g57
NtRp1288
(dp1289
g60
(dp1290
g80
g81
ssg69
g1284
sg62
(lp1291
S'script_name'
p1292
asbag55
(g76
g57
NtRp1293
(dp1294
g60
(dp1295
g87
g88
ssg69
g1284
sg62
(lp1296
S':'
asbag55
(g76
g57
NtRp1297
(dp1298
g60
(dp1299
sg69
g1284
sg62
(lp1300
g55
(g56
g57
NtRp1301
(dp1302
g60
(dp1303
g68
I4
ssg69
g1297
sg62
(lp1304
S''
asbasbasbag55
(g71
g57
NtRp1305
(dp1306
g60
(dp1307
sg69
g820
sg62
(lp1308
g55
(g76
g57
NtRp1309
(dp1310
g60
(dp1311
g80
g81
ssg69
g1305
sg62
(lp1312
S'server_name'
p1313
asbag55
(g76
g57
NtRp1314
(dp1315
g60
(dp1316
g87
g88
ssg69
g1305
sg62
(lp1317
S':'
asbag55
(g76
g57
NtRp1318
(dp1319
g60
(dp1320
sg69
g1305
sg62
(lp1321
g55
(g56
g57
NtRp1322
(dp1323
g60
(dp1324
g68
I4
ssg69
g1318
sg62
(lp1325
S'pooja-HP-15-Notebook-PC'
p1326
asbasbasbag55
(g71
g57
NtRp1327
(dp1328
g60
(dp1329
sg69
g820
sg62
(lp1330
g55
(g76
g57
NtRp1331
(dp1332
g60
(dp1333
g80
g81
ssg69
g1327
sg62
(lp1334
S'server_port'
p1335
asbag55
(g76
g57
NtRp1336
(dp1337
g60
(dp1338
g87
g88
ssg69
g1327
sg62
(lp1339
S':'
asbag55
(g76
g57
NtRp1340
(dp1341
g60
(dp1342
sg69
g1327
sg62
(lp1343
g55
(g56
g57
NtRp1344
(dp1345
g60
(dp1346
g68
I4
ssg69
g1340
sg62
(lp1347
S'8000'
p1348
asbasbasbag55
(g71
g57
NtRp1349
(dp1350
g60
(dp1351
sg69
g820
sg62
(lp1352
g55
(g76
g57
NtRp1353
(dp1354
g60
(dp1355
g80
g81
ssg69
g1349
sg62
(lp1356
S'server_protocol'
p1357
asbag55
(g76
g57
NtRp1358
(dp1359
g60
(dp1360
g87
g88
ssg69
g1349
sg62
(lp1361
S':'
asbag55
(g76
g57
NtRp1362
(dp1363
g60
(dp1364
sg69
g1349
sg62
(lp1365
g55
(g56
g57
NtRp1366
(dp1367
g60
(dp1368
g68
I4
ssg69
g1362
sg62
(lp1369
S'HTTP/1.1'
p1370
asbasbasbag55
(g71
g57
NtRp1371
(dp1372
g60
(dp1373
sg69
g820
sg62
(lp1374
g55
(g76
g57
NtRp1375
(dp1376
g60
(dp1377
g80
g81
ssg69
g1371
sg62
(lp1378
S'server_software'
p1379
asbag55
(g76
g57
NtRp1380
(dp1381
g60
(dp1382
g87
g88
ssg69
g1371
sg62
(lp1383
S':'
asbag55
(g76
g57
NtRp1384
(dp1385
g60
(dp1386
sg69
g1371
sg62
(lp1387
g55
(g56
g57
NtRp1388
(dp1389
g60
(dp1390
g68
I4
ssg69
g1384
sg62
(lp1391
S'Rocket 1.2.4'
p1392
asbasbasbag55
(g71
g57
NtRp1393
(dp1394
g60
(dp1395
sg69
g820
sg62
(lp1396
g55
(g76
g57
NtRp1397
(dp1398
g60
(dp1399
g80
g81
ssg69
g1393
sg62
(lp1400
S'web2py_crontype'
p1401
asbag55
(g76
g57
NtRp1402
(dp1403
g60
(dp1404
g87
g88
ssg69
g1393
sg62
(lp1405
S':'
asbag55
(g76
g57
NtRp1406
(dp1407
g60
(dp1408
sg69
g1393
sg62
(lp1409
g55
(g56
g57
NtRp1410
(dp1411
g60
(dp1412
g68
I4
ssg69
g1406
sg62
(lp1413
S'hard'
p1414
asbasbasbag55
(g71
g57
NtRp1415
(dp1416
g60
(dp1417
sg69
g820
sg62
(lp1418
g55
(g76
g57
NtRp1419
(dp1420
g60
(dp1421
g80
g81
ssg69
g1415
sg62
(lp1422
S'web2py_path'
p1423
asbag55
(g76
g57
NtRp1424
(dp1425
g60
(dp1426
g87
g88
ssg69
g1415
sg62
(lp1427
S':'
asbag55
(g76
g57
NtRp1428
(dp1429
g60
(dp1430
sg69
g1415
sg62
(lp1431
g55
(g56
g57
NtRp1432
(dp1433
g60
(dp1434
g68
I4
ssg69
g1428
sg62
(lp1435
g867
asbasbasbag55
(g71
g57
NtRp1436
(dp1437
g60
(dp1438
sg69
g820
sg62
(lp1439
g55
(g76
g57
NtRp1440
(dp1441
g60
(dp1442
g80
g81
ssg69
g1436
sg62
(lp1443
S'web2py_version'
p1444
asbag55
(g76
g57
NtRp1445
(dp1446
g60
(dp1447
g87
g88
ssg69
g1436
sg62
(lp1448
S':'
asbag55
(g76
g57
NtRp1449
(dp1450
g60
(dp1451
sg69
g1436
sg62
(lp1452
g55
(g56
g57
NtRp1453
(dp1454
g60
(dp1455
g68
I4
ssg69
g1449
sg62
(lp1456
g55
(g64
g57
NtRp1457
(dp1458
g60
(dp1459
g68
I3
ssg69
Nsg62
(lp1460
g55
(g71
g57
NtRp1461
(dp1462
g60
(dp1463
sg69
g1457
sg62
(lp1464
g55
(g76
g57
NtRp1465
(dp1466
g60
(dp1467
sg69
g1461
sg62
(lp1468
g55
(g56
g57
NtRp1469
(dp1470
g60
(dp1471
g68
I3
ssg69
g1465
sg62
(lp1472
S'1'
asbasbasbag55
(g71
g57
NtRp1473
(dp1474
g60
(dp1475
sg69
g1457
sg62
(lp1476
g55
(g76
g57
NtRp1477
(dp1478
g60
(dp1479
sg69
g1473
sg62
(lp1480
g55
(g56
g57
NtRp1481
(dp1482
g60
(dp1483
g68
I3
ssg69
g1477
sg62
(lp1484
S'99'
p1485
asbasbasbag55
(g71
g57
NtRp1486
(dp1487
g60
(dp1488
sg69
g1457
sg62
(lp1489
g55
(g76
g57
NtRp1490
(dp1491
g60
(dp1492
sg69
g1486
sg62
(lp1493
g55
(g56
g57
NtRp1494
(dp1495
g60
(dp1496
g68
I3
ssg69
g1490
sg62
(lp1497
S'7'
asbasbasbag55
(g71
g57
NtRp1498
(dp1499
g60
(dp1500
sg69
g1457
sg62
(lp1501
g55
(g76
g57
NtRp1502
(dp1503
g60
(dp1504
sg69
g1498
sg62
(lp1505
g55
(g56
g57
NtRp1506
(dp1507
g60
(dp1508
g68
I3
ssg69
g1502
sg62
(lp1509
S'datetime.datetime(2012, 3, 4, 22, 12, 8)'
p1510
asbasbasbag55
(g71
g57
NtRp1511
(dp1512
g60
(dp1513
sg69
g1457
sg62
(lp1514
g55
(g76
g57
NtRp1515
(dp1516
g60
(dp1517
sg69
g1511
sg62
(lp1518
g55
(g56
g57
NtRp1519
(dp1520
g60
(dp1521
g68
I3
ssg69
g1515
sg62
(lp1522
S'stable'
p1523
asbasbasbasbasbasbasbag55
(g71
g57
NtRp1524
(dp1525
g60
(dp1526
sg69
g820
sg62
(lp1527
g55
(g76
g57
NtRp1528
(dp1529
g60
(dp1530
g80
g81
ssg69
g1524
sg62
(lp1531
S'wsgi_errors'
p1532
asbag55
(g76
g57
NtRp1533
(dp1534
g60
(dp1535
g87
g88
ssg69
g1524
sg62
(lp1536
S':'
asbag55
(g76
g57
NtRp1537
(dp1538
g60
(dp1539
sg69
g1524
sg62
(lp1540
g55
(g56
g57
NtRp1541
(dp1542
g60
(dp1543
g68
I4
ssg69
g1537
sg62
(lp1544
S"<open file '<stderr>', mode 'w' at 0x7f77071f91e0>"
p1545
asbasbasbag55
(g71
g57
NtRp1546
(dp1547
g60
(dp1548
sg69
g820
sg62
(lp1549
g55
(g76
g57
NtRp1550
(dp1551
g60
(dp1552
g80
g81
ssg69
g1546
sg62
(lp1553
S'wsgi_file_wrapper'
p1554
asbag55
(g76
g57
NtRp1555
(dp1556
g60
(dp1557
g87
g88
ssg69
g1546
sg62
(lp1558
S':'
asbag55
(g76
g57
NtRp1559
(dp1560
g60
(dp1561
sg69
g1546
sg62
(lp1562
g55
(g56
g57
NtRp1563
(dp1564
g60
(dp1565
g68
I4
ssg69
g1559
sg62
(lp1566
S'<class wsgiref.util.FileWrapper at 0x7f7703156e88>'
p1567
asbasbasbag55
(g71
g57
NtRp1568
(dp1569
g60
(dp1570
sg69
g820
sg62
(lp1571
g55
(g76
g57
NtRp1572
(dp1573
g60
(dp1574
g80
g81
ssg69
g1568
sg62
(lp1575
S'wsgi_input'
p1576
asbag55
(g76
g57
NtRp1577
(dp1578
g60
(dp1579
g87
g88
ssg69
g1568
sg62
(lp1580
S':'
asbag55
(g76
g57
NtRp1581
(dp1582
g60
(dp1583
sg69
g1568
sg62
(lp1584
g55
(g56
g57
NtRp1585
(dp1586
g60
(dp1587
g68
I4
ssg69
g1581
sg62
(lp1588
S'<socket._fileobject object at 0x7f77019b4dd0>'
p1589
asbasbasbag55
(g71
g57
NtRp1590
(dp1591
g60
(dp1592
sg69
g820
sg62
(lp1593
g55
(g76
g57
NtRp1594
(dp1595
g60
(dp1596
g80
g81
ssg69
g1590
sg62
(lp1597
S'wsgi_multiprocess'
p1598
asbag55
(g76
g57
NtRp1599
(dp1600
g60
(dp1601
g87
g88
ssg69
g1590
sg62
(lp1602
S':'
asbag55
(g76
g57
NtRp1603
(dp1604
g60
(dp1605
sg69
g1590
sg62
(lp1606
g55
(g56
g57
NtRp1607
(dp1608
g60
(dp1609
g68
I4
ssg69
g1603
sg62
(lp1610
g98
asbasbasbag55
(g71
g57
NtRp1611
(dp1612
g60
(dp1613
sg69
g820
sg62
(lp1614
g55
(g76
g57
NtRp1615
(dp1616
g60
(dp1617
g80
g81
ssg69
g1611
sg62
(lp1618
S'wsgi_multithread'
p1619
asbag55
(g76
g57
NtRp1620
(dp1621
g60
(dp1622
g87
g88
ssg69
g1611
sg62
(lp1623
S':'
asbag55
(g76
g57
NtRp1624
(dp1625
g60
(dp1626
sg69
g1611
sg62
(lp1627
g55
(g56
g57
NtRp1628
(dp1629
g60
(dp1630
g68
I4
ssg69
g1624
sg62
(lp1631
S'True'
p1632
asbasbasbag55
(g71
g57
NtRp1633
(dp1634
g60
(dp1635
sg69
g820
sg62
(lp1636
g55
(g76
g57
NtRp1637
(dp1638
g60
(dp1639
g80
g81
ssg69
g1633
sg62
(lp1640
S'wsgi_run_once'
p1641
asbag55
(g76
g57
NtRp1642
(dp1643
g60
(dp1644
g87
g88
ssg69
g1633
sg62
(lp1645
S':'
asbag55
(g76
g57
NtRp1646
(dp1647
g60
(dp1648
sg69
g1633
sg62
(lp1649
g55
(g56
g57
NtRp1650
(dp1651
g60
(dp1652
g68
I4
ssg69
g1646
sg62
(lp1653
g98
asbasbasbag55
(g71
g57
NtRp1654
(dp1655
g60
(dp1656
sg69
g820
sg62
(lp1657
g55
(g76
g57
NtRp1658
(dp1659
g60
(dp1660
g80
g81
ssg69
g1654
sg62
(lp1661
S'wsgi_url_scheme'
p1662
asbag55
(g76
g57
NtRp1663
(dp1664
g60
(dp1665
g87
g88
ssg69
g1654
sg62
(lp1666
S':'
asbag55
(g76
g57
NtRp1667
(dp1668
g60
(dp1669
sg69
g1654
sg62
(lp1670
g55
(g56
g57
NtRp1671
(dp1672
g60
(dp1673
g68
I4
ssg69
g1667
sg62
(lp1674
S'http'
p1675
asbasbasbag55
(g71
g57
NtRp1676
(dp1677
g60
(dp1678
sg69
g820
sg62
(lp1679
g55
(g76
g57
NtRp1680
(dp1681
g60
(dp1682
g80
g81
ssg69
g1676
sg62
(lp1683
S'wsgi_version'
p1684
asbag55
(g76
g57
NtRp1685
(dp1686
g60
(dp1687
g87
g88
ssg69
g1676
sg62
(lp1688
S':'
asbag55
(g76
g57
NtRp1689
(dp1690
g60
(dp1691
sg69
g1676
sg62
(lp1692
g55
(g56
g57
NtRp1693
(dp1694
g60
(dp1695
g68
I4
ssg69
g1689
sg62
(lp1696
g55
(g64
g57
NtRp1697
(dp1698
g60
(dp1699
g68
I3
ssg69
Nsg62
(lp1700
g55
(g71
g57
NtRp1701
(dp1702
g60
(dp1703
sg69
g1697
sg62
(lp1704
g55
(g76
g57
NtRp1705
(dp1706
g60
(dp1707
sg69
g1701
sg62
(lp1708
g55
(g56
g57
NtRp1709
(dp1710
g60
(dp1711
g68
I3
ssg69
g1705
sg62
(lp1712
S'1'
asbasbasbag55
(g71
g57
NtRp1713
(dp1714
g60
(dp1715
sg69
g1697
sg62
(lp1716
g55
(g76
g57
NtRp1717
(dp1718
g60
(dp1719
sg69
g1713
sg62
(lp1720
g55
(g56
g57
NtRp1721
(dp1722
g60
(dp1723
g68
I3
ssg69
g1717
sg62
(lp1724
S'0'
asbasbasbasbasbasbasbasbasbasbasbag55
(g71
g57
NtRp1725
(dp1726
g60
(dp1727
sg69
g65
sg62
(lp1728
g55
(g76
g57
NtRp1729
(dp1730
g60
(dp1731
g80
g81
ssg69
g1725
sg62
(lp1732
S'extension'
p1733
asbag55
(g76
g57
NtRp1734
(dp1735
g60
(dp1736
g87
g88
ssg69
g1725
sg62
(lp1737
S':'
asbag55
(g76
g57
NtRp1738
(dp1739
g60
(dp1740
sg69
g1725
sg62
(lp1741
g55
(g56
g57
NtRp1742
(dp1743
g60
(dp1744
g68
I5
ssg69
g1738
sg62
(lp1745
S'html'
p1746
asbasbasbag55
(g71
g57
NtRp1747
(dp1748
g60
(dp1749
sg69
g65
sg62
(lp1750
g55
(g76
g57
NtRp1751
(dp1752
g60
(dp1753
g80
g81
ssg69
g1747
sg62
(lp1754
S'folder'
p1755
asbag55
(g76
g57
NtRp1756
(dp1757
g60
(dp1758
g87
g88
ssg69
g1747
sg62
(lp1759
S':'
asbag55
(g76
g57
NtRp1760
(dp1761
g60
(dp1762
sg69
g1747
sg62
(lp1763
g55
(g56
g57
NtRp1764
(dp1765
g60
(dp1766
g68
I5
ssg69
g1760
sg62
(lp1767
S'/home/pooja/web2py/applications/newsapp/'
p1768
asbasbasbag55
(g71
g57
NtRp1769
(dp1770
g60
(dp1771
sg69
g65
sg62
(lp1772
g55
(g76
g57
NtRp1773
(dp1774
g60
(dp1775
g80
g81
ssg69
g1769
sg62
(lp1776
S'function'
p1777
asbag55
(g76
g57
NtRp1778
(dp1779
g60
(dp1780
g87
g88
ssg69
g1769
sg62
(lp1781
S':'
asbag55
(g76
g57
NtRp1782
(dp1783
g60
(dp1784
sg69
g1769
sg62
(lp1785
g55
(g56
g57
NtRp1786
(dp1787
g60
(dp1788
g68
I5
ssg69
g1782
sg62
(lp1789
S'trends'
p1790
asbasbasbag55
(g71
g57
NtRp1791
(dp1792
g60
(dp1793
sg69
g65
sg62
(lp1794
g55
(g76
g57
NtRp1795
(dp1796
g60
(dp1797
g80
g81
ssg69
g1791
sg62
(lp1798
S'get_vars'
p1799
asbag55
(g76
g57
NtRp1800
(dp1801
g60
(dp1802
g87
g88
ssg69
g1791
sg62
(lp1803
S':'
asbag55
(g76
g57
NtRp1804
(dp1805
g60
(dp1806
sg69
g1791
sg62
(lp1807
g55
(g56
g57
NtRp1808
(dp1809
g60
(dp1810
g68
I5
ssg69
g1804
sg62
(lp1811
g55
(g64
g57
NtRp1812
(dp1813
g60
(dp1814
g68
I4
ssg69
Nsg62
(lp1815
sbasbasbasbag55
(g71
g57
NtRp1816
(dp1817
g60
(dp1818
sg69
g65
sg62
(lp1819
g55
(g76
g57
NtRp1820
(dp1821
g60
(dp1822
g80
g81
ssg69
g1816
sg62
(lp1823
S'global_settings'
p1824
asbag55
(g76
g57
NtRp1825
(dp1826
g60
(dp1827
g87
g88
ssg69
g1816
sg62
(lp1828
S':'
asbag55
(g76
g57
NtRp1829
(dp1830
g60
(dp1831
sg69
g1816
sg62
(lp1832
g55
(g56
g57
NtRp1833
(dp1834
g60
(dp1835
g68
I5
ssg69
g1829
sg62
(lp1836
g55
(g64
g57
NtRp1837
(dp1838
g60
(dp1839
g68
I4
ssg69
Nsg62
(lp1840
g55
(g71
g57
NtRp1841
(dp1842
g60
(dp1843
sg69
g1837
sg62
(lp1844
g55
(g76
g57
NtRp1845
(dp1846
g60
(dp1847
g80
g81
ssg69
g1841
sg62
(lp1848
g832
asbag55
(g76
g57
NtRp1849
(dp1850
g60
(dp1851
g87
g88
ssg69
g1841
sg62
(lp1852
S':'
asbag55
(g76
g57
NtRp1853
(dp1854
g60
(dp1855
sg69
g1841
sg62
(lp1856
g55
(g56
g57
NtRp1857
(dp1858
g60
(dp1859
g68
I4
ssg69
g1853
sg62
(lp1860
S"set(['/home/pooja/web2py/applications/admin/', '/home/pooja/web2py/applications/newsapp/', '/home/pooja/web2py/applications/welcome/'])"
p1861
asbasbasbag55
(g71
g57
NtRp1862
(dp1863
g60
(dp1864
sg69
g1837
sg62
(lp1865
g55
(g76
g57
NtRp1866
(dp1867
g60
(dp1868
g80
g81
ssg69
g1862
sg62
(lp1869
g854
asbag55
(g76
g57
NtRp1870
(dp1871
g60
(dp1872
g87
g88
ssg69
g1862
sg62
(lp1873
S':'
asbag55
(g76
g57
NtRp1874
(dp1875
g60
(dp1876
sg69
g1862
sg62
(lp1877
g55
(g56
g57
NtRp1878
(dp1879
g60
(dp1880
g68
I4
ssg69
g1874
sg62
(lp1881
g867
asbasbasbag55
(g71
g57
NtRp1882
(dp1883
g60
(dp1884
sg69
g1837
sg62
(lp1885
g55
(g76
g57
NtRp1886
(dp1887
g60
(dp1888
g80
g81
ssg69
g1882
sg62
(lp1889
g876
asbag55
(g76
g57
NtRp1890
(dp1891
g60
(dp1892
g87
g88
ssg69
g1882
sg62
(lp1893
S':'
asbag55
(g76
g57
NtRp1894
(dp1895
g60
(dp1896
sg69
g1882
sg62
(lp1897
g55
(g56
g57
NtRp1898
(dp1899
g60
(dp1900
g68
I4
ssg69
g1894
sg62
(lp1901
g55
(g64
g57
NtRp1902
(dp1903
g60
(dp1904
g68
I3
ssg69
Nsg62
(lp1905
sbasbasbasbag55
(g71
g57
NtRp1906
(dp1907
g60
(dp1908
sg69
g1837
sg62
(lp1909
g55
(g76
g57
NtRp1910
(dp1911
g60
(dp1912
g80
g81
ssg69
g1906
sg62
(lp1913
g901
asbag55
(g76
g57
NtRp1914
(dp1915
g60
(dp1916
g87
g88
ssg69
g1906
sg62
(lp1917
S':'
asbag55
(g76
g57
NtRp1918
(dp1919
g60
(dp1920
sg69
g1906
sg62
(lp1921
g55
(g56
g57
NtRp1922
(dp1923
g60
(dp1924
g68
I4
ssg69
g1918
sg62
(lp1925
S"<Values at 0x7f77019dce18: {'verbose': False, 'ip': '127.0.0.1', 'shutdown_timeout': 5, 'taskbar': False, 'nocron': False, 'pid_filename': 'httpserver.pid', 'maxthreads': None, 'softcron': False, 'server_name': 'pooja-HP-15-Notebook-PC', 'bpython': False, 'nogui': False, 'port': 8000, 'extcron': False, 'debuglevel': 30, 'test': None, 'folder': '/home/pooja/web2py', 'config': '', 'import_models': False, 'winservice': '', 'shell': None, 'run': '', 'log_filename': 'httpserver.log', 'args': [''], 'socket_timeout': 5, 'ssl_ca_certificate': None, 'scheduler': None, 'profiler_filename': None, 'ssl_private_key': '', 'password': '<ask>', 'request_queue_size': 5, 'ssl_certificate': '', 'cronjob': False, 'numthreads': None, 'quiet': False, 'interfaces': None, 'minthreads': None, 'timeout': 10, 'plain': False, 'nobanner': False}>"
p1926
asbasbasbag55
(g71
g57
NtRp1927
(dp1928
g60
(dp1929
sg69
g1837
sg62
(lp1930
g55
(g76
g57
NtRp1931
(dp1932
g60
(dp1933
g80
g81
ssg69
g1927
sg62
(lp1934
g923
asbag55
(g76
g57
NtRp1935
(dp1936
g60
(dp1937
g87
g88
ssg69
g1927
sg62
(lp1938
S':'
asbag55
(g76
g57
NtRp1939
(dp1940
g60
(dp1941
sg69
g1927
sg62
(lp1942
g55
(g56
g57
NtRp1943
(dp1944
g60
(dp1945
g68
I4
ssg69
g1939
sg62
(lp1946
S'set([])'
p1947
asbasbasbag55
(g71
g57
NtRp1948
(dp1949
g60
(dp1950
sg69
g1837
sg62
(lp1951
g55
(g76
g57
NtRp1952
(dp1953
g60
(dp1954
g80
g81
ssg69
g1948
sg62
(lp1955
g945
asbag55
(g76
g57
NtRp1956
(dp1957
g60
(dp1958
g87
g88
ssg69
g1948
sg62
(lp1959
S':'
asbag55
(g76
g57
NtRp1960
(dp1961
g60
(dp1962
sg69
g1948
sg62
(lp1963
g55
(g56
g57
NtRp1964
(dp1965
g60
(dp1966
g68
I4
ssg69
g1960
sg62
(lp1967
g98
asbasbasbag55
(g71
g57
NtRp1968
(dp1969
g60
(dp1970
sg69
g1837
sg62
(lp1971
g55
(g76
g57
NtRp1972
(dp1973
g60
(dp1974
g80
g81
ssg69
g1968
sg62
(lp1975
g966
asbag55
(g76
g57
NtRp1976
(dp1977
g60
(dp1978
g87
g88
ssg69
g1968
sg62
(lp1979
S':'
asbag55
(g76
g57
NtRp1980
(dp1981
g60
(dp1982
sg69
g1968
sg62
(lp1983
g55
(g56
g57
NtRp1984
(dp1985
g60
(dp1986
g68
I4
ssg69
g1980
sg62
(lp1987
g979
asbasbasbag55
(g71
g57
NtRp1988
(dp1989
g60
(dp1990
sg69
g1837
sg62
(lp1991
g55
(g76
g57
NtRp1992
(dp1993
g60
(dp1994
g80
g81
ssg69
g1988
sg62
(lp1995
g1142
asbag55
(g76
g57
NtRp1996
(dp1997
g60
(dp1998
g87
g88
ssg69
g1988
sg62
(lp1999
S':'
asbag55
(g76
g57
NtRp2000
(dp2001
g60
(dp2002
sg69
g1988
sg62
(lp2003
g55
(g56
g57
NtRp2004
(dp2005
g60
(dp2006
g68
I4
ssg69
g2000
sg62
(lp2007
g98
asbasbasbag55
(g71
g57
NtRp2008
(dp2009
g60
(dp2010
sg69
g1837
sg62
(lp2011
g55
(g76
g57
NtRp2012
(dp2013
g60
(dp2014
g80
g81
ssg69
g2008
sg62
(lp2015
g1163
asbag55
(g76
g57
NtRp2016
(dp2017
g60
(dp2018
g87
g88
ssg69
g2008
sg62
(lp2019
S':'
asbag55
(g76
g57
NtRp2020
(dp2021
g60
(dp2022
sg69
g2008
sg62
(lp2023
g55
(g56
g57
NtRp2024
(dp2025
g60
(dp2026
g68
I4
ssg69
g2020
sg62
(lp2027
g98
asbasbasbag55
(g71
g57
NtRp2028
(dp2029
g60
(dp2030
sg69
g1837
sg62
(lp2031
g55
(g76
g57
NtRp2032
(dp2033
g60
(dp2034
g80
g81
ssg69
g2028
sg62
(lp2035
g1401
asbag55
(g76
g57
NtRp2036
(dp2037
g60
(dp2038
g87
g88
ssg69
g2028
sg62
(lp2039
S':'
asbag55
(g76
g57
NtRp2040
(dp2041
g60
(dp2042
sg69
g2028
sg62
(lp2043
g55
(g56
g57
NtRp2044
(dp2045
g60
(dp2046
g68
I4
ssg69
g2040
sg62
(lp2047
g1414
asbasbasbag55
(g71
g57
NtRp2048
(dp2049
g60
(dp2050
sg69
g1837
sg62
(lp2051
g55
(g76
g57
NtRp2052
(dp2053
g60
(dp2054
g80
g81
ssg69
g2048
sg62
(lp2055
g1444
asbag55
(g76
g57
NtRp2056
(dp2057
g60
(dp2058
g87
g88
ssg69
g2048
sg62
(lp2059
S':'
asbag55
(g76
g57
NtRp2060
(dp2061
g60
(dp2062
sg69
g2048
sg62
(lp2063
g55
(g56
g57
NtRp2064
(dp2065
g60
(dp2066
g68
I4
ssg69
g2060
sg62
(lp2067
g55
(g64
g57
NtRp2068
(dp2069
g60
(dp2070
g68
I3
ssg69
Nsg62
(lp2071
g55
(g71
g57
NtRp2072
(dp2073
g60
(dp2074
sg69
g2068
sg62
(lp2075
g55
(g76
g57
NtRp2076
(dp2077
g60
(dp2078
sg69
g2072
sg62
(lp2079
g55
(g56
g57
NtRp2080
(dp2081
g60
(dp2082
g68
I3
ssg69
g2076
sg62
(lp2083
S'1'
asbasbasbag55
(g71
g57
NtRp2084
(dp2085
g60
(dp2086
sg69
g2068
sg62
(lp2087
g55
(g76
g57
NtRp2088
(dp2089
g60
(dp2090
sg69
g2084
sg62
(lp2091
g55
(g56
g57
NtRp2092
(dp2093
g60
(dp2094
g68
I3
ssg69
g2088
sg62
(lp2095
S'99'
p2096
asbasbasbag55
(g71
g57
NtRp2097
(dp2098
g60
(dp2099
sg69
g2068
sg62
(lp2100
g55
(g76
g57
NtRp2101
(dp2102
g60
(dp2103
sg69
g2097
sg62
(lp2104
g55
(g56
g57
NtRp2105
(dp2106
g60
(dp2107
g68
I3
ssg69
g2101
sg62
(lp2108
S'7'
asbasbasbag55
(g71
g57
NtRp2109
(dp2110
g60
(dp2111
sg69
g2068
sg62
(lp2112
g55
(g76
g57
NtRp2113
(dp2114
g60
(dp2115
sg69
g2109
sg62
(lp2116
g55
(g56
g57
NtRp2117
(dp2118
g60
(dp2119
g68
I3
ssg69
g2113
sg62
(lp2120
S'datetime.datetime(2012, 3, 4, 22, 12, 8)'
p2121
asbasbasbag55
(g71
g57
NtRp2122
(dp2123
g60
(dp2124
sg69
g2068
sg62
(lp2125
g55
(g76
g57
NtRp2126
(dp2127
g60
(dp2128
sg69
g2122
sg62
(lp2129
g55
(g56
g57
NtRp2130
(dp2131
g60
(dp2132
g68
I3
ssg69
g2126
sg62
(lp2133
g1523
asbasbasbasbasbasbasbasbasbasbasbag55
(g71
g57
NtRp2134
(dp2135
g60
(dp2136
sg69
g65
sg62
(lp2137
g55
(g76
g57
NtRp2138
(dp2139
g60
(dp2140
g80
g81
ssg69
g2134
sg62
(lp2141
S'is_https'
p2142
asbag55
(g76
g57
NtRp2143
(dp2144
g60
(dp2145
g87
g88
ssg69
g2134
sg62
(lp2146
S':'
asbag55
(g76
g57
NtRp2147
(dp2148
g60
(dp2149
sg69
g2134
sg62
(lp2150
g55
(g56
g57
NtRp2151
(dp2152
g60
(dp2153
g68
I5
ssg69
g2147
sg62
(lp2154
g98
asbasbasbag55
(g71
g57
NtRp2155
(dp2156
g60
(dp2157
sg69
g65
sg62
(lp2158
g55
(g76
g57
NtRp2159
(dp2160
g60
(dp2161
g80
g81
ssg69
g2155
sg62
(lp2162
S'is_local'
p2163
asbag55
(g76
g57
NtRp2164
(dp2165
g60
(dp2166
g87
g88
ssg69
g2155
sg62
(lp2167
S':'
asbag55
(g76
g57
NtRp2168
(dp2169
g60
(dp2170
sg69
g2155
sg62
(lp2171
g55
(g56
g57
NtRp2172
(dp2173
g60
(dp2174
g68
I5
ssg69
g2168
sg62
(lp2175
g1632
asbasbasbag55
(g71
g57
NtRp2176
(dp2177
g60
(dp2178
sg69
g65
sg62
(lp2179
g55
(g76
g57
NtRp2180
(dp2181
g60
(dp2182
g80
g81
ssg69
g2176
sg62
(lp2183
S'is_restful'
p2184
asbag55
(g76
g57
NtRp2185
(dp2186
g60
(dp2187
g87
g88
ssg69
g2176
sg62
(lp2188
S':'
asbag55
(g76
g57
NtRp2189
(dp2190
g60
(dp2191
sg69
g2176
sg62
(lp2192
g55
(g56
g57
NtRp2193
(dp2194
g60
(dp2195
g68
I5
ssg69
g2189
sg62
(lp2196
g98
asbasbasbag55
(g71
g57
NtRp2197
(dp2198
g60
(dp2199
sg69
g65
sg62
(lp2200
g55
(g76
g57
NtRp2201
(dp2202
g60
(dp2203
g80
g81
ssg69
g2197
sg62
(lp2204
S'now'
p2205
asbag55
(g76
g57
NtRp2206
(dp2207
g60
(dp2208
g87
g88
ssg69
g2197
sg62
(lp2209
S':'
asbag55
(g76
g57
NtRp2210
(dp2211
g60
(dp2212
sg69
g2197
sg62
(lp2213
g55
(g56
g57
NtRp2214
(dp2215
g60
(dp2216
g68
I5
ssg69
g2210
sg62
(lp2217
S'datetime.datetime(2015, 5, 9, 19, 36, 37, 735614)'
p2218
asbasbasbag55
(g71
g57
NtRp2219
(dp2220
g60
(dp2221
sg69
g65
sg62
(lp2222
g55
(g76
g57
NtRp2223
(dp2224
g60
(dp2225
g80
g81
ssg69
g2219
sg62
(lp2226
S'post_vars'
p2227
asbag55
(g76
g57
NtRp2228
(dp2229
g60
(dp2230
g87
g88
ssg69
g2219
sg62
(lp2231
S':'
asbag55
(g76
g57
NtRp2232
(dp2233
g60
(dp2234
sg69
g2219
sg62
(lp2235
g55
(g56
g57
NtRp2236
(dp2237
g60
(dp2238
g68
I5
ssg69
g2232
sg62
(lp2239
g55
(g64
g57
NtRp2240
(dp2241
g60
(dp2242
g68
I4
ssg69
Nsg62
(lp2243
sbasbasbasbag55
(g71
g57
NtRp2244
(dp2245
g60
(dp2246
sg69
g65
sg62
(lp2247
g55
(g76
g57
NtRp2248
(dp2249
g60
(dp2250
g80
g81
ssg69
g2244
sg62
(lp2251
S'url'
p2252
asbag55
(g76
g57
NtRp2253
(dp2254
g60
(dp2255
g87
g88
ssg69
g2244
sg62
(lp2256
S':'
asbag55
(g76
g57
NtRp2257
(dp2258
g60
(dp2259
sg69
g2244
sg62
(lp2260
g55
(g56
g57
NtRp2261
(dp2262
g60
(dp2263
g68
I5
ssg69
g2257
sg62
(lp2264
S'/newsapp/default/trends'
p2265
asbasbasbag55
(g71
g57
NtRp2266
(dp2267
g60
(dp2268
sg69
g65
sg62
(lp2269
g55
(g76
g57
NtRp2270
(dp2271
g60
(dp2272
g80
g81
ssg69
g2266
sg62
(lp2273
S'utcnow'
p2274
asbag55
(g76
g57
NtRp2275
(dp2276
g60
(dp2277
g87
g88
ssg69
g2266
sg62
(lp2278
S':'
asbag55
(g76
g57
NtRp2279
(dp2280
g60
(dp2281
sg69
g2266
sg62
(lp2282
g55
(g56
g57
NtRp2283
(dp2284
g60
(dp2285
g68
I5
ssg69
g2279
sg62
(lp2286
S'datetime.datetime(2015, 5, 9, 14, 6, 37, 735653)'
p2287
asbasbasbag55
(g71
g57
NtRp2288
(dp2289
g60
(dp2290
sg69
g65
sg62
(lp2291
g55
(g76
g57
NtRp2292
(dp2293
g60
(dp2294
g80
g81
ssg69
g2288
sg62
(lp2295
S'uuid'
p2296
asbag55
(g76
g57
NtRp2297
(dp2298
g60
(dp2299
g87
g88
ssg69
g2288
sg62
(lp2300
S':'
asbag55
(g76
g57
NtRp2301
(dp2302
g60
(dp2303
sg69
g2288
sg62
(lp2304
g55
(g56
g57
NtRp2305
(dp2306
g60
(dp2307
g68
I5
ssg69
g2301
sg62
(lp2308
S'newsapp/127.0.0.1.2015-05-09.19-36-37.f0b91b6d-25c2-42bd-b7ec-3e038a0e938e'
p2309
asbasbasbag55
(g71
g57
NtRp2310
(dp2311
g60
(dp2312
sg69
g65
sg62
(lp2313
g55
(g76
g57
NtRp2314
(dp2315
g60
(dp2316
g80
g81
ssg69
g2310
sg62
(lp2317
S'vars'
p2318
asbag55
(g76
g57
NtRp2319
(dp2320
g60
(dp2321
g87
g88
ssg69
g2310
sg62
(lp2322
S':'
asbag55
(g76
g57
NtRp2323
(dp2324
g60
(dp2325
sg69
g2310
sg62
(lp2326
g55
(g56
g57
NtRp2327
(dp2328
g60
(dp2329
g68
I5
ssg69
g2323
sg62
(lp2330
g55
(g64
g57
NtRp2331
(dp2332
g60
(dp2333
g68
I4
ssg69
Nsg62
(lp2334
sbasbasbasbag55
(g71
g57
NtRp2335
(dp2336
g60
(dp2337
sg69
g65
sg62
(lp2338
g55
(g76
g57
NtRp2339
(dp2340
g60
(dp2341
g80
g81
ssg69
g2335
sg62
(lp2342
S'wsgi'
p2343
asbag55
(g76
g57
NtRp2344
(dp2345
g60
(dp2346
g87
g88
ssg69
g2335
sg62
(lp2347
S':'
asbag55
(g76
g57
NtRp2348
(dp2349
g60
(dp2350
sg69
g2335
sg62
(lp2351
g55
(g56
g57
NtRp2352
(dp2353
g60
(dp2354
g68
I5
ssg69
g2348
sg62
(lp2355
g55
(g64
g57
NtRp2356
(dp2357
g60
(dp2358
g68
I4
ssg69
Nsg62
(lp2359
g55
(g71
g57
NtRp2360
(dp2361
g60
(dp2362
sg69
g2356
sg62
(lp2363
g55
(g76
g57
NtRp2364
(dp2365
g60
(dp2366
g80
g81
ssg69
g2360
sg62
(lp2367
S'environ'
p2368
asbag55
(g76
g57
NtRp2369
(dp2370
g60
(dp2371
g87
g88
ssg69
g2360
sg62
(lp2372
S':'
asbag55
(g76
g57
NtRp2373
(dp2374
g60
(dp2375
sg69
g2360
sg62
(lp2376
g55
(g56
g57
NtRp2377
(dp2378
g60
(dp2379
g68
I4
ssg69
g2373
sg62
(lp2380
g55
(g64
g57
NtRp2381
(dp2382
g60
(dp2383
g68
I3
ssg69
Nsg62
(lp2384
g55
(g71
g57
NtRp2385
(dp2386
g60
(dp2387
sg69
g2381
sg62
(lp2388
g55
(g76
g57
NtRp2389
(dp2390
g60
(dp2391
g80
g81
ssg69
g2385
sg62
(lp2392
S'HTTP_ACCEPT'
p2393
asbag55
(g76
g57
NtRp2394
(dp2395
g60
(dp2396
g87
g88
ssg69
g2385
sg62
(lp2397
S':'
asbag55
(g76
g57
NtRp2398
(dp2399
g60
(dp2400
sg69
g2385
sg62
(lp2401
g55
(g56
g57
NtRp2402
(dp2403
g60
(dp2404
g68
I3
ssg69
g2398
sg62
(lp2405
g1001
asbasbasbag55
(g71
g57
NtRp2406
(dp2407
g60
(dp2408
sg69
g2381
sg62
(lp2409
g55
(g76
g57
NtRp2410
(dp2411
g60
(dp2412
g80
g81
ssg69
g2406
sg62
(lp2413
S'HTTP_ACCEPT_ENCODING'
p2414
asbag55
(g76
g57
NtRp2415
(dp2416
g60
(dp2417
g87
g88
ssg69
g2406
sg62
(lp2418
S':'
asbag55
(g76
g57
NtRp2419
(dp2420
g60
(dp2421
sg69
g2406
sg62
(lp2422
g55
(g56
g57
NtRp2423
(dp2424
g60
(dp2425
g68
I3
ssg69
g2419
sg62
(lp2426
g1023
asbasbasbag55
(g71
g57
NtRp2427
(dp2428
g60
(dp2429
sg69
g2381
sg62
(lp2430
g55
(g76
g57
NtRp2431
(dp2432
g60
(dp2433
g80
g81
ssg69
g2427
sg62
(lp2434
S'HTTP_ACCEPT_LANGUAGE'
p2435
asbag55
(g76
g57
NtRp2436
(dp2437
g60
(dp2438
g87
g88
ssg69
g2427
sg62
(lp2439
S':'
asbag55
(g76
g57
NtRp2440
(dp2441
g60
(dp2442
sg69
g2427
sg62
(lp2443
g55
(g56
g57
NtRp2444
(dp2445
g60
(dp2446
g68
I3
ssg69
g2440
sg62
(lp2447
g1045
asbasbasbag55
(g71
g57
NtRp2448
(dp2449
g60
(dp2450
sg69
g2381
sg62
(lp2451
g55
(g76
g57
NtRp2452
(dp2453
g60
(dp2454
g80
g81
ssg69
g2448
sg62
(lp2455
S'HTTP_CONNECTION'
p2456
asbag55
(g76
g57
NtRp2457
(dp2458
g60
(dp2459
g87
g88
ssg69
g2448
sg62
(lp2460
S':'
asbag55
(g76
g57
NtRp2461
(dp2462
g60
(dp2463
sg69
g2448
sg62
(lp2464
g55
(g56
g57
NtRp2465
(dp2466
g60
(dp2467
g68
I3
ssg69
g2461
sg62
(lp2468
g1067
asbasbasbag55
(g71
g57
NtRp2469
(dp2470
g60
(dp2471
sg69
g2381
sg62
(lp2472
g55
(g76
g57
NtRp2473
(dp2474
g60
(dp2475
g80
g81
ssg69
g2469
sg62
(lp2476
S'HTTP_COOKIE'
p2477
asbag55
(g76
g57
NtRp2478
(dp2479
g60
(dp2480
g87
g88
ssg69
g2469
sg62
(lp2481
S':'
asbag55
(g76
g57
NtRp2482
(dp2483
g60
(dp2484
sg69
g2469
sg62
(lp2485
g55
(g56
g57
NtRp2486
(dp2487
g60
(dp2488
g68
I3
ssg69
g2482
sg62
(lp2489
g1089
asbasbasbag55
(g71
g57
NtRp2490
(dp2491
g60
(dp2492
sg69
g2381
sg62
(lp2493
g55
(g76
g57
NtRp2494
(dp2495
g60
(dp2496
g80
g81
ssg69
g2490
sg62
(lp2497
S'HTTP_HOST'
p2498
asbag55
(g76
g57
NtRp2499
(dp2500
g60
(dp2501
g87
g88
ssg69
g2490
sg62
(lp2502
S':'
asbag55
(g76
g57
NtRp2503
(dp2504
g60
(dp2505
sg69
g2490
sg62
(lp2506
g55
(g56
g57
NtRp2507
(dp2508
g60
(dp2509
g68
I3
ssg69
g2503
sg62
(lp2510
g1111
asbasbasbag55
(g71
g57
NtRp2511
(dp2512
g60
(dp2513
sg69
g2381
sg62
(lp2514
g55
(g76
g57
NtRp2515
(dp2516
g60
(dp2517
g80
g81
ssg69
g2511
sg62
(lp2518
S'HTTP_USER_AGENT'
p2519
asbag55
(g76
g57
NtRp2520
(dp2521
g60
(dp2522
g87
g88
ssg69
g2511
sg62
(lp2523
S':'
asbag55
(g76
g57
NtRp2524
(dp2525
g60
(dp2526
sg69
g2511
sg62
(lp2527
g55
(g56
g57
NtRp2528
(dp2529
g60
(dp2530
g68
I3
ssg69
g2524
sg62
(lp2531
g1133
asbasbasbag55
(g71
g57
NtRp2532
(dp2533
g60
(dp2534
sg69
g2381
sg62
(lp2535
g55
(g76
g57
NtRp2536
(dp2537
g60
(dp2538
g80
g81
ssg69
g2532
sg62
(lp2539
S'PATH_INFO'
p2540
asbag55
(g76
g57
NtRp2541
(dp2542
g60
(dp2543
g87
g88
ssg69
g2532
sg62
(lp2544
S':'
asbag55
(g76
g57
NtRp2545
(dp2546
g60
(dp2547
sg69
g2532
sg62
(lp2548
g55
(g56
g57
NtRp2549
(dp2550
g60
(dp2551
g68
I3
ssg69
g2545
sg62
(lp2552
g1197
asbasbasbag55
(g71
g57
NtRp2553
(dp2554
g60
(dp2555
sg69
g2381
sg62
(lp2556
g55
(g76
g57
NtRp2557
(dp2558
g60
(dp2559
g80
g81
ssg69
g2553
sg62
(lp2560
S'QUERY_STRING'
p2561
asbag55
(g76
g57
NtRp2562
(dp2563
g60
(dp2564
g87
g88
ssg69
g2553
sg62
(lp2565
S':'
asbag55
(g76
g57
NtRp2566
(dp2567
g60
(dp2568
sg69
g2553
sg62
(lp2569
g55
(g56
g57
NtRp2570
(dp2571
g60
(dp2572
g68
I3
ssg69
g2566
sg62
(lp2573
S''
asbasbasbag55
(g71
g57
NtRp2574
(dp2575
g60
(dp2576
sg69
g2381
sg62
(lp2577
g55
(g76
g57
NtRp2578
(dp2579
g60
(dp2580
g80
g81
ssg69
g2574
sg62
(lp2581
S'REMOTE_ADDR'
p2582
asbag55
(g76
g57
NtRp2583
(dp2584
g60
(dp2585
g87
g88
ssg69
g2574
sg62
(lp2586
S':'
asbag55
(g76
g57
NtRp2587
(dp2588
g60
(dp2589
sg69
g2574
sg62
(lp2590
g55
(g56
g57
NtRp2591
(dp2592
g60
(dp2593
g68
I3
ssg69
g2587
sg62
(lp2594
g188
asbasbasbag55
(g71
g57
NtRp2595
(dp2596
g60
(dp2597
sg69
g2381
sg62
(lp2598
g55
(g76
g57
NtRp2599
(dp2600
g60
(dp2601
g80
g81
ssg69
g2595
sg62
(lp2602
S'REMOTE_PORT'
p2603
asbag55
(g76
g57
NtRp2604
(dp2605
g60
(dp2606
g87
g88
ssg69
g2595
sg62
(lp2607
S':'
asbag55
(g76
g57
NtRp2608
(dp2609
g60
(dp2610
sg69
g2595
sg62
(lp2611
g55
(g56
g57
NtRp2612
(dp2613
g60
(dp2614
g68
I3
ssg69
g2608
sg62
(lp2615
g1261
asbasbasbag55
(g71
g57
NtRp2616
(dp2617
g60
(dp2618
sg69
g2381
sg62
(lp2619
g55
(g76
g57
NtRp2620
(dp2621
g60
(dp2622
g80
g81
ssg69
g2616
sg62
(lp2623
S'REQUEST_METHOD'
p2624
asbag55
(g76
g57
NtRp2625
(dp2626
g60
(dp2627
g87
g88
ssg69
g2616
sg62
(lp2628
S':'
asbag55
(g76
g57
NtRp2629
(dp2630
g60
(dp2631
sg69
g2616
sg62
(lp2632
g55
(g56
g57
NtRp2633
(dp2634
g60
(dp2635
g68
I3
ssg69
g2629
sg62
(lp2636
g1283
asbasbasbag55
(g71
g57
NtRp2637
(dp2638
g60
(dp2639
sg69
g2381
sg62
(lp2640
g55
(g76
g57
NtRp2641
(dp2642
g60
(dp2643
g80
g81
ssg69
g2637
sg62
(lp2644
S'SCRIPT_NAME'
p2645
asbag55
(g76
g57
NtRp2646
(dp2647
g60
(dp2648
g87
g88
ssg69
g2637
sg62
(lp2649
S':'
asbag55
(g76
g57
NtRp2650
(dp2651
g60
(dp2652
sg69
g2637
sg62
(lp2653
g55
(g56
g57
NtRp2654
(dp2655
g60
(dp2656
g68
I3
ssg69
g2650
sg62
(lp2657
S''
asbasbasbag55
(g71
g57
NtRp2658
(dp2659
g60
(dp2660
sg69
g2381
sg62
(lp2661
g55
(g76
g57
NtRp2662
(dp2663
g60
(dp2664
g80
g81
ssg69
g2658
sg62
(lp2665
S'SERVER_NAME'
p2666
asbag55
(g76
g57
NtRp2667
(dp2668
g60
(dp2669
g87
g88
ssg69
g2658
sg62
(lp2670
S':'
asbag55
(g76
g57
NtRp2671
(dp2672
g60
(dp2673
sg69
g2658
sg62
(lp2674
g55
(g56
g57
NtRp2675
(dp2676
g60
(dp2677
g68
I3
ssg69
g2671
sg62
(lp2678
g1326
asbasbasbag55
(g71
g57
NtRp2679
(dp2680
g60
(dp2681
sg69
g2381
sg62
(lp2682
g55
(g76
g57
NtRp2683
(dp2684
g60
(dp2685
g80
g81
ssg69
g2679
sg62
(lp2686
S'SERVER_PORT'
p2687
asbag55
(g76
g57
NtRp2688
(dp2689
g60
(dp2690
g87
g88
ssg69
g2679
sg62
(lp2691
S':'
asbag55
(g76
g57
NtRp2692
(dp2693
g60
(dp2694
sg69
g2679
sg62
(lp2695
g55
(g56
g57
NtRp2696
(dp2697
g60
(dp2698
g68
I3
ssg69
g2692
sg62
(lp2699
g1348
asbasbasbag55
(g71
g57
NtRp2700
(dp2701
g60
(dp2702
sg69
g2381
sg62
(lp2703
g55
(g76
g57
NtRp2704
(dp2705
g60
(dp2706
g80
g81
ssg69
g2700
sg62
(lp2707
S'SERVER_PROTOCOL'
p2708
asbag55
(g76
g57
NtRp2709
(dp2710
g60
(dp2711
g87
g88
ssg69
g2700
sg62
(lp2712
S':'
asbag55
(g76
g57
NtRp2713
(dp2714
g60
(dp2715
sg69
g2700
sg62
(lp2716
g55
(g56
g57
NtRp2717
(dp2718
g60
(dp2719
g68
I3
ssg69
g2713
sg62
(lp2720
g1370
asbasbasbag55
(g71
g57
NtRp2721
(dp2722
g60
(dp2723
sg69
g2381
sg62
(lp2724
g55
(g76
g57
NtRp2725
(dp2726
g60
(dp2727
g80
g81
ssg69
g2721
sg62
(lp2728
S'SERVER_SOFTWARE'
p2729
asbag55
(g76
g57
NtRp2730
(dp2731
g60
(dp2732
g87
g88
ssg69
g2721
sg62
(lp2733
S':'
asbag55
(g76
g57
NtRp2734
(dp2735
g60
(dp2736
sg69
g2721
sg62
(lp2737
g55
(g56
g57
NtRp2738
(dp2739
g60
(dp2740
g68
I3
ssg69
g2734
sg62
(lp2741
g1392
asbasbasbag55
(g71
g57
NtRp2742
(dp2743
g60
(dp2744
sg69
g2381
sg62
(lp2745
g55
(g76
g57
NtRp2746
(dp2747
g60
(dp2748
g80
g81
ssg69
g2742
sg62
(lp2749
S'wsgi.errors'
p2750
asbag55
(g76
g57
NtRp2751
(dp2752
g60
(dp2753
g87
g88
ssg69
g2742
sg62
(lp2754
S':'
asbag55
(g76
g57
NtRp2755
(dp2756
g60
(dp2757
sg69
g2742
sg62
(lp2758
g55
(g56
g57
NtRp2759
(dp2760
g60
(dp2761
g68
I3
ssg69
g2755
sg62
(lp2762
S"<open file '<stderr>', mode 'w' at 0x7f77071f91e0>"
p2763
asbasbasbag55
(g71
g57
NtRp2764
(dp2765
g60
(dp2766
sg69
g2381
sg62
(lp2767
g55
(g76
g57
NtRp2768
(dp2769
g60
(dp2770
g80
g81
ssg69
g2764
sg62
(lp2771
S'wsgi.file_wrapper'
p2772
asbag55
(g76
g57
NtRp2773
(dp2774
g60
(dp2775
g87
g88
ssg69
g2764
sg62
(lp2776
S':'
asbag55
(g76
g57
NtRp2777
(dp2778
g60
(dp2779
sg69
g2764
sg62
(lp2780
g55
(g56
g57
NtRp2781
(dp2782
g60
(dp2783
g68
I3
ssg69
g2777
sg62
(lp2784
S'<class wsgiref.util.FileWrapper at 0x7f7703156e88>'
p2785
asbasbasbag55
(g71
g57
NtRp2786
(dp2787
g60
(dp2788
sg69
g2381
sg62
(lp2789
g55
(g76
g57
NtRp2790
(dp2791
g60
(dp2792
g80
g81
ssg69
g2786
sg62
(lp2793
S'wsgi.input'
p2794
asbag55
(g76
g57
NtRp2795
(dp2796
g60
(dp2797
g87
g88
ssg69
g2786
sg62
(lp2798
S':'
asbag55
(g76
g57
NtRp2799
(dp2800
g60
(dp2801
sg69
g2786
sg62
(lp2802
g55
(g56
g57
NtRp2803
(dp2804
g60
(dp2805
g68
I3
ssg69
g2799
sg62
(lp2806
S'<cStringIO.StringO object at 0x7f7701b48c38>'
p2807
asbasbasbag55
(g71
g57
NtRp2808
(dp2809
g60
(dp2810
sg69
g2381
sg62
(lp2811
g55
(g76
g57
NtRp2812
(dp2813
g60
(dp2814
g80
g81
ssg69
g2808
sg62
(lp2815
S'wsgi.multiprocess'
p2816
asbag55
(g76
g57
NtRp2817
(dp2818
g60
(dp2819
g87
g88
ssg69
g2808
sg62
(lp2820
S':'
asbag55
(g76
g57
NtRp2821
(dp2822
g60
(dp2823
sg69
g2808
sg62
(lp2824
g55
(g56
g57
NtRp2825
(dp2826
g60
(dp2827
g68
I3
ssg69
g2821
sg62
(lp2828
g98
asbasbasbag55
(g71
g57
NtRp2829
(dp2830
g60
(dp2831
sg69
g2381
sg62
(lp2832
g55
(g76
g57
NtRp2833
(dp2834
g60
(dp2835
g80
g81
ssg69
g2829
sg62
(lp2836
S'wsgi.multithread'
p2837
asbag55
(g76
g57
NtRp2838
(dp2839
g60
(dp2840
g87
g88
ssg69
g2829
sg62
(lp2841
S':'
asbag55
(g76
g57
NtRp2842
(dp2843
g60
(dp2844
sg69
g2829
sg62
(lp2845
g55
(g56
g57
NtRp2846
(dp2847
g60
(dp2848
g68
I3
ssg69
g2842
sg62
(lp2849
g1632
asbasbasbag55
(g71
g57
NtRp2850
(dp2851
g60
(dp2852
sg69
g2381
sg62
(lp2853
g55
(g76
g57
NtRp2854
(dp2855
g60
(dp2856
g80
g81
ssg69
g2850
sg62
(lp2857
S'wsgi.run_once'
p2858
asbag55
(g76
g57
NtRp2859
(dp2860
g60
(dp2861
g87
g88
ssg69
g2850
sg62
(lp2862
S':'
asbag55
(g76
g57
NtRp2863
(dp2864
g60
(dp2865
sg69
g2850
sg62
(lp2866
g55
(g56
g57
NtRp2867
(dp2868
g60
(dp2869
g68
I3
ssg69
g2863
sg62
(lp2870
g98
asbasbasbag55
(g71
g57
NtRp2871
(dp2872
g60
(dp2873
sg69
g2381
sg62
(lp2874
g55
(g76
g57
NtRp2875
(dp2876
g60
(dp2877
g80
g81
ssg69
g2871
sg62
(lp2878
S'wsgi.url_scheme'
p2879
asbag55
(g76
g57
NtRp2880
(dp2881
g60
(dp2882
g87
g88
ssg69
g2871
sg62
(lp2883
S':'
asbag55
(g76
g57
NtRp2884
(dp2885
g60
(dp2886
sg69
g2871
sg62
(lp2887
g55
(g56
g57
NtRp2888
(dp2889
g60
(dp2890
g68
I3
ssg69
g2884
sg62
(lp2891
g1675
asbasbasbag55
(g71
g57
NtRp2892
(dp2893
g60
(dp2894
sg69
g2381
sg62
(lp2895
g55
(g76
g57
NtRp2896
(dp2897
g60
(dp2898
g80
g81
ssg69
g2892
sg62
(lp2899
S'wsgi.version'
p2900
asbag55
(g76
g57
NtRp2901
(dp2902
g60
(dp2903
g87
g88
ssg69
g2892
sg62
(lp2904
S':'
asbag55
(g76
g57
NtRp2905
(dp2906
g60
(dp2907
sg69
g2892
sg62
(lp2908
g55
(g56
g57
NtRp2909
(dp2910
g60
(dp2911
g68
I3
ssg69
g2905
sg62
(lp2912
S'1'
asbasbasbasbasbasbasbasbasbasbasbasbasbsS'frames'
p2913
(lp2914
(dp2915
S'file'
p2916
S'/usr/lib/pymodules/python2.7/gluon/main.py'
p2917
sS'dump'
p2918
(dp2919
S'global serve_controller'
p2920
S'<function serve_controller>'
p2921
sS'session'
p2922
S"<Storage {'request_token': {'oauth_token_secret'...sh': '\\x8c~\\x82\\xa1t2;l\\xafCX\\xee\\xe6\\xb2\\xbd4'}>"
p2923
sS'request'
p2924
S"<Storage {'body': <cStringIO.StringO object at 0..._vars': <Storage {}>, 'post_vars': <Storage {}>}>"
p2925
sS'response'
p2926
S"<Storage {'body': <cStringIO.StringO object at 0... 0x7f76b8d3b050>, 'view': 'default/trends.html'}>"
p2927
ssS'lnum'
p2928
I498
sS'lines'
p2929
(dp2930
I493
S'                if global_settings.debugging and request.application != "admin":'
p2931
sI494
S'                    import gluon.debug'
p2932
sI495
S'                    # activate the debugger and wait to reach application code'
p2933
sI496
S'                    gluon.debug.dbg.do_debug(mainpyfile=request.folder)'
p2934
sI497
S''
sI498
S'                serve_controller(request, response, session)'
p2935
sI499
S''
sI500
S'            except HTTP, http_response:'
p2936
sI501
S'                if static_file:'
p2937
sI502
S'                    return http_response.to(responder)'
p2938
ssS'call'
p2939
S"(environ={'HTTP_ACCEPT': 'text/html,application/xhtml+xml,application/xml;q=0.9,image/webp,*/*;q=0.8', 'HTTP_ACCEPT_ENCODING': 'gzip, deflate, sdch', 'HTTP_ACCEPT_LANGUAGE': 'en-US,en;q=0.8', 'HTTP_CONNECTION': 'keep-alive', 'HTTP_COOKIE': 'session_id_welcome=127.0.0.1-bfe1b2f3-6e5c-463b-...pp=127.0.0.1-d05dcd52-8177-4b76-8afc-d26144393d56', 'HTTP_HOST': '127.0.0.1:8000', 'HTTP_USER_AGENT': 'Mozilla/5.0 (X11; Linux x86_64) AppleWebKit/537....L, like Gecko) Chrome/42.0.2311.135 Safari/537.36', 'PATH_INFO': '/newsapp/default/trends', 'QUERY_STRING': '', 'REMOTE_ADDR': '127.0.0.1', ...}, responder=<function responder2>)"
p2940
sS'func'
p2941
S'wsgibase'
p2942
sa(dp2943
g2916
S'/usr/lib/pymodules/python2.7/gluon/main.py'
p2944
sg2918
(dp2945
S'response._view_environment'
p2946
S"{'A': <class 'gluon.html.A'>, 'Auth': <class 'gluon.tools.Auth'>, 'B': <class 'gluon.html.B'>, 'BEAUTIFY': <class 'gluon.html.BEAUTIFY'>, 'BODY': <class 'gluon.html.BODY'>, 'BR': <class 'gluon.html.BR'>, 'BUTTON': <class 'gluon.html.BUTTON'>, 'CAT': <class 'gluon.html.CAT'>, 'CENTER': <class 'gluon.html.CENTER'>, 'CLEANUP': <class 'gluon.validators.CLEANUP'>, ...}"
p2947
sS'response'
p2948
S"<Storage {'body': <cStringIO.StringO object at 0... 0x7f76b8d3b050>, 'view': 'default/trends.html'}>"
p2949
sS'global run_view_in'
p2950
S'<function run_view_in>'
p2951
ssg2928
I207
sg2929
(dp2952
I202
S'    page = run_controller_in(request.controller, request.function, environment)'
p2953
sI203
S'    if isinstance(page, dict):'
p2954
sI204
S'        response._vars = page'
p2955
sI205
S'        for key in page:'
p2956
sI206
S'            response._view_environment[key] = page[key]'
p2957
sI207
S'        run_view_in(response._view_environment)'
p2958
sI208
S'        page = response.body.getvalue()'
p2959
sI209
S'    # logic to garbage collect after exec, not always, once every 100 requests'
p2960
sI210
S'    global requests'
p2961
sI211
S"    requests = ('requests' in globals()) and (requests+1) % 100 or 0"
p2962
ssg2939
S"(request=<Storage {'body': <cStringIO.StringO object at 0..._vars': <Storage {}>, 'post_vars': <Storage {}>}>, response=<Storage {'body': <cStringIO.StringO object at 0... 0x7f76b8d3b050>, 'view': 'default/trends.html'}>, session=<Storage {'request_token': {'oauth_token_secret'...sh': '\\x8c~\\x82\\xa1t2;l\\xafCX\\xee\\xe6\\xb2\\xbd4'}>)"
p2963
sg2941
S'serve_controller'
p2964
sa(dp2965
g2916
S'/usr/lib/pymodules/python2.7/gluon/compileapp.py'
p2966
sg2918
(dp2967
S'badv'
p2968
S'undefined'
p2969
sS'response'
p2970
S"{'content-length': '88408', 'x-rate-limit-reset'...'content-type': 'application/json;charset=utf-8'}"
p2971
sS'response.view'
p2972
g2969
ssg2928
I596
sg2929
(dp2973
I591
S''
sI592
S"    request = environment['request']"
p2974
sI593
S"    response = environment['response']"
p2975
sI594
S'    folder = request.folder'
p2976
sI595
S"    path = os.path.join(folder, 'compiled')"
p2977
sI596
S"    badv = 'invalid view (%s)' % response.view"
p2978
sI597
S'    patterns = response.generic_patterns or []'
p2979
sI598
S"    regex = re.compile('|'.join(fnmatch.translate(r) for r in patterns))"
p2980
sI599
S"    short_action =  '%(controller)s/%(function)s.%(extension)s' % request"
p2981
sI600
S'    allow_generic = patterns and regex.search(short_action)'
p2982
ssg2939
S"(environment={'A': <class 'gluon.html.A'>, 'Auth': <class 'gluon.tools.Auth'>, 'B': <class 'gluon.html.B'>, 'BEAUTIFY': <class 'gluon.html.BEAUTIFY'>, 'BODY': <class 'gluon.html.BODY'>, 'BR': <class 'gluon.html.BR'>, 'BUTTON': <class 'gluon.html.BUTTON'>, 'CAT': <class 'gluon.html.CAT'>, 'CENTER': <class 'gluon.html.CENTER'>, 'CLEANUP': <class 'gluon.validators.CLEANUP'>, ...})"
p2983
sg2941
S'run_view_in'
p2984
sa(dp2985
g2916
S'/usr/lib/python2.7/dist-packages/httplib2/__init__.py'
p2986
sg2918
(dp2987
S'name'
p2988
S"'view'"
p2989
sS'builtinAttributeError'
p2990
S"<type 'exceptions.AttributeError'>"
p2991
ssg2928
I1656
sg2929
(dp2992
I1647
S'                self[key.lower()] = value'
p2993
sI1648
S"            self.status = int(self.get('status', self.status))"
p2994
sI1649
S"            self.reason = self.get('reason', self.reason)"
p2995
sI1650
S''
sI1651
S''
sI1652
S'    def __getattr__(self, name):'
p2996
sI1653
S"        if name == 'dict':"
p2997
sI1654
S'            return self'
p2998
sI1655
S'        else:'
p2999
sI1656
S'            raise AttributeError, name'
p3000
ssg2939
S"(self={'content-length': '88408', 'x-rate-limit-reset'...'content-type': 'application/json;charset=utf-8'}, name='view')"
p3001
sg2941
S'__getattr__'
p3002
sasS'pyver'
p3003
S'Python 2.7.6: /usr/bin/python'
p3004
sS'session'
p3005
g55
(g56
g57
NtRp3006
(dp3007
g60
(dp3008
sg62
(lp3009
g55
(g64
g57
NtRp3010
(dp3011
g60
(dp3012
g68
I5
ssg69
Nsg62
(lp3013
g55
(g71
g57
NtRp3014
(dp3015
g60
(dp3016
sg69
g3010
sg62
(lp3017
g55
(g76
g57
NtRp3018
(dp3019
g60
(dp3020
g80
g81
ssg69
g3014
sg62
(lp3021
S'access_token'
p3022
asbag55
(g76
g57
NtRp3023
(dp3024
g60
(dp3025
g87
g88
ssg69
g3014
sg62
(lp3026
S':'
asbag55
(g76
g57
NtRp3027
(dp3028
g60
(dp3029
sg69
g3014
sg62
(lp3030
g55
(g56
g57
NtRp3031
(dp3032
g60
(dp3033
g68
I5
ssg69
g3027
sg62
(lp3034
g55
(g64
g57
NtRp3035
(dp3036
g60
(dp3037
g68
I4
ssg69
Nsg62
(lp3038
g55
(g71
g57
NtRp3039
(dp3040
g60
(dp3041
sg69
g3035
sg62
(lp3042
g55
(g76
g57
NtRp3043
(dp3044
g60
(dp3045
g80
g81
ssg69
g3039
sg62
(lp3046
S'oauth_token'
p3047
asbag55
(g76
g57
NtRp3048
(dp3049
g60
(dp3050
g87
g88
ssg69
g3039
sg62
(lp3051
S':'
asbag55
(g76
g57
NtRp3052
(dp3053
g60
(dp3054
sg69
g3039
sg62
(lp3055
g55
(g56
g57
NtRp3056
(dp3057
g60
(dp3058
g68
I4
ssg69
g3052
sg62
(lp3059
S'269256901-Tms0dXy6Yd3ymJZJbGEgKf4EbijtLdKTABJCXd0L'
p3060
asbasbasbag55
(g71
g57
NtRp3061
(dp3062
g60
(dp3063
sg69
g3035
sg62
(lp3064
g55
(g76
g57
NtRp3065
(dp3066
g60
(dp3067
g80
g81
ssg69
g3061
sg62
(lp3068
S'oauth_token_secret'
p3069
asbag55
(g76
g57
NtRp3070
(dp3071
g60
(dp3072
g87
g88
ssg69
g3061
sg62
(lp3073
S':'
asbag55
(g76
g57
NtRp3074
(dp3075
g60
(dp3076
sg69
g3061
sg62
(lp3077
g55
(g56
g57
NtRp3078
(dp3079
g60
(dp3080
g68
I4
ssg69
g3074
sg62
(lp3081
S'cnW26x6ID9yebEJLhTH50Xm36dr3anNuR4mFzzh14AMYr'
p3082
asbasbasbag55
(g71
g57
NtRp3083
(dp3084
g60
(dp3085
sg69
g3035
sg62
(lp3086
g55
(g76
g57
NtRp3087
(dp3088
g60
(dp3089
g80
g81
ssg69
g3083
sg62
(lp3090
S'screen_name'
p3091
asbag55
(g76
g57
NtRp3092
(dp3093
g60
(dp3094
g87
g88
ssg69
g3083
sg62
(lp3095
S':'
asbag55
(g76
g57
NtRp3096
(dp3097
g60
(dp3098
sg69
g3083
sg62
(lp3099
g55
(g56
g57
NtRp3100
(dp3101
g60
(dp3102
g68
I4
ssg69
g3096
sg62
(lp3103
S'poojakvj'
p3104
asbasbasbag55
(g71
g57
NtRp3105
(dp3106
g60
(dp3107
sg69
g3035
sg62
(lp3108
g55
(g76
g57
NtRp3109
(dp3110
g60
(dp3111
g80
g81
ssg69
g3105
sg62
(lp3112
S'user_id'
p3113
asbag55
(g76
g57
NtRp3114
(dp3115
g60
(dp3116
g87
g88
ssg69
g3105
sg62
(lp3117
S':'
asbag55
(g76
g57
NtRp3118
(dp3119
g60
(dp3120
sg69
g3105
sg62
(lp3121
g55
(g56
g57
NtRp3122
(dp3123
g60
(dp3124
g68
I4
ssg69
g3118
sg62
(lp3125
S'269256901'
p3126
asbasbasbasbasbasbasbag55
(g71
g57
NtRp3127
(dp3128
g60
(dp3129
sg69
g3010
sg62
(lp3130
g55
(g76
g57
NtRp3131
(dp3132
g60
(dp3133
g80
g81
ssg69
g3127
sg62
(lp3134
S'request_token'
p3135
asbag55
(g76
g57
NtRp3136
(dp3137
g60
(dp3138
g87
g88
ssg69
g3127
sg62
(lp3139
S':'
asbag55
(g76
g57
NtRp3140
(dp3141
g60
(dp3142
sg69
g3127
sg62
(lp3143
g55
(g56
g57
NtRp3144
(dp3145
g60
(dp3146
g68
I5
ssg69
g3140
sg62
(lp3147
g55
(g64
g57
NtRp3148
(dp3149
g60
(dp3150
g68
I4
ssg69
Nsg62
(lp3151
g55
(g71
g57
NtRp3152
(dp3153
g60
(dp3154
sg69
g3148
sg62
(lp3155
g55
(g76
g57
NtRp3156
(dp3157
g60
(dp3158
g80
g81
ssg69
g3152
sg62
(lp3159
S'oauth_callback_confirmed'
p3160
asbag55
(g76
g57
NtRp3161
(dp3162
g60
(dp3163
g87
g88
ssg69
g3152
sg62
(lp3164
S':'
asbag55
(g76
g57
NtRp3165
(dp3166
g60
(dp3167
sg69
g3152
sg62
(lp3168
g55
(g56
g57
NtRp3169
(dp3170
g60
(dp3171
g68
I4
ssg69
g3165
sg62
(lp3172
S'true'
p3173
asbasbasbag55
(g71
g57
NtRp3174
(dp3175
g60
(dp3176
sg69
g3148
sg62
(lp3177
g55
(g76
g57
NtRp3178
(dp3179
g60
(dp3180
g80
g81
ssg69
g3174
sg62
(lp3181
S'oauth_token'
p3182
asbag55
(g76
g57
NtRp3183
(dp3184
g60
(dp3185
g87
g88
ssg69
g3174
sg62
(lp3186
S':'
asbag55
(g76
g57
NtRp3187
(dp3188
g60
(dp3189
sg69
g3174
sg62
(lp3190
g55
(g56
g57
NtRp3191
(dp3192
g60
(dp3193
g68
I4
ssg69
g3187
sg62
(lp3194
S'T3fKEhanMQVDKc8se3CgqWYTOzBh8dkQ'
p3195
asbasbasbag55
(g71
g57
NtRp3196
(dp3197
g60
(dp3198
sg69
g3148
sg62
(lp3199
g55
(g76
g57
NtRp3200
(dp3201
g60
(dp3202
g80
g81
ssg69
g3196
sg62
(lp3203
S'oauth_token_secret'
p3204
asbag55
(g76
g57
NtRp3205
(dp3206
g60
(dp3207
g87
g88
ssg69
g3196
sg62
(lp3208
S':'
asbag55
(g76
g57
NtRp3209
(dp3210
g60
(dp3211
sg69
g3196
sg62
(lp3212
g55
(g56
g57
NtRp3213
(dp3214
g60
(dp3215
g68
I4
ssg69
g3209
sg62
(lp3216
S'UojD2l8hYtmHs9u5NcFzfrQBKl4I6q5Z'
p3217
asbasbasbasbasbasbasbasbasbsS'etype'
p3218
S"<type 'exceptions.AttributeError'>"
p3219
sS'date'
p3220
S'Sat May  9 19:36:38 2015'
p3221
sS'response'
p3222
g55
(g56
g57
NtRp3223
(dp3224
g60
(dp3225
sg62
(lp3226
g55
(g64
g57
NtRp3227
(dp3228
g60
(dp3229
g68
I5
ssg69
Nsg62
(lp3230
g55
(g71
g57
NtRp3231
(dp3232
g60
(dp3233
sg69
g3227
sg62
(lp3234
g55
(g76
g57
NtRp3235
(dp3236
g60
(dp3237
g80
g81
ssg69
g3231
sg62
(lp3238
g153
asbag55
(g76
g57
NtRp3239
(dp3240
g60
(dp3241
g87
g88
ssg69
g3231
sg62
(lp3242
S':'
asbag55
(g76
g57
NtRp3243
(dp3244
g60
(dp3245
sg69
g3231
sg62
(lp3246
g55
(g56
g57
NtRp3247
(dp3248
g60
(dp3249
g68
I5
ssg69
g3243
sg62
(lp3250
S'<cStringIO.StringO object at 0x7f7701b48d18>'
p3251
asbasbasbag55
(g71
g57
NtRp3252
(dp3253
g60
(dp3254
sg69
g3227
sg62
(lp3255
g55
(g76
g57
NtRp3256
(dp3257
g60
(dp3258
g80
g81
ssg69
g3252
sg62
(lp3259
g219
asbag55
(g76
g57
NtRp3260
(dp3261
g60
(dp3262
g87
g88
ssg69
g3252
sg62
(lp3263
S':'
asbag55
(g76
g57
NtRp3264
(dp3265
g60
(dp3266
sg69
g3252
sg62
(lp3267
g55
(g56
g57
NtRp3268
(dp3269
g60
(dp3270
g68
I5
ssg69
g3264
sg62
(lp3271
g55
(g64
g57
NtRp3272
(dp3273
g60
(dp3274
g68
I4
ssg69
Nsg62
(lp3275
g55
(g71
g57
NtRp3276
(dp3277
g60
(dp3278
sg69
g3272
sg62
(lp3279
g55
(g76
g57
NtRp3280
(dp3281
g60
(dp3282
g80
g81
ssg69
g3276
sg62
(lp3283
S'session_id_newsapp'
p3284
asbag55
(g76
g57
NtRp3285
(dp3286
g60
(dp3287
g87
g88
ssg69
g3276
sg62
(lp3288
S':'
asbag55
(g76
g57
NtRp3289
(dp3290
g60
(dp3291
sg69
g3276
sg62
(lp3292
g55
(g56
g57
NtRp3293
(dp3294
g60
(dp3295
g68
I4
ssg69
g3289
sg62
(lp3296
g55
(g64
g57
NtRp3297
(dp3298
g60
(dp3299
g68
I3
ssg69
Nsg62
(lp3300
g55
(g71
g57
NtRp3301
(dp3302
g60
(dp3303
sg69
g3297
sg62
(lp3304
g55
(g76
g57
NtRp3305
(dp3306
g60
(dp3307
g80
g81
ssg69
g3301
sg62
(lp3308
g269
asbag55
(g76
g57
NtRp3309
(dp3310
g60
(dp3311
g87
g88
ssg69
g3301
sg62
(lp3312
S':'
asbag55
(g76
g57
NtRp3313
(dp3314
g60
(dp3315
sg69
g3301
sg62
(lp3316
g55
(g56
g57
NtRp3317
(dp3318
g60
(dp3319
g68
I3
ssg69
g3313
sg62
(lp3320
S''
asbasbasbag55
(g71
g57
NtRp3321
(dp3322
g60
(dp3323
sg69
g3297
sg62
(lp3324
g55
(g76
g57
NtRp3325
(dp3326
g60
(dp3327
g80
g81
ssg69
g3321
sg62
(lp3328
g290
asbag55
(g76
g57
NtRp3329
(dp3330
g60
(dp3331
g87
g88
ssg69
g3321
sg62
(lp3332
S':'
asbag55
(g76
g57
NtRp3333
(dp3334
g60
(dp3335
sg69
g3321
sg62
(lp3336
g55
(g56
g57
NtRp3337
(dp3338
g60
(dp3339
g68
I3
ssg69
g3333
sg62
(lp3340
S''
asbasbasbag55
(g71
g57
NtRp3341
(dp3342
g60
(dp3343
sg69
g3297
sg62
(lp3344
g55
(g76
g57
NtRp3345
(dp3346
g60
(dp3347
g80
g81
ssg69
g3341
sg62
(lp3348
g311
asbag55
(g76
g57
NtRp3349
(dp3350
g60
(dp3351
g87
g88
ssg69
g3341
sg62
(lp3352
S':'
asbag55
(g76
g57
NtRp3353
(dp3354
g60
(dp3355
sg69
g3341
sg62
(lp3356
g55
(g56
g57
NtRp3357
(dp3358
g60
(dp3359
g68
I3
ssg69
g3353
sg62
(lp3360
S''
asbasbasbag55
(g71
g57
NtRp3361
(dp3362
g60
(dp3363
sg69
g3297
sg62
(lp3364
g55
(g76
g57
NtRp3365
(dp3366
g60
(dp3367
g80
g81
ssg69
g3361
sg62
(lp3368
g332
asbag55
(g76
g57
NtRp3369
(dp3370
g60
(dp3371
g87
g88
ssg69
g3361
sg62
(lp3372
S':'
asbag55
(g76
g57
NtRp3373
(dp3374
g60
(dp3375
sg69
g3361
sg62
(lp3376
g55
(g56
g57
NtRp3377
(dp3378
g60
(dp3379
g68
I3
ssg69
g3373
sg62
(lp3380
S''
asbasbasbag55
(g71
g57
NtRp3381
(dp3382
g60
(dp3383
sg69
g3297
sg62
(lp3384
g55
(g76
g57
NtRp3385
(dp3386
g60
(dp3387
g80
g81
ssg69
g3381
sg62
(lp3388
g353
asbag55
(g76
g57
NtRp3389
(dp3390
g60
(dp3391
g87
g88
ssg69
g3381
sg62
(lp3392
S':'
asbag55
(g76
g57
NtRp3393
(dp3394
g60
(dp3395
sg69
g3381
sg62
(lp3396
g55
(g56
g57
NtRp3397
(dp3398
g60
(dp3399
g68
I3
ssg69
g3393
sg62
(lp3400
S''
asbasbasbag55
(g71
g57
NtRp3401
(dp3402
g60
(dp3403
sg69
g3297
sg62
(lp3404
g55
(g76
g57
NtRp3405
(dp3406
g60
(dp3407
g80
g81
ssg69
g3401
sg62
(lp3408
g374
asbag55
(g76
g57
NtRp3409
(dp3410
g60
(dp3411
g87
g88
ssg69
g3401
sg62
(lp3412
S':'
asbag55
(g76
g57
NtRp3413
(dp3414
g60
(dp3415
sg69
g3401
sg62
(lp3416
g55
(g56
g57
NtRp3417
(dp3418
g60
(dp3419
g68
I3
ssg69
g3413
sg62
(lp3420
S'/'
asbasbasbag55
(g71
g57
NtRp3421
(dp3422
g60
(dp3423
sg69
g3297
sg62
(lp3424
g55
(g76
g57
NtRp3425
(dp3426
g60
(dp3427
g80
g81
ssg69
g3421
sg62
(lp3428
g395
asbag55
(g76
g57
NtRp3429
(dp3430
g60
(dp3431
g87
g88
ssg69
g3421
sg62
(lp3432
S':'
asbag55
(g76
g57
NtRp3433
(dp3434
g60
(dp3435
sg69
g3421
sg62
(lp3436
g55
(g56
g57
NtRp3437
(dp3438
g60
(dp3439
g68
I3
ssg69
g3433
sg62
(lp3440
S''
asbasbasbag55
(g71
g57
NtRp3441
(dp3442
g60
(dp3443
sg69
g3297
sg62
(lp3444
g55
(g76
g57
NtRp3445
(dp3446
g60
(dp3447
g80
g81
ssg69
g3441
sg62
(lp3448
g416
asbag55
(g76
g57
NtRp3449
(dp3450
g60
(dp3451
g87
g88
ssg69
g3441
sg62
(lp3452
S':'
asbag55
(g76
g57
NtRp3453
(dp3454
g60
(dp3455
sg69
g3441
sg62
(lp3456
g55
(g56
g57
NtRp3457
(dp3458
g60
(dp3459
g68
I3
ssg69
g3453
sg62
(lp3460
S''
asbasbasbasbasbasbasbasbasbasbasbag55
(g71
g57
NtRp3461
(dp3462
g60
(dp3463
sg69
g3227
sg62
(lp3464
g55
(g76
g57
NtRp3465
(dp3466
g60
(dp3467
g80
g81
ssg69
g3461
sg62
(lp3468
S'delimiters'
p3469
asbag55
(g76
g57
NtRp3470
(dp3471
g60
(dp3472
g87
g88
ssg69
g3461
sg62
(lp3473
S':'
asbag55
(g76
g57
NtRp3474
(dp3475
g60
(dp3476
sg69
g3461
sg62
(lp3477
g55
(g56
g57
NtRp3478
(dp3479
g60
(dp3480
g68
I5
ssg69
g3474
sg62
(lp3481
g55
(g64
g57
NtRp3482
(dp3483
g60
(dp3484
g68
I4
ssg69
Nsg62
(lp3485
g55
(g71
g57
NtRp3486
(dp3487
g60
(dp3488
sg69
g3482
sg62
(lp3489
g55
(g76
g57
NtRp3490
(dp3491
g60
(dp3492
sg69
g3486
sg62
(lp3493
g55
(g56
g57
NtRp3494
(dp3495
g60
(dp3496
g68
I4
ssg69
g3490
sg62
(lp3497
S'{{'
p3498
asbasbasbag55
(g71
g57
NtRp3499
(dp3500
g60
(dp3501
sg69
g3482
sg62
(lp3502
g55
(g76
g57
NtRp3503
(dp3504
g60
(dp3505
sg69
g3499
sg62
(lp3506
g55
(g56
g57
NtRp3507
(dp3508
g60
(dp3509
g68
I4
ssg69
g3503
sg62
(lp3510
S'}}'
p3511
asbasbasbasbasbasbasbag55
(g71
g57
NtRp3512
(dp3513
g60
(dp3514
sg69
g3227
sg62
(lp3515
g55
(g76
g57
NtRp3516
(dp3517
g60
(dp3518
g80
g81
ssg69
g3512
sg62
(lp3519
S'files'
p3520
asbag55
(g76
g57
NtRp3521
(dp3522
g60
(dp3523
g87
g88
ssg69
g3512
sg62
(lp3524
S':'
asbag55
(g76
g57
NtRp3525
(dp3526
g60
(dp3527
sg69
g3512
sg62
(lp3528
g55
(g56
g57
NtRp3529
(dp3530
g60
(dp3531
g68
I5
ssg69
g3525
sg62
(lp3532
g55
(g64
g57
NtRp3533
(dp3534
g60
(dp3535
g68
I4
ssg69
Nsg62
(lp3536
sbasbasbasbag55
(g71
g57
NtRp3537
(dp3538
g60
(dp3539
sg69
g3227
sg62
(lp3540
g55
(g76
g57
NtRp3541
(dp3542
g60
(dp3543
g80
g81
ssg69
g3537
sg62
(lp3544
S'flash'
p3545
asbag55
(g76
g57
NtRp3546
(dp3547
g60
(dp3548
g87
g88
ssg69
g3537
sg62
(lp3549
S':'
asbag55
(g76
g57
NtRp3550
(dp3551
g60
(dp3552
sg69
g3537
sg62
(lp3553
g55
(g56
g57
NtRp3554
(dp3555
g60
(dp3556
g68
I5
ssg69
g3550
sg62
(lp3557
S''
asbasbasbag55
(g71
g57
NtRp3558
(dp3559
g60
(dp3560
sg69
g3227
sg62
(lp3561
g55
(g76
g57
NtRp3562
(dp3563
g60
(dp3564
g80
g81
ssg69
g3558
sg62
(lp3565
S'generic_patterns'
p3566
asbag55
(g76
g57
NtRp3567
(dp3568
g60
(dp3569
g87
g88
ssg69
g3558
sg62
(lp3570
S':'
asbag55
(g76
g57
NtRp3571
(dp3572
g60
(dp3573
sg69
g3558
sg62
(lp3574
g55
(g56
g57
NtRp3575
(dp3576
g60
(dp3577
g68
I5
ssg69
g3571
sg62
(lp3578
g55
(g64
g57
NtRp3579
(dp3580
g60
(dp3581
g68
I4
ssg69
Nsg62
(lp3582
g55
(g71
g57
NtRp3583
(dp3584
g60
(dp3585
sg69
g3579
sg62
(lp3586
g55
(g76
g57
NtRp3587
(dp3588
g60
(dp3589
sg69
g3583
sg62
(lp3590
g55
(g56
g57
NtRp3591
(dp3592
g60
(dp3593
g68
I4
ssg69
g3587
sg62
(lp3594
S'*'
asbasbasbasbasbasbasbag55
(g71
g57
NtRp3595
(dp3596
g60
(dp3597
sg69
g3227
sg62
(lp3598
g55
(g76
g57
NtRp3599
(dp3600
g60
(dp3601
g80
g81
ssg69
g3595
sg62
(lp3602
S'headers'
p3603
asbag55
(g76
g57
NtRp3604
(dp3605
g60
(dp3606
g87
g88
ssg69
g3595
sg62
(lp3607
S':'
asbag55
(g76
g57
NtRp3608
(dp3609
g60
(dp3610
sg69
g3595
sg62
(lp3611
g55
(g56
g57
NtRp3612
(dp3613
g60
(dp3614
g68
I5
ssg69
g3608
sg62
(lp3615
g55
(g64
g57
NtRp3616
(dp3617
g60
(dp3618
g68
I4
ssg69
Nsg62
(lp3619
g55
(g71
g57
NtRp3620
(dp3621
g60
(dp3622
sg69
g3616
sg62
(lp3623
g55
(g76
g57
NtRp3624
(dp3625
g60
(dp3626
g80
g81
ssg69
g3620
sg62
(lp3627
S'Cache-Control'
p3628
asbag55
(g76
g57
NtRp3629
(dp3630
g60
(dp3631
g87
g88
ssg69
g3620
sg62
(lp3632
S':'
asbag55
(g76
g57
NtRp3633
(dp3634
g60
(dp3635
sg69
g3620
sg62
(lp3636
g55
(g56
g57
NtRp3637
(dp3638
g60
(dp3639
g68
I4
ssg69
g3633
sg62
(lp3640
S'no-store, no-cache, must-revalidate, post-check=0, pre-check=0'
p3641
asbasbasbag55
(g71
g57
NtRp3642
(dp3643
g60
(dp3644
sg69
g3616
sg62
(lp3645
g55
(g76
g57
NtRp3646
(dp3647
g60
(dp3648
g80
g81
ssg69
g3642
sg62
(lp3649
S'Content-Type'
p3650
asbag55
(g76
g57
NtRp3651
(dp3652
g60
(dp3653
g87
g88
ssg69
g3642
sg62
(lp3654
S':'
asbag55
(g76
g57
NtRp3655
(dp3656
g60
(dp3657
sg69
g3642
sg62
(lp3658
g55
(g56
g57
NtRp3659
(dp3660
g60
(dp3661
g68
I4
ssg69
g3655
sg62
(lp3662
S'text/html; charset=utf-8'
p3663
asbasbasbag55
(g71
g57
NtRp3664
(dp3665
g60
(dp3666
sg69
g3616
sg62
(lp3667
g55
(g76
g57
NtRp3668
(dp3669
g60
(dp3670
g80
g81
ssg69
g3664
sg62
(lp3671
S'Expires'
p3672
asbag55
(g76
g57
NtRp3673
(dp3674
g60
(dp3675
g87
g88
ssg69
g3664
sg62
(lp3676
S':'
asbag55
(g76
g57
NtRp3677
(dp3678
g60
(dp3679
sg69
g3664
sg62
(lp3680
g55
(g56
g57
NtRp3681
(dp3682
g60
(dp3683
g68
I4
ssg69
g3677
sg62
(lp3684
S'Sat, 09 May 2015 14:06:37 GMT'
p3685
asbasbasbag55
(g71
g57
NtRp3686
(dp3687
g60
(dp3688
sg69
g3616
sg62
(lp3689
g55
(g76
g57
NtRp3690
(dp3691
g60
(dp3692
g80
g81
ssg69
g3686
sg62
(lp3693
S'Pragma'
p3694
asbag55
(g76
g57
NtRp3695
(dp3696
g60
(dp3697
g87
g88
ssg69
g3686
sg62
(lp3698
S':'
asbag55
(g76
g57
NtRp3699
(dp3700
g60
(dp3701
sg69
g3686
sg62
(lp3702
g55
(g56
g57
NtRp3703
(dp3704
g60
(dp3705
g68
I4
ssg69
g3699
sg62
(lp3706
S'no-cache'
p3707
asbasbasbag55
(g71
g57
NtRp3708
(dp3709
g60
(dp3710
sg69
g3616
sg62
(lp3711
g55
(g76
g57
NtRp3712
(dp3713
g60
(dp3714
g80
g81
ssg69
g3708
sg62
(lp3715
S'X-Powered-By'
p3716
asbag55
(g76
g57
NtRp3717
(dp3718
g60
(dp3719
g87
g88
ssg69
g3708
sg62
(lp3720
S':'
asbag55
(g76
g57
NtRp3721
(dp3722
g60
(dp3723
sg69
g3708
sg62
(lp3724
g55
(g56
g57
NtRp3725
(dp3726
g60
(dp3727
g68
I4
ssg69
g3721
sg62
(lp3728
S'web2py'
p3729
asbasbasbasbasbasbasbag55
(g71
g57
NtRp3730
(dp3731
g60
(dp3732
sg69
g3227
sg62
(lp3733
g55
(g76
g57
NtRp3734
(dp3735
g60
(dp3736
g80
g81
ssg69
g3730
sg62
(lp3737
S'menu'
p3738
asbag55
(g76
g57
NtRp3739
(dp3740
g60
(dp3741
g87
g88
ssg69
g3730
sg62
(lp3742
S':'
asbag55
(g76
g57
NtRp3743
(dp3744
g60
(dp3745
sg69
g3730
sg62
(lp3746
g55
(g56
g57
NtRp3747
(dp3748
g60
(dp3749
g68
I5
ssg69
g3743
sg62
(lp3750
g55
(g64
g57
NtRp3751
(dp3752
g60
(dp3753
g68
I4
ssg69
Nsg62
(lp3754
g55
(g71
g57
NtRp3755
(dp3756
g60
(dp3757
sg69
g3751
sg62
(lp3758
g55
(g76
g57
NtRp3759
(dp3760
g60
(dp3761
sg69
g3755
sg62
(lp3762
g55
(g56
g57
NtRp3763
(dp3764
g60
(dp3765
g68
I4
ssg69
g3759
sg62
(lp3766
g55
(g64
g57
NtRp3767
(dp3768
g60
(dp3769
g68
I3
ssg69
Nsg62
(lp3770
g55
(g71
g57
NtRp3771
(dp3772
g60
(dp3773
sg69
g3767
sg62
(lp3774
g55
(g76
g57
NtRp3775
(dp3776
g60
(dp3777
sg69
g3771
sg62
(lp3778
g55
(g56
g57
NtRp3779
(dp3780
g60
(dp3781
g68
I3
ssg69
g3775
sg62
(lp3782
cgluon.languages
lazyT_unpickle
p3783
(S't\x04\x00\x00\x00Home'
tRp3784
asbasbasbag55
(g71
g57
NtRp3785
(dp3786
g60
(dp3787
sg69
g3767
sg62
(lp3788
g55
(g76
g57
NtRp3789
(dp3790
g60
(dp3791
sg69
g3785
sg62
(lp3792
g55
(g56
g57
NtRp3793
(dp3794
g60
(dp3795
g68
I3
ssg69
g3789
sg62
(lp3796
g98
asbasbasbag55
(g71
g57
NtRp3797
(dp3798
g60
(dp3799
sg69
g3767
sg62
(lp3800
g55
(g76
g57
NtRp3801
(dp3802
g60
(dp3803
sg69
g3797
sg62
(lp3804
g55
(g56
g57
NtRp3805
(dp3806
g60
(dp3807
g68
I3
ssg69
g3801
sg62
(lp3808
S'/newsapp/default/index'
p3809
asbasbasbag55
(g71
g57
NtRp3810
(dp3811
g60
(dp3812
sg69
g3767
sg62
(lp3813
g55
(g76
g57
NtRp3814
(dp3815
g60
(dp3816
sg69
g3810
sg62
(lp3817
g55
(g56
g57
NtRp3818
(dp3819
g60
(dp3820
g68
I3
ssg69
g3814
sg62
(lp3821
g55
(g64
g57
NtRp3822
(dp3823
g60
(dp3824
g68
I2
ssg69
Nsg62
(lp3825
sbasbasbasbasbasbasbasbag55
(g71
g57
NtRp3826
(dp3827
g60
(dp3828
sg69
g3751
sg62
(lp3829
g55
(g76
g57
NtRp3830
(dp3831
g60
(dp3832
sg69
g3826
sg62
(lp3833
g55
(g56
g57
NtRp3834
(dp3835
g60
(dp3836
g68
I4
ssg69
g3830
sg62
(lp3837
g55
(g64
g57
NtRp3838
(dp3839
g60
(dp3840
g68
I3
ssg69
Nsg62
(lp3841
g55
(g71
g57
NtRp3842
(dp3843
g60
(dp3844
sg69
g3838
sg62
(lp3845
g55
(g76
g57
NtRp3846
(dp3847
g60
(dp3848
sg69
g3842
sg62
(lp3849
g55
(g56
g57
NtRp3850
(dp3851
g60
(dp3852
g68
I3
ssg69
g3846
sg62
(lp3853
g55
(cgluon.html
SPAN
p3854
g57
NtRp3855
(dp3856
g60
(dp3857
g80
S'color:yellow'
p3858
ssg69
Nsg62
(lp3859
g3729
asbasbasbasbag55
(g71
g57
NtRp3860
(dp3861
g60
(dp3862
sg69
g3838
sg62
(lp3863
g55
(g76
g57
NtRp3864
(dp3865
g60
(dp3866
sg69
g3860
sg62
(lp3867
g55
(g56
g57
NtRp3868
(dp3869
g60
(dp3870
g68
I3
ssg69
g3864
sg62
(lp3871
g98
asbasbasbag55
(g71
g57
NtRp3872
(dp3873
g60
(dp3874
sg69
g3838
sg62
(lp3875
g55
(g76
g57
NtRp3876
(dp3877
g60
(dp3878
sg69
g3872
sg62
(lp3879
g55
(g56
g57
NtRp3880
(dp3881
g60
(dp3882
g68
I3
ssg69
g3876
sg62
(lp3883
S'None'
p3884
asbasbasbag55
(g71
g57
NtRp3885
(dp3886
g60
(dp3887
sg69
g3838
sg62
(lp3888
g55
(g76
g57
NtRp3889
(dp3890
g60
(dp3891
sg69
g3885
sg62
(lp3892
g55
(g56
g57
NtRp3893
(dp3894
g60
(dp3895
g68
I3
ssg69
g3889
sg62
(lp3896
g55
(g64
g57
NtRp3897
(dp3898
g60
(dp3899
g68
I2
ssg69
Nsg62
(lp3900
g55
(g71
g57
NtRp3901
(dp3902
g60
(dp3903
sg69
g3897
sg62
(lp3904
g55
(g76
g57
NtRp3905
(dp3906
g60
(dp3907
sg69
g3901
sg62
(lp3908
g55
(g56
g57
NtRp3909
(dp3910
g60
(dp3911
g68
I2
ssg69
g3905
sg62
(lp3912
g55
(g64
g57
NtRp3913
(dp3914
g60
(dp3915
g68
I1
ssg69
Nsg62
(lp3916
g55
(g71
g57
NtRp3917
(dp3918
g60
(dp3919
sg69
g3913
sg62
(lp3920
g55
(g76
g57
NtRp3921
(dp3922
g60
(dp3923
sg69
g3917
sg62
(lp3924
g55
(g56
g57
NtRp3925
(dp3926
g60
(dp3927
g68
I1
ssg69
g3921
sg62
(lp3928
g3783
(S's\x08\x00\x00\x00My Sites'
tRp3929
asbasbasbag55
(g71
g57
NtRp3930
(dp3931
g60
(dp3932
sg69
g3913
sg62
(lp3933
g55
(g76
g57
NtRp3934
(dp3935
g60
(dp3936
sg69
g3930
sg62
(lp3937
g55
(g56
g57
NtRp3938
(dp3939
g60
(dp3940
g68
I1
ssg69
g3934
sg62
(lp3941
I00
asbasbasbag55
(g71
g57
NtRp3942
(dp3943
g60
(dp3944
sg69
g3913
sg62
(lp3945
g55
(g76
g57
NtRp3946
(dp3947
g60
(dp3948
sg69
g3942
sg62
(lp3949
g55
(g56
g57
NtRp3950
(dp3951
g60
(dp3952
g68
I1
ssg69
g3946
sg62
(lp3953
S'/admin/default/site'
p3954
asbasbasbasbasbasbasbag55
(g71
g57
NtRp3955
(dp3956
g60
(dp3957
sg69
g3897
sg62
(lp3958
g55
(g76
g57
NtRp3959
(dp3960
g60
(dp3961
sg69
g3955
sg62
(lp3962
g55
(g56
g57
NtRp3963
(dp3964
g60
(dp3965
g68
I2
ssg69
g3959
sg62
(lp3966
g55
(g64
g57
NtRp3967
(dp3968
g60
(dp3969
g68
I1
ssg69
Nsg62
(lp3970
g55
(g71
g57
NtRp3971
(dp3972
g60
(dp3973
sg69
g3967
sg62
(lp3974
g55
(g76
g57
NtRp3975
(dp3976
g60
(dp3977
sg69
g3971
sg62
(lp3978
g55
(g56
g57
NtRp3979
(dp3980
g60
(dp3981
g68
I1
ssg69
g3975
sg62
(lp3982
g3783
(S's\x08\x00\x00\x00This App'
tRp3983
asbasbasbag55
(g71
g57
NtRp3984
(dp3985
g60
(dp3986
sg69
g3967
sg62
(lp3987
g55
(g76
g57
NtRp3988
(dp3989
g60
(dp3990
sg69
g3984
sg62
(lp3991
g55
(g56
g57
NtRp3992
(dp3993
g60
(dp3994
g68
I1
ssg69
g3988
sg62
(lp3995
I00
asbasbasbag55
(g71
g57
NtRp3996
(dp3997
g60
(dp3998
sg69
g3967
sg62
(lp3999
g55
(g76
g57
NtRp4000
(dp4001
g60
(dp4002
sg69
g3996
sg62
(lp4003
g55
(g56
g57
NtRp4004
(dp4005
g60
(dp4006
g68
I1
ssg69
g4000
sg62
(lp4007
S'/admin/default/design/newsapp'
p4008
asbasbasbag55
(g71
g57
NtRp4009
(dp4010
g60
(dp4011
sg69
g3967
sg62
(lp4012
g55
(g76
g57
NtRp4013
(dp4014
g60
(dp4015
sg69
g4009
sg62
(lp4016
g55
(g56
g57
NtRp4017
(dp4018
g60
(dp4019
g68
I1
ssg69
g4013
sg62
(lp4020
(lp4021
(g3783
(S't\n\x00\x00\x00Controller'
tRp4022
I00
S'/admin/default/edit/newsapp/controllers/default.py'
tp4023
a(g3783
(S't\x04\x00\x00\x00View'
tRp4024
I00
S'/admin/default/edit/newsapp/views/default/trends.html'
tp4025
a(g3783
(S't\x06\x00\x00\x00Layout'
tRp4026
I00
S'/admin/default/edit/newsapp/views/layout.html'
tp4027
a(g3783
(S't\n\x00\x00\x00Stylesheet'
tRp4028
I00
S'/admin/default/edit/newsapp/static/css/web2py.css'
tp4029
a(g3783
(S's\x08\x00\x00\x00DB Model'
tRp4030
I00
S'/admin/default/edit/newsapp/models/db.py'
tp4031
a(g3783
(S's\n\x00\x00\x00Menu Model'
tRp4032
I00
S'/admin/default/edit/newsapp/models/menu.py'
tp4033
a(g3783
(S't\x08\x00\x00\x00Database'
tRp4034
I00
S'/newsapp/appadmin/index'
tp4035
a(g3783
(S't\x06\x00\x00\x00Errors'
tRp4036
I00
S'/admin/default/errors/newsapp'
tp4037
a(g3783
(S't\x05\x00\x00\x00About'
tRp4038
I00
S'/admin/default/about/newsapp'
tp4039
aasbasbasbasbasbasbasbag55
(g71
g57
NtRp4040
(dp4041
g60
(dp4042
sg69
g3897
sg62
(lp4043
g55
(g76
g57
NtRp4044
(dp4045
g60
(dp4046
sg69
g4040
sg62
(lp4047
g55
(g56
g57
NtRp4048
(dp4049
g60
(dp4050
g68
I2
ssg69
g4044
sg62
(lp4051
g55
(g64
g57
NtRp4052
(dp4053
g60
(dp4054
g68
I1
ssg69
Nsg62
(lp4055
g55
(g71
g57
NtRp4056
(dp4057
g60
(dp4058
sg69
g4052
sg62
(lp4059
g55
(g76
g57
NtRp4060
(dp4061
g60
(dp4062
sg69
g4056
sg62
(lp4063
g55
(g56
g57
NtRp4064
(dp4065
g60
(dp4066
g68
I1
ssg69
g4060
sg62
(lp4067
S'web2py.com'
p4068
asbasbasbag55
(g71
g57
NtRp4069
(dp4070
g60
(dp4071
sg69
g4052
sg62
(lp4072
g55
(g76
g57
NtRp4073
(dp4074
g60
(dp4075
sg69
g4069
sg62
(lp4076
g55
(g56
g57
NtRp4077
(dp4078
g60
(dp4079
g68
I1
ssg69
g4073
sg62
(lp4080
I00
asbasbasbag55
(g71
g57
NtRp4081
(dp4082
g60
(dp4083
sg69
g4052
sg62
(lp4084
g55
(g76
g57
NtRp4085
(dp4086
g60
(dp4087
sg69
g4081
sg62
(lp4088
g55
(g56
g57
NtRp4089
(dp4090
g60
(dp4091
g68
I1
ssg69
g4085
sg62
(lp4092
S'http://www.web2py.com'
p4093
asbasbasbag55
(g71
g57
NtRp4094
(dp4095
g60
(dp4096
sg69
g4052
sg62
(lp4097
g55
(g76
g57
NtRp4098
(dp4099
g60
(dp4100
sg69
g4094
sg62
(lp4101
g55
(g56
g57
NtRp4102
(dp4103
g60
(dp4104
g68
I1
ssg69
g4098
sg62
(lp4105
(lp4106
(g3783
(S't\x08\x00\x00\x00Download'
tRp4107
I00
S'http://www.web2py.com/examples/default/download'
p4108
tp4109
a(g3783
(S't\x07\x00\x00\x00Support'
tRp4110
I00
S'http://www.web2py.com/examples/default/support'
p4111
tp4112
a(g3783
(S't\x04\x00\x00\x00Demo'
tRp4113
I00
S'http://web2py.com/demo_admin'
p4114
tp4115
a(g3783
(S's\x0e\x00\x00\x00Quick Examples'
tRp4116
I00
S'http://web2py.com/examples/default/examples'
p4117
tp4118
a(g3783
(S't\x03\x00\x00\x00FAQ'
tRp4119
I00
S'http://web2py.com/AlterEgo'
p4120
tp4121
a(g3783
(S't\x06\x00\x00\x00Videos'
tRp4122
I00
S'http://www.web2py.com/examples/default/videos/'
p4123
tp4124
a(g3783
(S's\x11\x00\x00\x00Free Applications'
tRp4125
I00
S'http://web2py.com/appliances'
p4126
tp4127
a(g3783
(S't\x07\x00\x00\x00Plugins'
tRp4128
I00
S'http://web2py.com/plugins'
p4129
tp4130
a(g3783
(S't\x07\x00\x00\x00Layouts'
tRp4131
I00
S'http://web2py.com/layouts'
p4132
tp4133
a(g3783
(S't\x07\x00\x00\x00Recipes'
tRp4134
I00
S'http://web2pyslices.com/'
p4135
tp4136
a(g3783
(S't\x08\x00\x00\x00Semantic'
tRp4137
I00
S'http://web2py.com/semantic'
p4138
tp4139
aasbasbasbasbasbasbasbag55
(g71
g57
NtRp4140
(dp4141
g60
(dp4142
sg69
g3897
sg62
(lp4143
g55
(g76
g57
NtRp4144
(dp4145
g60
(dp4146
sg69
g4140
sg62
(lp4147
g55
(g56
g57
NtRp4148
(dp4149
g60
(dp4150
g68
I2
ssg69
g4144
sg62
(lp4151
g55
(g64
g57
NtRp4152
(dp4153
g60
(dp4154
g68
I1
ssg69
Nsg62
(lp4155
g55
(g71
g57
NtRp4156
(dp4157
g60
(dp4158
sg69
g4152
sg62
(lp4159
g55
(g76
g57
NtRp4160
(dp4161
g60
(dp4162
sg69
g4156
sg62
(lp4163
g55
(g56
g57
NtRp4164
(dp4165
g60
(dp4166
g68
I1
ssg69
g4160
sg62
(lp4167
g3783
(S't\r\x00\x00\x00Documentation'
tRp4168
asbasbasbag55
(g71
g57
NtRp4169
(dp4170
g60
(dp4171
sg69
g4152
sg62
(lp4172
g55
(g76
g57
NtRp4173
(dp4174
g60
(dp4175
sg69
g4169
sg62
(lp4176
g55
(g56
g57
NtRp4177
(dp4178
g60
(dp4179
g68
I1
ssg69
g4173
sg62
(lp4180
I00
asbasbasbag55
(g71
g57
NtRp4181
(dp4182
g60
(dp4183
sg69
g4152
sg62
(lp4184
g55
(g76
g57
NtRp4185
(dp4186
g60
(dp4187
sg69
g4181
sg62
(lp4188
g55
(g56
g57
NtRp4189
(dp4190
g60
(dp4191
g68
I1
ssg69
g4185
sg62
(lp4192
S'http://www.web2py.com/book'
p4193
asbasbasbag55
(g71
g57
NtRp4194
(dp4195
g60
(dp4196
sg69
g4152
sg62
(lp4197
g55
(g76
g57
NtRp4198
(dp4199
g60
(dp4200
sg69
g4194
sg62
(lp4201
g55
(g56
g57
NtRp4202
(dp4203
g60
(dp4204
g68
I1
ssg69
g4198
sg62
(lp4205
(lp4206
(g3783
(S't\x07\x00\x00\x00Preface'
tRp4207
I00
S'http://www.web2py.com/book/default/chapter/00'
p4208
tp4209
a(g3783
(S't\x0c\x00\x00\x00Introduction'
tRp4210
I00
S'http://www.web2py.com/book/default/chapter/01'
p4211
tp4212
a(g3783
(S't\x06\x00\x00\x00Python'
tRp4213
I00
S'http://www.web2py.com/book/default/chapter/02'
p4214
tp4215
a(g3783
(S't\x08\x00\x00\x00Overview'
tRp4216
I00
S'http://www.web2py.com/book/default/chapter/03'
p4217
tp4218
a(g3783
(S's\x08\x00\x00\x00The Core'
tRp4219
I00
S'http://www.web2py.com/book/default/chapter/04'
p4220
tp4221
a(g3783
(S's\t\x00\x00\x00The Views'
tRp4222
I00
S'http://www.web2py.com/book/default/chapter/05'
p4223
tp4224
a(g3783
(S't\x08\x00\x00\x00Database'
tRp4225
I00
S'http://www.web2py.com/book/default/chapter/06'
p4226
tp4227
a(g3783
(S's\x14\x00\x00\x00Forms and Validators'
tRp4228
I00
S'http://www.web2py.com/book/default/chapter/07'
p4229
tp4230
a(g3783
(S's\r\x00\x00\x00Email and SMS'
tRp4231
I00
S'http://www.web2py.com/book/default/chapter/08'
p4232
tp4233
a(g3783
(S's\x0e\x00\x00\x00Access Control'
tRp4234
I00
S'http://www.web2py.com/book/default/chapter/09'
p4235
tp4236
a(g3783
(S't\x08\x00\x00\x00Services'
tRp4237
I00
S'http://www.web2py.com/book/default/chapter/10'
p4238
tp4239
a(g3783
(S's\x0c\x00\x00\x00Ajax Recipes'
tRp4240
I00
S'http://www.web2py.com/book/default/chapter/11'
p4241
tp4242
a(g3783
(S's\x16\x00\x00\x00Components and Plugins'
tRp4243
I00
S'http://www.web2py.com/book/default/chapter/12'
p4244
tp4245
a(g3783
(S's\x12\x00\x00\x00Deployment Recipes'
tRp4246
I00
S'http://www.web2py.com/book/default/chapter/13'
p4247
tp4248
a(g3783
(S's\r\x00\x00\x00Other Recipes'
tRp4249
I00
S'http://www.web2py.com/book/default/chapter/14'
p4250
tp4251
a(g3783
(S's\r\x00\x00\x00Buy this book'
tRp4252
I00
S'http://stores.lulu.com/web2py'
p4253
tp4254
aasbasbasbasbasbasbasbag55
(g71
g57
NtRp4255
(dp4256
g60
(dp4257
sg69
g3897
sg62
(lp4258
g55
(g76
g57
NtRp4259
(dp4260
g60
(dp4261
sg69
g4255
sg62
(lp4262
g55
(g56
g57
NtRp4263
(dp4264
g60
(dp4265
g68
I2
ssg69
g4259
sg62
(lp4266
g55
(g64
g57
NtRp4267
(dp4268
g60
(dp4269
g68
I1
ssg69
Nsg62
(lp4270
g55
(g71
g57
NtRp4271
(dp4272
g60
(dp4273
sg69
g4267
sg62
(lp4274
g55
(g76
g57
NtRp4275
(dp4276
g60
(dp4277
sg69
g4271
sg62
(lp4278
g55
(g56
g57
NtRp4279
(dp4280
g60
(dp4281
g68
I1
ssg69
g4275
sg62
(lp4282
g3783
(S't\t\x00\x00\x00Community'
tRp4283
asbasbasbag55
(g71
g57
NtRp4284
(dp4285
g60
(dp4286
sg69
g4267
sg62
(lp4287
g55
(g76
g57
NtRp4288
(dp4289
g60
(dp4290
sg69
g4284
sg62
(lp4291
g55
(g56
g57
NtRp4292
(dp4293
g60
(dp4294
g68
I1
ssg69
g4288
sg62
(lp4295
I00
asbasbasbag55
(g71
g57
NtRp4296
(dp4297
g60
(dp4298
sg69
g4267
sg62
(lp4299
g55
(g76
g57
NtRp4300
(dp4301
g60
(dp4302
sg69
g4296
sg62
(lp4303
g55
(g56
g57
NtRp4304
(dp4305
g60
(dp4306
g68
I1
ssg69
g4300
sg62
(lp4307
Nasbasbasbag55
(g71
g57
NtRp4308
(dp4309
g60
(dp4310
sg69
g4267
sg62
(lp4311
g55
(g76
g57
NtRp4312
(dp4313
g60
(dp4314
sg69
g4308
sg62
(lp4315
g55
(g56
g57
NtRp4316
(dp4317
g60
(dp4318
g68
I1
ssg69
g4312
sg62
(lp4319
(lp4320
(g3783
(S't\x06\x00\x00\x00Groups'
tRp4321
I00
S'http://www.web2py.com/examples/default/usergroups'
p4322
tp4323
a(g3783
(S't\x07\x00\x00\x00Twitter'
tRp4324
I00
S'http://twitter.com/web2py'
p4325
tp4326
a(g3783
(S's\t\x00\x00\x00Live Chat'
tRp4327
I00
S'http://webchat.freenode.net/?channels=web2py'
p4328
tp4329
aasbasbasbasbasbasbasbag55
(g71
g57
NtRp4330
(dp4331
g60
(dp4332
sg69
g3897
sg62
(lp4333
g55
(g76
g57
NtRp4334
(dp4335
g60
(dp4336
sg69
g4330
sg62
(lp4337
g55
(g56
g57
NtRp4338
(dp4339
g60
(dp4340
g68
I2
ssg69
g4334
sg62
(lp4341
g55
(g64
g57
NtRp4342
(dp4343
g60
(dp4344
g68
I1
ssg69
Nsg62
(lp4345
g55
(g71
g57
NtRp4346
(dp4347
g60
(dp4348
sg69
g4342
sg62
(lp4349
g55
(g76
g57
NtRp4350
(dp4351
g60
(dp4352
sg69
g4346
sg62
(lp4353
g55
(g56
g57
NtRp4354
(dp4355
g60
(dp4356
g68
I1
ssg69
g4350
sg62
(lp4357
g3783
(S't\x07\x00\x00\x00Plugins'
tRp4358
asbasbasbag55
(g71
g57
NtRp4359
(dp4360
g60
(dp4361
sg69
g4342
sg62
(lp4362
g55
(g76
g57
NtRp4363
(dp4364
g60
(dp4365
sg69
g4359
sg62
(lp4366
g55
(g56
g57
NtRp4367
(dp4368
g60
(dp4369
g68
I1
ssg69
g4363
sg62
(lp4370
I00
asbasbasbag55
(g71
g57
NtRp4371
(dp4372
g60
(dp4373
sg69
g4342
sg62
(lp4374
g55
(g76
g57
NtRp4375
(dp4376
g60
(dp4377
sg69
g4371
sg62
(lp4378
g55
(g56
g57
NtRp4379
(dp4380
g60
(dp4381
g68
I1
ssg69
g4375
sg62
(lp4382
Nasbasbasbag55
(g71
g57
NtRp4383
(dp4384
g60
(dp4385
sg69
g4342
sg62
(lp4386
g55
(g76
g57
NtRp4387
(dp4388
g60
(dp4389
sg69
g4383
sg62
(lp4390
g55
(g56
g57
NtRp4391
(dp4392
g60
(dp4393
g68
I1
ssg69
g4387
sg62
(lp4394
(lp4395
(S'plugin_wiki'
p4396
I00
S'http://web2py.com/examples/default/download'
p4397
tp4398
a(g3783
(S's\r\x00\x00\x00Other Plugins'
tRp4399
I00
g4129
tp4400
a(g3783
(S's\x0e\x00\x00\x00Layout Plugins'
tRp4401
I00
g4132
tp4402
aasbasbasbasbasbasbasbasbasbasbasbasbasbasbasbasbasbasbasbag55
(g71
g57
NtRp4403
(dp4404
g60
(dp4405
sg69
g3227
sg62
(lp4406
g55
(g76
g57
NtRp4407
(dp4408
g60
(dp4409
g80
g81
ssg69
g4403
sg62
(lp4410
S'meta'
p4411
asbag55
(g76
g57
NtRp4412
(dp4413
g60
(dp4414
g87
g88
ssg69
g4403
sg62
(lp4415
S':'
asbag55
(g76
g57
NtRp4416
(dp4417
g60
(dp4418
sg69
g4403
sg62
(lp4419
g55
(g56
g57
NtRp4420
(dp4421
g60
(dp4422
g68
I5
ssg69
g4416
sg62
(lp4423
g55
(g64
g57
NtRp4424
(dp4425
g60
(dp4426
g68
I4
ssg69
Nsg62
(lp4427
g55
(g71
g57
NtRp4428
(dp4429
g60
(dp4430
sg69
g4424
sg62
(lp4431
g55
(g76
g57
NtRp4432
(dp4433
g60
(dp4434
g80
g81
ssg69
g4428
sg62
(lp4435
S'author'
p4436
asbag55
(g76
g57
NtRp4437
(dp4438
g60
(dp4439
g87
g88
ssg69
g4428
sg62
(lp4440
S':'
asbag55
(g76
g57
NtRp4441
(dp4442
g60
(dp4443
sg69
g4428
sg62
(lp4444
g55
(g56
g57
NtRp4445
(dp4446
g60
(dp4447
g68
I4
ssg69
g4441
sg62
(lp4448
S'Your Name <you@example.com>'
p4449
asbasbasbag55
(g71
g57
NtRp4450
(dp4451
g60
(dp4452
sg69
g4424
sg62
(lp4453
g55
(g76
g57
NtRp4454
(dp4455
g60
(dp4456
g80
g81
ssg69
g4450
sg62
(lp4457
S'copyright'
p4458
asbag55
(g76
g57
NtRp4459
(dp4460
g60
(dp4461
g87
g88
ssg69
g4450
sg62
(lp4462
S':'
asbag55
(g76
g57
NtRp4463
(dp4464
g60
(dp4465
sg69
g4450
sg62
(lp4466
g55
(g56
g57
NtRp4467
(dp4468
g60
(dp4469
g68
I4
ssg69
g4463
sg62
(lp4470
S'Copyright 2011'
p4471
asbasbasbag55
(g71
g57
NtRp4472
(dp4473
g60
(dp4474
sg69
g4424
sg62
(lp4475
g55
(g76
g57
NtRp4476
(dp4477
g60
(dp4478
g80
g81
ssg69
g4472
sg62
(lp4479
S'description'
p4480
asbag55
(g76
g57
NtRp4481
(dp4482
g60
(dp4483
g87
g88
ssg69
g4472
sg62
(lp4484
S':'
asbag55
(g76
g57
NtRp4485
(dp4486
g60
(dp4487
sg69
g4472
sg62
(lp4488
g55
(g56
g57
NtRp4489
(dp4490
g60
(dp4491
g68
I4
ssg69
g4485
sg62
(lp4492
S'a cool new app'
p4493
asbasbasbag55
(g71
g57
NtRp4494
(dp4495
g60
(dp4496
sg69
g4424
sg62
(lp4497
g55
(g76
g57
NtRp4498
(dp4499
g60
(dp4500
g80
g81
ssg69
g4494
sg62
(lp4501
S'generator'
p4502
asbag55
(g76
g57
NtRp4503
(dp4504
g60
(dp4505
g87
g88
ssg69
g4494
sg62
(lp4506
S':'
asbag55
(g76
g57
NtRp4507
(dp4508
g60
(dp4509
sg69
g4494
sg62
(lp4510
g55
(g56
g57
NtRp4511
(dp4512
g60
(dp4513
g68
I4
ssg69
g4507
sg62
(lp4514
S'Web2py Web Framework'
p4515
asbasbasbag55
(g71
g57
NtRp4516
(dp4517
g60
(dp4518
sg69
g4424
sg62
(lp4519
g55
(g76
g57
NtRp4520
(dp4521
g60
(dp4522
g80
g81
ssg69
g4516
sg62
(lp4523
S'keywords'
p4524
asbag55
(g76
g57
NtRp4525
(dp4526
g60
(dp4527
g87
g88
ssg69
g4516
sg62
(lp4528
S':'
asbag55
(g76
g57
NtRp4529
(dp4530
g60
(dp4531
sg69
g4516
sg62
(lp4532
g55
(g56
g57
NtRp4533
(dp4534
g60
(dp4535
g68
I4
ssg69
g4529
sg62
(lp4536
S'web2py, python, framework'
p4537
asbasbasbasbasbasbasbag55
(g71
g57
NtRp4538
(dp4539
g60
(dp4540
sg69
g3227
sg62
(lp4541
g55
(g76
g57
NtRp4542
(dp4543
g60
(dp4544
g80
g81
ssg69
g4538
sg62
(lp4545
S'postprocessing'
p4546
asbag55
(g76
g57
NtRp4547
(dp4548
g60
(dp4549
g87
g88
ssg69
g4538
sg62
(lp4550
S':'
asbag55
(g76
g57
NtRp4551
(dp4552
g60
(dp4553
sg69
g4538
sg62
(lp4554
g55
(g56
g57
NtRp4555
(dp4556
g60
(dp4557
g68
I5
ssg69
g4551
sg62
(lp4558
g55
(g64
g57
NtRp4559
(dp4560
g60
(dp4561
g68
I4
ssg69
Nsg62
(lp4562
sbasbasbasbag55
(g71
g57
NtRp4563
(dp4564
g60
(dp4565
sg69
g3227
sg62
(lp4566
g55
(g76
g57
NtRp4567
(dp4568
g60
(dp4569
g80
g81
ssg69
g4563
sg62
(lp4570
S'session_file'
p4571
asbag55
(g76
g57
NtRp4572
(dp4573
g60
(dp4574
g87
g88
ssg69
g4563
sg62
(lp4575
S':'
asbag55
(g76
g57
NtRp4576
(dp4577
g60
(dp4578
sg69
g4563
sg62
(lp4579
g55
(g56
g57
NtRp4580
(dp4581
g60
(dp4582
g68
I5
ssg69
g4576
sg62
(lp4583
S"<open file '/home/pooja/web2py/applications/newsapp/sessions/127.0.0.1-d05dcd52-8177-4b76-8afc-d26144393d56', mode 'rb+' at 0x7f76a3eebdb0>"
p4584
asbasbasbag55
(g71
g57
NtRp4585
(dp4586
g60
(dp4587
sg69
g3227
sg62
(lp4588
g55
(g76
g57
NtRp4589
(dp4590
g60
(dp4591
g80
g81
ssg69
g4585
sg62
(lp4592
S'session_filename'
p4593
asbag55
(g76
g57
NtRp4594
(dp4595
g60
(dp4596
g87
g88
ssg69
g4585
sg62
(lp4597
S':'
asbag55
(g76
g57
NtRp4598
(dp4599
g60
(dp4600
sg69
g4585
sg62
(lp4601
g55
(g56
g57
NtRp4602
(dp4603
g60
(dp4604
g68
I5
ssg69
g4598
sg62
(lp4605
S'/home/pooja/web2py/applications/newsapp/sessions/127.0.0.1-d05dcd52-8177-4b76-8afc-d26144393d56'
p4606
asbasbasbag55
(g71
g57
NtRp4607
(dp4608
g60
(dp4609
sg69
g3227
sg62
(lp4610
g55
(g76
g57
NtRp4611
(dp4612
g60
(dp4613
g80
g81
ssg69
g4607
sg62
(lp4614
S'session_id'
p4615
asbag55
(g76
g57
NtRp4616
(dp4617
g60
(dp4618
g87
g88
ssg69
g4607
sg62
(lp4619
S':'
asbag55
(g76
g57
NtRp4620
(dp4621
g60
(dp4622
sg69
g4607
sg62
(lp4623
g55
(g56
g57
NtRp4624
(dp4625
g60
(dp4626
g68
I5
ssg69
g4620
sg62
(lp4627
S'127.0.0.1-d05dcd52-8177-4b76-8afc-d26144393d56'
p4628
asbasbasbag55
(g71
g57
NtRp4629
(dp4630
g60
(dp4631
sg69
g3227
sg62
(lp4632
g55
(g76
g57
NtRp4633
(dp4634
g60
(dp4635
g80
g81
ssg69
g4629
sg62
(lp4636
S'session_id_name'
p4637
asbag55
(g76
g57
NtRp4638
(dp4639
g60
(dp4640
g87
g88
ssg69
g4629
sg62
(lp4641
S':'
asbag55
(g76
g57
NtRp4642
(dp4643
g60
(dp4644
sg69
g4629
sg62
(lp4645
g55
(g56
g57
NtRp4646
(dp4647
g60
(dp4648
g68
I5
ssg69
g4642
sg62
(lp4649
g3284
asbasbasbag55
(g71
g57
NtRp4650
(dp4651
g60
(dp4652
sg69
g3227
sg62
(lp4653
g55
(g76
g57
NtRp4654
(dp4655
g60
(dp4656
g80
g81
ssg69
g4650
sg62
(lp4657
S'session_locked'
p4658
asbag55
(g76
g57
NtRp4659
(dp4660
g60
(dp4661
g87
g88
ssg69
g4650
sg62
(lp4662
S':'
asbag55
(g76
g57
NtRp4663
(dp4664
g60
(dp4665
sg69
g4650
sg62
(lp4666
g55
(g56
g57
NtRp4667
(dp4668
g60
(dp4669
g68
I5
ssg69
g4663
sg62
(lp4670
g1632
asbasbasbag55
(g71
g57
NtRp4671
(dp4672
g60
(dp4673
sg69
g3227
sg62
(lp4674
g55
(g76
g57
NtRp4675
(dp4676
g60
(dp4677
g80
g81
ssg69
g4671
sg62
(lp4678
S'session_new'
p4679
asbag55
(g76
g57
NtRp4680
(dp4681
g60
(dp4682
g87
g88
ssg69
g4671
sg62
(lp4683
S':'
asbag55
(g76
g57
NtRp4684
(dp4685
g60
(dp4686
sg69
g4671
sg62
(lp4687
g55
(g56
g57
NtRp4688
(dp4689
g60
(dp4690
g68
I5
ssg69
g4684
sg62
(lp4691
g98
asbasbasbag55
(g71
g57
NtRp4692
(dp4693
g60
(dp4694
sg69
g3227
sg62
(lp4695
g55
(g76
g57
NtRp4696
(dp4697
g60
(dp4698
g80
g81
ssg69
g4692
sg62
(lp4699
S'status'
p4700
asbag55
(g76
g57
NtRp4701
(dp4702
g60
(dp4703
g87
g88
ssg69
g4692
sg62
(lp4704
S':'
asbag55
(g76
g57
NtRp4705
(dp4706
g60
(dp4707
sg69
g4692
sg62
(lp4708
g55
(g56
g57
NtRp4709
(dp4710
g60
(dp4711
g68
I5
ssg69
g4705
sg62
(lp4712
S'200'
p4713
asbasbasbag55
(g71
g57
NtRp4714
(dp4715
g60
(dp4716
sg69
g3227
sg62
(lp4717
g55
(g76
g57
NtRp4718
(dp4719
g60
(dp4720
g80
g81
ssg69
g4714
sg62
(lp4721
S'subtitle'
p4722
asbag55
(g76
g57
NtRp4723
(dp4724
g60
(dp4725
g87
g88
ssg69
g4714
sg62
(lp4726
S':'
asbag55
(g76
g57
NtRp4727
(dp4728
g60
(dp4729
sg69
g4714
sg62
(lp4730
g55
(g56
g57
NtRp4731
(dp4732
g60
(dp4733
g68
I5
ssg69
g4727
sg62
(lp4734
g3783
(S's\r\x00\x00\x00customize me!'
tRp4735
asbasbasbag55
(g71
g57
NtRp4736
(dp4737
g60
(dp4738
sg69
g3227
sg62
(lp4739
g55
(g76
g57
NtRp4740
(dp4741
g60
(dp4742
g80
g81
ssg69
g4736
sg62
(lp4743
S'title'
p4744
asbag55
(g76
g57
NtRp4745
(dp4746
g60
(dp4747
g87
g88
ssg69
g4736
sg62
(lp4748
S':'
asbag55
(g76
g57
NtRp4749
(dp4750
g60
(dp4751
sg69
g4736
sg62
(lp4752
g55
(g56
g57
NtRp4753
(dp4754
g60
(dp4755
g68
I5
ssg69
g4749
sg62
(lp4756
S'Newsapp'
p4757
asbasbasbag55
(g71
g57
NtRp4758
(dp4759
g60
(dp4760
sg69
g3227
sg62
(lp4761
g55
(g76
g57
NtRp4762
(dp4763
g60
(dp4764
g80
g81
ssg69
g4758
sg62
(lp4765
g2296
asbag55
(g76
g57
NtRp4766
(dp4767
g60
(dp4768
g87
g88
ssg69
g4758
sg62
(lp4769
S':'
asbag55
(g76
g57
NtRp4770
(dp4771
g60
(dp4772
sg69
g4758
sg62
(lp4773
g55
(g56
g57
NtRp4774
(dp4775
g60
(dp4776
g68
I5
ssg69
g4770
sg62
(lp4777
g2309
asbasbasbag55
(g71
g57
NtRp4778
(dp4779
g60
(dp4780
sg69
g3227
sg62
(lp4781
g55
(g76
g57
NtRp4782
(dp4783
g60
(dp4784
g80
g81
ssg69
g4778
sg62
(lp4785
g53
asbag55
(g76
g57
NtRp4786
(dp4787
g60
(dp4788
g87
g88
ssg69
g4778
sg62
(lp4789
S':'
asbag55
(g76
g57
NtRp4790
(dp4791
g60
(dp4792
sg69
g4778
sg62
(lp4793
g55
(g56
g57
NtRp4794
(dp4795
g60
(dp4796
g68
I5
ssg69
g4790
sg62
(lp4797
S'default/trends.html'
p4798
asbasbasbasbasbsS'locals'
p4799
(dp4800
S'self'
p4801
S"{'content-length': '88408', 'x-rate-limit-reset'...'content-type': 'application/json;charset=utf-8'}"
p4802
sS'name'
p4803
S"'view'"
p4804
sssS'traceback'
p4805
S'Traceback (most recent call last):\n  File "/usr/lib/pymodules/python2.7/gluon/main.py", line 498, in wsgibase\n    serve_controller(request, response, session)\n  File "/usr/lib/pymodules/python2.7/gluon/main.py", line 207, in serve_controller\n    run_view_in(response._view_environment)\n  File "/usr/lib/pymodules/python2.7/gluon/compileapp.py", line 596, in run_view_in\n    badv = \'invalid view (%s)\' % response.view\n  File "/usr/lib/python2.7/dist-packages/httplib2/__init__.py", line 1656, in __getattr__\n    raise AttributeError, name\nAttributeError: view\n'
p4806
s.