(dp1
S'output'
p2
S"<class 'urllib2.HTTPError'> HTTP Error 400: Bad Request"
p3
sS'layer'
p4
S'/home/pooja/web2py/applications/newsapp/controllers/default.py'
p5
sS'code'
p6
S'import urllib,urllib2\nfrom urlparse import *\nimport json\nimport sys\nimport os\n#from oauth2 import *\nimport oauth2 as oauth\n\ndef index():\n    return dict()\n\ndef tw_signin():\n    app = oauth.Consumer(key= "dJvGhNEaw6ivlQGals8g1mMu9", secret= "n5qBLoWVO77KHLfAUB1Z5wTYtO7ed62XmNbq52bmYjEFYdJNQi")\n    client = oauth.Client(app)\n    response, content = client.request(\'https://twitter.com/oauth/request_token\', "GET")\n    if response[\'status\'] != \'200\':\n        raise HTTP(response[\'status\']),str(content)\n    request_token = dict(parse_qsl(content))\n    session.request_token = request_token\n    redirect_location = "%s?oauth_token=%s" % (\'https://twitter.com/oauth/authenticate\', request_token[\'oauth_token\'])\n    redirect(redirect_location)\n    return\n\ndef permission():\n    if not(session.request_token is None):\n        consumer = oauth.Consumer(key=twconfig.app_key, secret= twconfig.app_secret)\n        token = None\n        try:\n            token = Token(session.request_token[\'oauth_token\'],session.request_token[\'oauth_token_secret\'])\n        except:\n            redirect(URL(r=request,c=\'default\', f=\'index\'))\n        token.set_verifier(request.vars[\'oauth_verifier\'])\n        client = oauth.Client(consumer, token)\n        response, content = client.request(\'https://twitter.com/oauth/access_token\', "POST")\n        if response[\'status\'] == \'401\':\n            BEAUTIFY("you have denied the request")\n            redirect(URL(r=request,c=\'default\', f=\'index\'))\n        if response[\'status\'] != \'200\':\n            return response[\'status\'],str(content)\n        access_token = dict(parse_qsl(content))\n        session.access_token = access_token\n        user_id = int(access_token[\'user_id\'])\n        name =(access_token[\'screen_name\'])\n        tw_status_query = """\n            INSERT IGNORE INTO  tw_details(screen_name,user_id,tw_token,tw_token_secret) VALUES (\'%s\',\'%s\',\'%s\',\'%s\')\n    ON DUPLICATE KEY UPDATE tw_token=\'%s\',tw_token_secret=\'%s\';"""%(name,user_id,session.access_token[\'oauth_token\'],session.access_token[\'oauth_token_secret\'],session.access_token[\'oauth_token\'],session.access_token[\'oauth_token_secret\'])\n    tw_status = db.executesql(tw_status_query)\n    return dict()\n\ndef get_extented_token():\n    token = request.vars.token\n    url1 = "https://graph.facebook.com/"\n    url1 += \'me?access_token=%s\'%(token)\n    details = urllib2.urlopen(url1)\n    dict_response = json.loads(details.read())\n    name = dict_response[\'name\']\n    email_id = dict_response[\'email\']\n    fb_id = dict_response[\'id\']\n    session.email_id = email_id\n    session.fb_id = fb_id\n    url = "https://graph.facebook.com/"\n    url += "oauth/access_token?client_id="+fbconfig.app_id+"&client_secret="+fbconfig.app_secret\n    url += "&grant_type=fb_exchange_token"\n    url += "&fb_exchange_token=%s"%(token)\n\n    data = urllib2.urlopen(url)\n\n    interm = data.read().split("=")\n    token = interm[1].split("&")\n    extended_token = token[0]\n    session.extended_token = extended_token\n    expires = interm[2]\n\ndef fbuser():\n    token = request.vars.token\n    url1 = "https://graph.facebook.com/"\n    url1 += \'me?access_token=%s\'%(token)\n    details = urllib2.urlopen(url1)\n    dict_response = json.loads(details.read())\n    name = dict_response[\'name\']\n    email_id = ""\n    try:\n        email_id = dict_response[\'email\']\n    except:\n        pass\n    fb_id = dict_response[\'id\']\n    url = "https://graph.facebook.com/"\n    url += "oauth/access_token?client_id="+fbconfig.app_id+"&client_secret="+fbconfig.app_secret\n    url += "&grant_type=fb_exchange_token"\n    url += "&fb_exchange_token=%s"%(token)\n\n    data = urllib2.urlopen(url)\n    interm = data.read().split("=")\n    token = interm[1].split("&")\n    extended_token = token[0]\n    session.extended_token = extended_token\n    expires = interm[2]\n    fb_status = db.executesql("""INSERT IGNORE INTO  fb_details(name,email_id,fb_id,access_token,expiry) VALUES (%s,%s,%s,%s,%s);""",(name,email_id,session.fb_id,extended_token,expires))\n    return dict()\n\nresponse._vars=response._caller(fbuser)\n'
p7
sS'snapshot'
p8
(dp9
S'exception'
p10
(dp11
S'__module__'
p12
S"'urllib2'"
p13
sg6
S'400'
p14
sS'__getslice__'
p15
S"<method-wrapper '__getslice__' of HTTPError object>"
p16
sS'__str__'
p17
S'<bound method HTTPError.__str__ of HTTPError()>'
p18
sS'__reduce__'
p19
S'<built-in method __reduce__ of HTTPError object>'
p20
sS'strerror'
p21
S'None'
p22
sS'__dict__'
p23
S"{'__iter__': <bound method _fileobject.__iter__ of <socket._fileobject object>>, 'code': 400, 'fileno': <bound method _fileobject.fileno of <socket._fileobject object>>, 'fp': <addinfourl at 140249592848752 whose fp = <socket._fileobject object>>, 'hdrs': <httplib.HTTPMessage instance>, 'headers': <httplib.HTTPMessage instance>, 'msg': 'Bad Request', 'next': <bound method _fileobject.next of <socket._fileobject object>>, 'read': <bound method _fileobject.read of <socket._fileobject object>>, 'readline': <bound method _fileobject.readline of <socket._fileobject object>>, ...}"
p24
sS'close'
p25
S'<bound method HTTPError.close of HTTPError()>'
p26
sS'__sizeof__'
p27
S'<built-in method __sizeof__ of HTTPError object>'
p28
sS'next'
p29
S'<bound method _fileobject.next of <socket._fileobject object>>'
p30
sS'__weakref__'
p31
S'None'
p32
sS'__init__'
p33
S'<bound method HTTPError.__init__ of HTTPError()>'
p34
sS'__setattr__'
p35
S"<method-wrapper '__setattr__' of HTTPError object>"
p36
sS'__reduce_ex__'
p37
S'<built-in method __reduce_ex__ of HTTPError object>'
p38
sS'__new__'
p39
S'<built-in method __new__ of type object>'
p40
sS'headers'
p41
S'<httplib.HTTPMessage instance>'
p42
sS'errno'
p43
S'None'
p44
sS'readlines'
p45
S'<bound method _fileobject.readlines of <socket._fileobject object>>'
p46
sS'__format__'
p47
S'<built-in method __format__ of HTTPError object>'
p48
sS'__class__'
p49
S"<class 'urllib2.HTTPError'>"
p50
sS'filename'
p51
S"'https://graph.facebook.com/me?access_token=None'"
p52
sS'_HTTPError__super_init'
p53
S'<bound method HTTPError.__init__ of HTTPError()>'
p54
sS'msg'
p55
S"'Bad Request'"
p56
sS'__doc__'
p57
S"'Raised when HTTP error occurs, but also acts like non-error return'"
p58
sS'fp'
p59
S'<addinfourl at 140249592848752 whose fp = <socket._fileobject object>>'
p60
sS'hdrs'
p61
S'<httplib.HTTPMessage instance>'
p62
sS'__getitem__'
p63
S"<method-wrapper '__getitem__' of HTTPError object>"
p64
sS'__setstate__'
p65
S'<built-in method __setstate__ of HTTPError object>'
p66
sS'read'
p67
S'<bound method _fileobject.read of <socket._fileobject object>>'
p68
sS'__getattribute__'
p69
S"<method-wrapper '__getattribute__' of HTTPError object>"
p70
sS'args'
p71
S'()'
p72
sS'__iter__'
p73
S'<bound method _fileobject.__iter__ of <socket._fileobject object>>'
p74
sS'__subclasshook__'
p75
S'<built-in method __subclasshook__ of type object>'
p76
sS'readline'
p77
S'<bound method _fileobject.readline of <socket._fileobject object>>'
p78
sS'__unicode__'
p79
S'<built-in method __unicode__ of HTTPError object>'
p80
sS'info'
p81
S'<bound method HTTPError.info of HTTPError()>'
p82
sS'fileno'
p83
S'<bound method _fileobject.fileno of <socket._fileobject object>>'
p84
sS'getcode'
p85
S'<bound method HTTPError.getcode of HTTPError()>'
p86
sS'url'
p87
S"'https://graph.facebook.com/me?access_token=None'"
p88
sS'reason'
p89
S"'Bad Request'"
p90
sS'geturl'
p91
S'<bound method HTTPError.geturl of HTTPError()>'
p92
sS'__delattr__'
p93
S"<method-wrapper '__delattr__' of HTTPError object>"
p94
sS'__repr__'
p95
S"<method-wrapper '__repr__' of HTTPError object>"
p96
sS'__hash__'
p97
S"<method-wrapper '__hash__' of HTTPError object>"
p98
ssS'evalue'
p99
S'HTTP Error 400: Bad Request'
p100
sS'request'
p101
ccopy_reg
_reconstructor
p102
(cgluon.html
BEAUTIFY
p103
c__builtin__
object
p104
NtRp105
(dp106
S'attributes'
p107
(dp108
sS'components'
p109
(lp110
g102
(cgluon.html
TABLE
p111
g104
NtRp112
(dp113
g107
(dp114
S'level'
p115
I5
ssS'parent'
p116
Nsg109
(lp117
g102
(cgluon.html
TR
p118
g104
NtRp119
(dp120
g107
(dp121
sg116
g112
sg109
(lp122
g102
(cgluon.html
TD
p123
g104
NtRp124
(dp125
g107
(dp126
S'_style'
p127
S'font-weight:bold;vertical-align:top'
p128
ssg116
g119
sg109
(lp129
S'ajax'
p130
asbag102
(g123
g104
NtRp131
(dp132
g107
(dp133
S'_valign'
p134
S'top'
p135
ssg116
g119
sg109
(lp136
S':'
asbag102
(g123
g104
NtRp137
(dp138
g107
(dp139
sg116
g119
sg109
(lp140
g102
(g103
g104
NtRp141
(dp142
g107
(dp143
g115
I5
ssg116
g137
sg109
(lp144
S'False'
p145
asbasbasbag102
(g118
g104
NtRp146
(dp147
g107
(dp148
sg116
g112
sg109
(lp149
g102
(g123
g104
NtRp150
(dp151
g107
(dp152
g127
g128
ssg116
g146
sg109
(lp153
S'application'
p154
asbag102
(g123
g104
NtRp155
(dp156
g107
(dp157
g134
g135
ssg116
g146
sg109
(lp158
S':'
asbag102
(g123
g104
NtRp159
(dp160
g107
(dp161
sg116
g146
sg109
(lp162
g102
(g103
g104
NtRp163
(dp164
g107
(dp165
g115
I5
ssg116
g159
sg109
(lp166
S'newsapp'
p167
asbasbasbag102
(g118
g104
NtRp168
(dp169
g107
(dp170
sg116
g112
sg109
(lp171
g102
(g123
g104
NtRp172
(dp173
g107
(dp174
g127
g128
ssg116
g168
sg109
(lp175
g71
asbag102
(g123
g104
NtRp176
(dp177
g107
(dp178
g134
g135
ssg116
g168
sg109
(lp179
S':'
asbag102
(g123
g104
NtRp180
(dp181
g107
(dp182
sg116
g168
sg109
(lp183
g102
(g103
g104
NtRp184
(dp185
g107
(dp186
g115
I5
ssg116
g180
sg109
(lp187
g102
(g111
g104
NtRp188
(dp189
g107
(dp190
g115
I4
ssg116
Nsg109
(lp191
sbasbasbasbag102
(g118
g104
NtRp192
(dp193
g107
(dp194
sg116
g112
sg109
(lp195
g102
(g123
g104
NtRp196
(dp197
g107
(dp198
g127
g128
ssg116
g192
sg109
(lp199
S'body'
p200
asbag102
(g123
g104
NtRp201
(dp202
g107
(dp203
g134
g135
ssg116
g192
sg109
(lp204
S':'
asbag102
(g123
g104
NtRp205
(dp206
g107
(dp207
sg116
g192
sg109
(lp208
g102
(g103
g104
NtRp209
(dp210
g107
(dp211
g115
I5
ssg116
g205
sg109
(lp212
S'<cStringIO.StringO object at 0x7f8e675f8068>'
p213
asbasbasbag102
(g118
g104
NtRp214
(dp215
g107
(dp216
sg116
g112
sg109
(lp217
g102
(g123
g104
NtRp218
(dp219
g107
(dp220
g127
g128
ssg116
g214
sg109
(lp221
S'client'
p222
asbag102
(g123
g104
NtRp223
(dp224
g107
(dp225
g134
g135
ssg116
g214
sg109
(lp226
S':'
asbag102
(g123
g104
NtRp227
(dp228
g107
(dp229
sg116
g214
sg109
(lp230
g102
(g103
g104
NtRp231
(dp232
g107
(dp233
g115
I5
ssg116
g227
sg109
(lp234
S'127.0.0.1'
p235
asbasbasbag102
(g118
g104
NtRp236
(dp237
g107
(dp238
sg116
g112
sg109
(lp239
g102
(g123
g104
NtRp240
(dp241
g107
(dp242
g127
g128
ssg116
g236
sg109
(lp243
S'controller'
p244
asbag102
(g123
g104
NtRp245
(dp246
g107
(dp247
g134
g135
ssg116
g236
sg109
(lp248
S':'
asbag102
(g123
g104
NtRp249
(dp250
g107
(dp251
sg116
g236
sg109
(lp252
g102
(g103
g104
NtRp253
(dp254
g107
(dp255
g115
I5
ssg116
g249
sg109
(lp256
S'default'
p257
asbasbasbag102
(g118
g104
NtRp258
(dp259
g107
(dp260
sg116
g112
sg109
(lp261
g102
(g123
g104
NtRp262
(dp263
g107
(dp264
g127
g128
ssg116
g258
sg109
(lp265
S'cookies'
p266
asbag102
(g123
g104
NtRp267
(dp268
g107
(dp269
g134
g135
ssg116
g258
sg109
(lp270
S':'
asbag102
(g123
g104
NtRp271
(dp272
g107
(dp273
sg116
g258
sg109
(lp274
g102
(g103
g104
NtRp275
(dp276
g107
(dp277
g115
I5
ssg116
g271
sg109
(lp278
g102
(g111
g104
NtRp279
(dp280
g107
(dp281
g115
I4
ssg116
Nsg109
(lp282
g102
(g118
g104
NtRp283
(dp284
g107
(dp285
sg116
g279
sg109
(lp286
g102
(g123
g104
NtRp287
(dp288
g107
(dp289
g127
g128
ssg116
g283
sg109
(lp290
S'session_id_admin'
p291
asbag102
(g123
g104
NtRp292
(dp293
g107
(dp294
g134
g135
ssg116
g283
sg109
(lp295
S':'
asbag102
(g123
g104
NtRp296
(dp297
g107
(dp298
sg116
g283
sg109
(lp299
g102
(g103
g104
NtRp300
(dp301
g107
(dp302
g115
I4
ssg116
g296
sg109
(lp303
g102
(g111
g104
NtRp304
(dp305
g107
(dp306
g115
I3
ssg116
Nsg109
(lp307
g102
(g118
g104
NtRp308
(dp309
g107
(dp310
sg116
g304
sg109
(lp311
g102
(g123
g104
NtRp312
(dp313
g107
(dp314
g127
g128
ssg116
g308
sg109
(lp315
S'comment'
p316
asbag102
(g123
g104
NtRp317
(dp318
g107
(dp319
g134
g135
ssg116
g308
sg109
(lp320
S':'
asbag102
(g123
g104
NtRp321
(dp322
g107
(dp323
sg116
g308
sg109
(lp324
g102
(g103
g104
NtRp325
(dp326
g107
(dp327
g115
I3
ssg116
g321
sg109
(lp328
S''
asbasbasbag102
(g118
g104
NtRp329
(dp330
g107
(dp331
sg116
g304
sg109
(lp332
g102
(g123
g104
NtRp333
(dp334
g107
(dp335
g127
g128
ssg116
g329
sg109
(lp336
S'domain'
p337
asbag102
(g123
g104
NtRp338
(dp339
g107
(dp340
g134
g135
ssg116
g329
sg109
(lp341
S':'
asbag102
(g123
g104
NtRp342
(dp343
g107
(dp344
sg116
g329
sg109
(lp345
g102
(g103
g104
NtRp346
(dp347
g107
(dp348
g115
I3
ssg116
g342
sg109
(lp349
S''
asbasbasbag102
(g118
g104
NtRp350
(dp351
g107
(dp352
sg116
g304
sg109
(lp353
g102
(g123
g104
NtRp354
(dp355
g107
(dp356
g127
g128
ssg116
g350
sg109
(lp357
S'expires'
p358
asbag102
(g123
g104
NtRp359
(dp360
g107
(dp361
g134
g135
ssg116
g350
sg109
(lp362
S':'
asbag102
(g123
g104
NtRp363
(dp364
g107
(dp365
sg116
g350
sg109
(lp366
g102
(g103
g104
NtRp367
(dp368
g107
(dp369
g115
I3
ssg116
g363
sg109
(lp370
S''
asbasbasbag102
(g118
g104
NtRp371
(dp372
g107
(dp373
sg116
g304
sg109
(lp374
g102
(g123
g104
NtRp375
(dp376
g107
(dp377
g127
g128
ssg116
g371
sg109
(lp378
S'httponly'
p379
asbag102
(g123
g104
NtRp380
(dp381
g107
(dp382
g134
g135
ssg116
g371
sg109
(lp383
S':'
asbag102
(g123
g104
NtRp384
(dp385
g107
(dp386
sg116
g371
sg109
(lp387
g102
(g103
g104
NtRp388
(dp389
g107
(dp390
g115
I3
ssg116
g384
sg109
(lp391
S''
asbasbasbag102
(g118
g104
NtRp392
(dp393
g107
(dp394
sg116
g304
sg109
(lp395
g102
(g123
g104
NtRp396
(dp397
g107
(dp398
g127
g128
ssg116
g392
sg109
(lp399
S'max-age'
p400
asbag102
(g123
g104
NtRp401
(dp402
g107
(dp403
g134
g135
ssg116
g392
sg109
(lp404
S':'
asbag102
(g123
g104
NtRp405
(dp406
g107
(dp407
sg116
g392
sg109
(lp408
g102
(g103
g104
NtRp409
(dp410
g107
(dp411
g115
I3
ssg116
g405
sg109
(lp412
S''
asbasbasbag102
(g118
g104
NtRp413
(dp414
g107
(dp415
sg116
g304
sg109
(lp416
g102
(g123
g104
NtRp417
(dp418
g107
(dp419
g127
g128
ssg116
g413
sg109
(lp420
S'path'
p421
asbag102
(g123
g104
NtRp422
(dp423
g107
(dp424
g134
g135
ssg116
g413
sg109
(lp425
S':'
asbag102
(g123
g104
NtRp426
(dp427
g107
(dp428
sg116
g413
sg109
(lp429
g102
(g103
g104
NtRp430
(dp431
g107
(dp432
g115
I3
ssg116
g426
sg109
(lp433
S''
asbasbasbag102
(g118
g104
NtRp434
(dp435
g107
(dp436
sg116
g304
sg109
(lp437
g102
(g123
g104
NtRp438
(dp439
g107
(dp440
g127
g128
ssg116
g434
sg109
(lp441
S'secure'
p442
asbag102
(g123
g104
NtRp443
(dp444
g107
(dp445
g134
g135
ssg116
g434
sg109
(lp446
S':'
asbag102
(g123
g104
NtRp447
(dp448
g107
(dp449
sg116
g434
sg109
(lp450
g102
(g103
g104
NtRp451
(dp452
g107
(dp453
g115
I3
ssg116
g447
sg109
(lp454
S''
asbasbasbag102
(g118
g104
NtRp455
(dp456
g107
(dp457
sg116
g304
sg109
(lp458
g102
(g123
g104
NtRp459
(dp460
g107
(dp461
g127
g128
ssg116
g455
sg109
(lp462
S'version'
p463
asbag102
(g123
g104
NtRp464
(dp465
g107
(dp466
g134
g135
ssg116
g455
sg109
(lp467
S':'
asbag102
(g123
g104
NtRp468
(dp469
g107
(dp470
sg116
g455
sg109
(lp471
g102
(g103
g104
NtRp472
(dp473
g107
(dp474
g115
I3
ssg116
g468
sg109
(lp475
S''
asbasbasbasbasbasbasbag102
(g118
g104
NtRp476
(dp477
g107
(dp478
sg116
g279
sg109
(lp479
g102
(g123
g104
NtRp480
(dp481
g107
(dp482
g127
g128
ssg116
g476
sg109
(lp483
S'session_id_newsapp'
p484
asbag102
(g123
g104
NtRp485
(dp486
g107
(dp487
g134
g135
ssg116
g476
sg109
(lp488
S':'
asbag102
(g123
g104
NtRp489
(dp490
g107
(dp491
sg116
g476
sg109
(lp492
g102
(g103
g104
NtRp493
(dp494
g107
(dp495
g115
I4
ssg116
g489
sg109
(lp496
g102
(g111
g104
NtRp497
(dp498
g107
(dp499
g115
I3
ssg116
Nsg109
(lp500
g102
(g118
g104
NtRp501
(dp502
g107
(dp503
sg116
g497
sg109
(lp504
g102
(g123
g104
NtRp505
(dp506
g107
(dp507
g127
g128
ssg116
g501
sg109
(lp508
g316
asbag102
(g123
g104
NtRp509
(dp510
g107
(dp511
g134
g135
ssg116
g501
sg109
(lp512
S':'
asbag102
(g123
g104
NtRp513
(dp514
g107
(dp515
sg116
g501
sg109
(lp516
g102
(g103
g104
NtRp517
(dp518
g107
(dp519
g115
I3
ssg116
g513
sg109
(lp520
S''
asbasbasbag102
(g118
g104
NtRp521
(dp522
g107
(dp523
sg116
g497
sg109
(lp524
g102
(g123
g104
NtRp525
(dp526
g107
(dp527
g127
g128
ssg116
g521
sg109
(lp528
g337
asbag102
(g123
g104
NtRp529
(dp530
g107
(dp531
g134
g135
ssg116
g521
sg109
(lp532
S':'
asbag102
(g123
g104
NtRp533
(dp534
g107
(dp535
sg116
g521
sg109
(lp536
g102
(g103
g104
NtRp537
(dp538
g107
(dp539
g115
I3
ssg116
g533
sg109
(lp540
S''
asbasbasbag102
(g118
g104
NtRp541
(dp542
g107
(dp543
sg116
g497
sg109
(lp544
g102
(g123
g104
NtRp545
(dp546
g107
(dp547
g127
g128
ssg116
g541
sg109
(lp548
g358
asbag102
(g123
g104
NtRp549
(dp550
g107
(dp551
g134
g135
ssg116
g541
sg109
(lp552
S':'
asbag102
(g123
g104
NtRp553
(dp554
g107
(dp555
sg116
g541
sg109
(lp556
g102
(g103
g104
NtRp557
(dp558
g107
(dp559
g115
I3
ssg116
g553
sg109
(lp560
S''
asbasbasbag102
(g118
g104
NtRp561
(dp562
g107
(dp563
sg116
g497
sg109
(lp564
g102
(g123
g104
NtRp565
(dp566
g107
(dp567
g127
g128
ssg116
g561
sg109
(lp568
g379
asbag102
(g123
g104
NtRp569
(dp570
g107
(dp571
g134
g135
ssg116
g561
sg109
(lp572
S':'
asbag102
(g123
g104
NtRp573
(dp574
g107
(dp575
sg116
g561
sg109
(lp576
g102
(g103
g104
NtRp577
(dp578
g107
(dp579
g115
I3
ssg116
g573
sg109
(lp580
S''
asbasbasbag102
(g118
g104
NtRp581
(dp582
g107
(dp583
sg116
g497
sg109
(lp584
g102
(g123
g104
NtRp585
(dp586
g107
(dp587
g127
g128
ssg116
g581
sg109
(lp588
g400
asbag102
(g123
g104
NtRp589
(dp590
g107
(dp591
g134
g135
ssg116
g581
sg109
(lp592
S':'
asbag102
(g123
g104
NtRp593
(dp594
g107
(dp595
sg116
g581
sg109
(lp596
g102
(g103
g104
NtRp597
(dp598
g107
(dp599
g115
I3
ssg116
g593
sg109
(lp600
S''
asbasbasbag102
(g118
g104
NtRp601
(dp602
g107
(dp603
sg116
g497
sg109
(lp604
g102
(g123
g104
NtRp605
(dp606
g107
(dp607
g127
g128
ssg116
g601
sg109
(lp608
g421
asbag102
(g123
g104
NtRp609
(dp610
g107
(dp611
g134
g135
ssg116
g601
sg109
(lp612
S':'
asbag102
(g123
g104
NtRp613
(dp614
g107
(dp615
sg116
g601
sg109
(lp616
g102
(g103
g104
NtRp617
(dp618
g107
(dp619
g115
I3
ssg116
g613
sg109
(lp620
S''
asbasbasbag102
(g118
g104
NtRp621
(dp622
g107
(dp623
sg116
g497
sg109
(lp624
g102
(g123
g104
NtRp625
(dp626
g107
(dp627
g127
g128
ssg116
g621
sg109
(lp628
g442
asbag102
(g123
g104
NtRp629
(dp630
g107
(dp631
g134
g135
ssg116
g621
sg109
(lp632
S':'
asbag102
(g123
g104
NtRp633
(dp634
g107
(dp635
sg116
g621
sg109
(lp636
g102
(g103
g104
NtRp637
(dp638
g107
(dp639
g115
I3
ssg116
g633
sg109
(lp640
S''
asbasbasbag102
(g118
g104
NtRp641
(dp642
g107
(dp643
sg116
g497
sg109
(lp644
g102
(g123
g104
NtRp645
(dp646
g107
(dp647
g127
g128
ssg116
g641
sg109
(lp648
g463
asbag102
(g123
g104
NtRp649
(dp650
g107
(dp651
g134
g135
ssg116
g641
sg109
(lp652
S':'
asbag102
(g123
g104
NtRp653
(dp654
g107
(dp655
sg116
g641
sg109
(lp656
g102
(g103
g104
NtRp657
(dp658
g107
(dp659
g115
I3
ssg116
g653
sg109
(lp660
S''
asbasbasbasbasbasbasbag102
(g118
g104
NtRp661
(dp662
g107
(dp663
sg116
g279
sg109
(lp664
g102
(g123
g104
NtRp665
(dp666
g107
(dp667
g127
g128
ssg116
g661
sg109
(lp668
S'session_id_welcome'
p669
asbag102
(g123
g104
NtRp670
(dp671
g107
(dp672
g134
g135
ssg116
g661
sg109
(lp673
S':'
asbag102
(g123
g104
NtRp674
(dp675
g107
(dp676
sg116
g661
sg109
(lp677
g102
(g103
g104
NtRp678
(dp679
g107
(dp680
g115
I4
ssg116
g674
sg109
(lp681
g102
(g111
g104
NtRp682
(dp683
g107
(dp684
g115
I3
ssg116
Nsg109
(lp685
g102
(g118
g104
NtRp686
(dp687
g107
(dp688
sg116
g682
sg109
(lp689
g102
(g123
g104
NtRp690
(dp691
g107
(dp692
g127
g128
ssg116
g686
sg109
(lp693
g316
asbag102
(g123
g104
NtRp694
(dp695
g107
(dp696
g134
g135
ssg116
g686
sg109
(lp697
S':'
asbag102
(g123
g104
NtRp698
(dp699
g107
(dp700
sg116
g686
sg109
(lp701
g102
(g103
g104
NtRp702
(dp703
g107
(dp704
g115
I3
ssg116
g698
sg109
(lp705
S''
asbasbasbag102
(g118
g104
NtRp706
(dp707
g107
(dp708
sg116
g682
sg109
(lp709
g102
(g123
g104
NtRp710
(dp711
g107
(dp712
g127
g128
ssg116
g706
sg109
(lp713
g337
asbag102
(g123
g104
NtRp714
(dp715
g107
(dp716
g134
g135
ssg116
g706
sg109
(lp717
S':'
asbag102
(g123
g104
NtRp718
(dp719
g107
(dp720
sg116
g706
sg109
(lp721
g102
(g103
g104
NtRp722
(dp723
g107
(dp724
g115
I3
ssg116
g718
sg109
(lp725
S''
asbasbasbag102
(g118
g104
NtRp726
(dp727
g107
(dp728
sg116
g682
sg109
(lp729
g102
(g123
g104
NtRp730
(dp731
g107
(dp732
g127
g128
ssg116
g726
sg109
(lp733
g358
asbag102
(g123
g104
NtRp734
(dp735
g107
(dp736
g134
g135
ssg116
g726
sg109
(lp737
S':'
asbag102
(g123
g104
NtRp738
(dp739
g107
(dp740
sg116
g726
sg109
(lp741
g102
(g103
g104
NtRp742
(dp743
g107
(dp744
g115
I3
ssg116
g738
sg109
(lp745
S''
asbasbasbag102
(g118
g104
NtRp746
(dp747
g107
(dp748
sg116
g682
sg109
(lp749
g102
(g123
g104
NtRp750
(dp751
g107
(dp752
g127
g128
ssg116
g746
sg109
(lp753
g379
asbag102
(g123
g104
NtRp754
(dp755
g107
(dp756
g134
g135
ssg116
g746
sg109
(lp757
S':'
asbag102
(g123
g104
NtRp758
(dp759
g107
(dp760
sg116
g746
sg109
(lp761
g102
(g103
g104
NtRp762
(dp763
g107
(dp764
g115
I3
ssg116
g758
sg109
(lp765
S''
asbasbasbag102
(g118
g104
NtRp766
(dp767
g107
(dp768
sg116
g682
sg109
(lp769
g102
(g123
g104
NtRp770
(dp771
g107
(dp772
g127
g128
ssg116
g766
sg109
(lp773
g400
asbag102
(g123
g104
NtRp774
(dp775
g107
(dp776
g134
g135
ssg116
g766
sg109
(lp777
S':'
asbag102
(g123
g104
NtRp778
(dp779
g107
(dp780
sg116
g766
sg109
(lp781
g102
(g103
g104
NtRp782
(dp783
g107
(dp784
g115
I3
ssg116
g778
sg109
(lp785
S''
asbasbasbag102
(g118
g104
NtRp786
(dp787
g107
(dp788
sg116
g682
sg109
(lp789
g102
(g123
g104
NtRp790
(dp791
g107
(dp792
g127
g128
ssg116
g786
sg109
(lp793
g421
asbag102
(g123
g104
NtRp794
(dp795
g107
(dp796
g134
g135
ssg116
g786
sg109
(lp797
S':'
asbag102
(g123
g104
NtRp798
(dp799
g107
(dp800
sg116
g786
sg109
(lp801
g102
(g103
g104
NtRp802
(dp803
g107
(dp804
g115
I3
ssg116
g798
sg109
(lp805
S''
asbasbasbag102
(g118
g104
NtRp806
(dp807
g107
(dp808
sg116
g682
sg109
(lp809
g102
(g123
g104
NtRp810
(dp811
g107
(dp812
g127
g128
ssg116
g806
sg109
(lp813
g442
asbag102
(g123
g104
NtRp814
(dp815
g107
(dp816
g134
g135
ssg116
g806
sg109
(lp817
S':'
asbag102
(g123
g104
NtRp818
(dp819
g107
(dp820
sg116
g806
sg109
(lp821
g102
(g103
g104
NtRp822
(dp823
g107
(dp824
g115
I3
ssg116
g818
sg109
(lp825
S''
asbasbasbag102
(g118
g104
NtRp826
(dp827
g107
(dp828
sg116
g682
sg109
(lp829
g102
(g123
g104
NtRp830
(dp831
g107
(dp832
g127
g128
ssg116
g826
sg109
(lp833
g463
asbag102
(g123
g104
NtRp834
(dp835
g107
(dp836
g134
g135
ssg116
g826
sg109
(lp837
S':'
asbag102
(g123
g104
NtRp838
(dp839
g107
(dp840
sg116
g826
sg109
(lp841
g102
(g103
g104
NtRp842
(dp843
g107
(dp844
g115
I3
ssg116
g838
sg109
(lp845
S''
asbasbasbasbasbasbasbasbasbasbasbag102
(g118
g104
NtRp846
(dp847
g107
(dp848
sg116
g112
sg109
(lp849
g102
(g123
g104
NtRp850
(dp851
g107
(dp852
g127
g128
ssg116
g846
sg109
(lp853
S'env'
p854
asbag102
(g123
g104
NtRp855
(dp856
g107
(dp857
g134
g135
ssg116
g846
sg109
(lp858
S':'
asbag102
(g123
g104
NtRp859
(dp860
g107
(dp861
sg116
g846
sg109
(lp862
g102
(g103
g104
NtRp863
(dp864
g107
(dp865
g115
I5
ssg116
g859
sg109
(lp866
g102
(g111
g104
NtRp867
(dp868
g107
(dp869
g115
I4
ssg116
Nsg109
(lp870
g102
(g118
g104
NtRp871
(dp872
g107
(dp873
sg116
g867
sg109
(lp874
g102
(g123
g104
NtRp875
(dp876
g107
(dp877
g127
g128
ssg116
g871
sg109
(lp878
S'app_folders'
p879
asbag102
(g123
g104
NtRp880
(dp881
g107
(dp882
g134
g135
ssg116
g871
sg109
(lp883
S':'
asbag102
(g123
g104
NtRp884
(dp885
g107
(dp886
sg116
g871
sg109
(lp887
g102
(g103
g104
NtRp888
(dp889
g107
(dp890
g115
I4
ssg116
g884
sg109
(lp891
S"set(['/home/pooja/web2py/applications/admin/', '/home/pooja/web2py/applications/newsapp/', '/home/pooja/web2py/applications/welcome/'])"
p892
asbasbasbag102
(g118
g104
NtRp893
(dp894
g107
(dp895
sg116
g867
sg109
(lp896
g102
(g123
g104
NtRp897
(dp898
g107
(dp899
g127
g128
ssg116
g893
sg109
(lp900
S'applications_parent'
p901
asbag102
(g123
g104
NtRp902
(dp903
g107
(dp904
g134
g135
ssg116
g893
sg109
(lp905
S':'
asbag102
(g123
g104
NtRp906
(dp907
g107
(dp908
sg116
g893
sg109
(lp909
g102
(g103
g104
NtRp910
(dp911
g107
(dp912
g115
I4
ssg116
g906
sg109
(lp913
S'/home/pooja/web2py'
p914
asbasbasbag102
(g118
g104
NtRp915
(dp916
g107
(dp917
sg116
g867
sg109
(lp918
g102
(g123
g104
NtRp919
(dp920
g107
(dp921
g127
g128
ssg116
g915
sg109
(lp922
S'cmd_args'
p923
asbag102
(g123
g104
NtRp924
(dp925
g107
(dp926
g134
g135
ssg116
g915
sg109
(lp927
S':'
asbag102
(g123
g104
NtRp928
(dp929
g107
(dp930
sg116
g915
sg109
(lp931
g102
(g103
g104
NtRp932
(dp933
g107
(dp934
g115
I4
ssg116
g928
sg109
(lp935
g102
(g111
g104
NtRp936
(dp937
g107
(dp938
g115
I3
ssg116
Nsg109
(lp939
sbasbasbasbag102
(g118
g104
NtRp940
(dp941
g107
(dp942
sg116
g867
sg109
(lp943
g102
(g123
g104
NtRp944
(dp945
g107
(dp946
g127
g128
ssg116
g940
sg109
(lp947
S'cmd_options'
p948
asbag102
(g123
g104
NtRp949
(dp950
g107
(dp951
g134
g135
ssg116
g940
sg109
(lp952
S':'
asbag102
(g123
g104
NtRp953
(dp954
g107
(dp955
sg116
g940
sg109
(lp956
g102
(g103
g104
NtRp957
(dp958
g107
(dp959
g115
I4
ssg116
g953
sg109
(lp960
S"<Values at 0x7f8ec06a5908: {'verbose': False, 'ip': '127.0.0.1', 'shutdown_timeout': 5, 'taskbar': False, 'nocron': False, 'pid_filename': 'httpserver.pid', 'maxthreads': None, 'softcron': False, 'server_name': 'pooja-HP-15-Notebook-PC', 'bpython': False, 'nogui': False, 'port': 8000, 'extcron': False, 'debuglevel': 30, 'test': None, 'folder': '/home/pooja/web2py', 'config': '', 'import_models': False, 'winservice': '', 'shell': None, 'run': '', 'log_filename': 'httpserver.log', 'args': [''], 'socket_timeout': 5, 'ssl_ca_certificate': None, 'scheduler': None, 'profiler_filename': None, 'ssl_private_key': '', 'password': '<ask>', 'request_queue_size': 5, 'ssl_certificate': '', 'cronjob': False, 'numthreads': None, 'quiet': False, 'interfaces': None, 'minthreads': None, 'timeout': 10, 'plain': False, 'nobanner': False}>"
p961
asbasbasbag102
(g118
g104
NtRp962
(dp963
g107
(dp964
sg116
g867
sg109
(lp965
g102
(g123
g104
NtRp966
(dp967
g107
(dp968
g127
g128
ssg116
g962
sg109
(lp969
S'db_sessions'
p970
asbag102
(g123
g104
NtRp971
(dp972
g107
(dp973
g134
g135
ssg116
g962
sg109
(lp974
S':'
asbag102
(g123
g104
NtRp975
(dp976
g107
(dp977
sg116
g962
sg109
(lp978
g102
(g103
g104
NtRp979
(dp980
g107
(dp981
g115
I4
ssg116
g975
sg109
(lp982
S'set([])'
p983
asbasbasbag102
(g118
g104
NtRp984
(dp985
g107
(dp986
sg116
g867
sg109
(lp987
g102
(g123
g104
NtRp988
(dp989
g107
(dp990
g127
g128
ssg116
g984
sg109
(lp991
S'debugging'
p992
asbag102
(g123
g104
NtRp993
(dp994
g107
(dp995
g134
g135
ssg116
g984
sg109
(lp996
S':'
asbag102
(g123
g104
NtRp997
(dp998
g107
(dp999
sg116
g984
sg109
(lp1000
g102
(g103
g104
NtRp1001
(dp1002
g107
(dp1003
g115
I4
ssg116
g997
sg109
(lp1004
g145
asbasbasbag102
(g118
g104
NtRp1005
(dp1006
g107
(dp1007
sg116
g867
sg109
(lp1008
g102
(g123
g104
NtRp1009
(dp1010
g107
(dp1011
g127
g128
ssg116
g1005
sg109
(lp1012
S'gluon_parent'
p1013
asbag102
(g123
g104
NtRp1014
(dp1015
g107
(dp1016
g134
g135
ssg116
g1005
sg109
(lp1017
S':'
asbag102
(g123
g104
NtRp1018
(dp1019
g107
(dp1020
sg116
g1005
sg109
(lp1021
g102
(g103
g104
NtRp1022
(dp1023
g107
(dp1024
g115
I4
ssg116
g1018
sg109
(lp1025
S'/usr/share/web2py'
p1026
asbasbasbag102
(g118
g104
NtRp1027
(dp1028
g107
(dp1029
sg116
g867
sg109
(lp1030
g102
(g123
g104
NtRp1031
(dp1032
g107
(dp1033
g127
g128
ssg116
g1027
sg109
(lp1034
S'http_accept'
p1035
asbag102
(g123
g104
NtRp1036
(dp1037
g107
(dp1038
g134
g135
ssg116
g1027
sg109
(lp1039
S':'
asbag102
(g123
g104
NtRp1040
(dp1041
g107
(dp1042
sg116
g1027
sg109
(lp1043
g102
(g103
g104
NtRp1044
(dp1045
g107
(dp1046
g115
I4
ssg116
g1040
sg109
(lp1047
S'text/html,application/xhtml+xml,application/xml;q=0.9,image/webp,*/*;q=0.8'
p1048
asbasbasbag102
(g118
g104
NtRp1049
(dp1050
g107
(dp1051
sg116
g867
sg109
(lp1052
g102
(g123
g104
NtRp1053
(dp1054
g107
(dp1055
g127
g128
ssg116
g1049
sg109
(lp1056
S'http_accept_encoding'
p1057
asbag102
(g123
g104
NtRp1058
(dp1059
g107
(dp1060
g134
g135
ssg116
g1049
sg109
(lp1061
S':'
asbag102
(g123
g104
NtRp1062
(dp1063
g107
(dp1064
sg116
g1049
sg109
(lp1065
g102
(g103
g104
NtRp1066
(dp1067
g107
(dp1068
g115
I4
ssg116
g1062
sg109
(lp1069
S'gzip, deflate, sdch'
p1070
asbasbasbag102
(g118
g104
NtRp1071
(dp1072
g107
(dp1073
sg116
g867
sg109
(lp1074
g102
(g123
g104
NtRp1075
(dp1076
g107
(dp1077
g127
g128
ssg116
g1071
sg109
(lp1078
S'http_accept_language'
p1079
asbag102
(g123
g104
NtRp1080
(dp1081
g107
(dp1082
g134
g135
ssg116
g1071
sg109
(lp1083
S':'
asbag102
(g123
g104
NtRp1084
(dp1085
g107
(dp1086
sg116
g1071
sg109
(lp1087
g102
(g103
g104
NtRp1088
(dp1089
g107
(dp1090
g115
I4
ssg116
g1084
sg109
(lp1091
S'en-US,en;q=0.8'
p1092
asbasbasbag102
(g118
g104
NtRp1093
(dp1094
g107
(dp1095
sg116
g867
sg109
(lp1096
g102
(g123
g104
NtRp1097
(dp1098
g107
(dp1099
g127
g128
ssg116
g1093
sg109
(lp1100
S'http_connection'
p1101
asbag102
(g123
g104
NtRp1102
(dp1103
g107
(dp1104
g134
g135
ssg116
g1093
sg109
(lp1105
S':'
asbag102
(g123
g104
NtRp1106
(dp1107
g107
(dp1108
sg116
g1093
sg109
(lp1109
g102
(g103
g104
NtRp1110
(dp1111
g107
(dp1112
g115
I4
ssg116
g1106
sg109
(lp1113
S'keep-alive'
p1114
asbasbasbag102
(g118
g104
NtRp1115
(dp1116
g107
(dp1117
sg116
g867
sg109
(lp1118
g102
(g123
g104
NtRp1119
(dp1120
g107
(dp1121
g127
g128
ssg116
g1115
sg109
(lp1122
S'http_cookie'
p1123
asbag102
(g123
g104
NtRp1124
(dp1125
g107
(dp1126
g134
g135
ssg116
g1115
sg109
(lp1127
S':'
asbag102
(g123
g104
NtRp1128
(dp1129
g107
(dp1130
sg116
g1115
sg109
(lp1131
g102
(g103
g104
NtRp1132
(dp1133
g107
(dp1134
g115
I4
ssg116
g1128
sg109
(lp1135
S'session_id_welcome=127.0.0.1-e327fa24-9b30-4806-b3b8-755f25a47489; session_id_admin=127.0.0.1-6c1408c5-0a78-46f6-bb4d-f35ffc7a0a2f; session_id_newsapp=127.0.0.1-922c9515-8912-43bf-95e9-21668eb41c94'
p1136
asbasbasbag102
(g118
g104
NtRp1137
(dp1138
g107
(dp1139
sg116
g867
sg109
(lp1140
g102
(g123
g104
NtRp1141
(dp1142
g107
(dp1143
g127
g128
ssg116
g1137
sg109
(lp1144
S'http_host'
p1145
asbag102
(g123
g104
NtRp1146
(dp1147
g107
(dp1148
g134
g135
ssg116
g1137
sg109
(lp1149
S':'
asbag102
(g123
g104
NtRp1150
(dp1151
g107
(dp1152
sg116
g1137
sg109
(lp1153
g102
(g103
g104
NtRp1154
(dp1155
g107
(dp1156
g115
I4
ssg116
g1150
sg109
(lp1157
S'127.0.0.1:8000'
p1158
asbasbasbag102
(g118
g104
NtRp1159
(dp1160
g107
(dp1161
sg116
g867
sg109
(lp1162
g102
(g123
g104
NtRp1163
(dp1164
g107
(dp1165
g127
g128
ssg116
g1159
sg109
(lp1166
S'http_referer'
p1167
asbag102
(g123
g104
NtRp1168
(dp1169
g107
(dp1170
g134
g135
ssg116
g1159
sg109
(lp1171
S':'
asbag102
(g123
g104
NtRp1172
(dp1173
g107
(dp1174
sg116
g1159
sg109
(lp1175
g102
(g103
g104
NtRp1176
(dp1177
g107
(dp1178
g115
I4
ssg116
g1172
sg109
(lp1179
S'http://127.0.0.1:8000/newsapp/default/index'
p1180
asbasbasbag102
(g118
g104
NtRp1181
(dp1182
g107
(dp1183
sg116
g867
sg109
(lp1184
g102
(g123
g104
NtRp1185
(dp1186
g107
(dp1187
g127
g128
ssg116
g1181
sg109
(lp1188
S'http_user_agent'
p1189
asbag102
(g123
g104
NtRp1190
(dp1191
g107
(dp1192
g134
g135
ssg116
g1181
sg109
(lp1193
S':'
asbag102
(g123
g104
NtRp1194
(dp1195
g107
(dp1196
sg116
g1181
sg109
(lp1197
g102
(g103
g104
NtRp1198
(dp1199
g107
(dp1200
g115
I4
ssg116
g1194
sg109
(lp1201
S'Mozilla/5.0 (X11; Linux x86_64) AppleWebKit/537.36 (KHTML, like Gecko) Chrome/42.0.2311.135 Safari/537.36'
p1202
asbasbasbag102
(g118
g104
NtRp1203
(dp1204
g107
(dp1205
sg116
g867
sg109
(lp1206
g102
(g123
g104
NtRp1207
(dp1208
g107
(dp1209
g127
g128
ssg116
g1203
sg109
(lp1210
S'is_jython'
p1211
asbag102
(g123
g104
NtRp1212
(dp1213
g107
(dp1214
g134
g135
ssg116
g1203
sg109
(lp1215
S':'
asbag102
(g123
g104
NtRp1216
(dp1217
g107
(dp1218
sg116
g1203
sg109
(lp1219
g102
(g103
g104
NtRp1220
(dp1221
g107
(dp1222
g115
I4
ssg116
g1216
sg109
(lp1223
g145
asbasbasbag102
(g118
g104
NtRp1224
(dp1225
g107
(dp1226
sg116
g867
sg109
(lp1227
g102
(g123
g104
NtRp1228
(dp1229
g107
(dp1230
g127
g128
ssg116
g1224
sg109
(lp1231
S'is_pypy'
p1232
asbag102
(g123
g104
NtRp1233
(dp1234
g107
(dp1235
g134
g135
ssg116
g1224
sg109
(lp1236
S':'
asbag102
(g123
g104
NtRp1237
(dp1238
g107
(dp1239
sg116
g1224
sg109
(lp1240
g102
(g103
g104
NtRp1241
(dp1242
g107
(dp1243
g115
I4
ssg116
g1237
sg109
(lp1244
g145
asbasbasbag102
(g118
g104
NtRp1245
(dp1246
g107
(dp1247
sg116
g867
sg109
(lp1248
g102
(g123
g104
NtRp1249
(dp1250
g107
(dp1251
g127
g128
ssg116
g1245
sg109
(lp1252
S'path_info'
p1253
asbag102
(g123
g104
NtRp1254
(dp1255
g107
(dp1256
g134
g135
ssg116
g1245
sg109
(lp1257
S':'
asbag102
(g123
g104
NtRp1258
(dp1259
g107
(dp1260
sg116
g1245
sg109
(lp1261
g102
(g103
g104
NtRp1262
(dp1263
g107
(dp1264
g115
I4
ssg116
g1258
sg109
(lp1265
S'/newsapp/default/fbuser'
p1266
asbasbasbag102
(g118
g104
NtRp1267
(dp1268
g107
(dp1269
sg116
g867
sg109
(lp1270
g102
(g123
g104
NtRp1271
(dp1272
g107
(dp1273
g127
g128
ssg116
g1267
sg109
(lp1274
S'query_string'
p1275
asbag102
(g123
g104
NtRp1276
(dp1277
g107
(dp1278
g134
g135
ssg116
g1267
sg109
(lp1279
S':'
asbag102
(g123
g104
NtRp1280
(dp1281
g107
(dp1282
sg116
g1267
sg109
(lp1283
g102
(g103
g104
NtRp1284
(dp1285
g107
(dp1286
g115
I4
ssg116
g1280
sg109
(lp1287
S''
asbasbasbag102
(g118
g104
NtRp1288
(dp1289
g107
(dp1290
sg116
g867
sg109
(lp1291
g102
(g123
g104
NtRp1292
(dp1293
g107
(dp1294
g127
g128
ssg116
g1288
sg109
(lp1295
S'remote_addr'
p1296
asbag102
(g123
g104
NtRp1297
(dp1298
g107
(dp1299
g134
g135
ssg116
g1288
sg109
(lp1300
S':'
asbag102
(g123
g104
NtRp1301
(dp1302
g107
(dp1303
sg116
g1288
sg109
(lp1304
g102
(g103
g104
NtRp1305
(dp1306
g107
(dp1307
g115
I4
ssg116
g1301
sg109
(lp1308
g235
asbasbasbag102
(g118
g104
NtRp1309
(dp1310
g107
(dp1311
sg116
g867
sg109
(lp1312
g102
(g123
g104
NtRp1313
(dp1314
g107
(dp1315
g127
g128
ssg116
g1309
sg109
(lp1316
S'remote_port'
p1317
asbag102
(g123
g104
NtRp1318
(dp1319
g107
(dp1320
g134
g135
ssg116
g1309
sg109
(lp1321
S':'
asbag102
(g123
g104
NtRp1322
(dp1323
g107
(dp1324
sg116
g1309
sg109
(lp1325
g102
(g103
g104
NtRp1326
(dp1327
g107
(dp1328
g115
I4
ssg116
g1322
sg109
(lp1329
S'48001'
p1330
asbasbasbag102
(g118
g104
NtRp1331
(dp1332
g107
(dp1333
sg116
g867
sg109
(lp1334
g102
(g123
g104
NtRp1335
(dp1336
g107
(dp1337
g127
g128
ssg116
g1331
sg109
(lp1338
S'request_method'
p1339
asbag102
(g123
g104
NtRp1340
(dp1341
g107
(dp1342
g134
g135
ssg116
g1331
sg109
(lp1343
S':'
asbag102
(g123
g104
NtRp1344
(dp1345
g107
(dp1346
sg116
g1331
sg109
(lp1347
g102
(g103
g104
NtRp1348
(dp1349
g107
(dp1350
g115
I4
ssg116
g1344
sg109
(lp1351
S'GET'
p1352
asbasbasbag102
(g118
g104
NtRp1353
(dp1354
g107
(dp1355
sg116
g867
sg109
(lp1356
g102
(g123
g104
NtRp1357
(dp1358
g107
(dp1359
g127
g128
ssg116
g1353
sg109
(lp1360
S'script_name'
p1361
asbag102
(g123
g104
NtRp1362
(dp1363
g107
(dp1364
g134
g135
ssg116
g1353
sg109
(lp1365
S':'
asbag102
(g123
g104
NtRp1366
(dp1367
g107
(dp1368
sg116
g1353
sg109
(lp1369
g102
(g103
g104
NtRp1370
(dp1371
g107
(dp1372
g115
I4
ssg116
g1366
sg109
(lp1373
S''
asbasbasbag102
(g118
g104
NtRp1374
(dp1375
g107
(dp1376
sg116
g867
sg109
(lp1377
g102
(g123
g104
NtRp1378
(dp1379
g107
(dp1380
g127
g128
ssg116
g1374
sg109
(lp1381
S'server_name'
p1382
asbag102
(g123
g104
NtRp1383
(dp1384
g107
(dp1385
g134
g135
ssg116
g1374
sg109
(lp1386
S':'
asbag102
(g123
g104
NtRp1387
(dp1388
g107
(dp1389
sg116
g1374
sg109
(lp1390
g102
(g103
g104
NtRp1391
(dp1392
g107
(dp1393
g115
I4
ssg116
g1387
sg109
(lp1394
S'pooja-HP-15-Notebook-PC'
p1395
asbasbasbag102
(g118
g104
NtRp1396
(dp1397
g107
(dp1398
sg116
g867
sg109
(lp1399
g102
(g123
g104
NtRp1400
(dp1401
g107
(dp1402
g127
g128
ssg116
g1396
sg109
(lp1403
S'server_port'
p1404
asbag102
(g123
g104
NtRp1405
(dp1406
g107
(dp1407
g134
g135
ssg116
g1396
sg109
(lp1408
S':'
asbag102
(g123
g104
NtRp1409
(dp1410
g107
(dp1411
sg116
g1396
sg109
(lp1412
g102
(g103
g104
NtRp1413
(dp1414
g107
(dp1415
g115
I4
ssg116
g1409
sg109
(lp1416
S'8000'
p1417
asbasbasbag102
(g118
g104
NtRp1418
(dp1419
g107
(dp1420
sg116
g867
sg109
(lp1421
g102
(g123
g104
NtRp1422
(dp1423
g107
(dp1424
g127
g128
ssg116
g1418
sg109
(lp1425
S'server_protocol'
p1426
asbag102
(g123
g104
NtRp1427
(dp1428
g107
(dp1429
g134
g135
ssg116
g1418
sg109
(lp1430
S':'
asbag102
(g123
g104
NtRp1431
(dp1432
g107
(dp1433
sg116
g1418
sg109
(lp1434
g102
(g103
g104
NtRp1435
(dp1436
g107
(dp1437
g115
I4
ssg116
g1431
sg109
(lp1438
S'HTTP/1.1'
p1439
asbasbasbag102
(g118
g104
NtRp1440
(dp1441
g107
(dp1442
sg116
g867
sg109
(lp1443
g102
(g123
g104
NtRp1444
(dp1445
g107
(dp1446
g127
g128
ssg116
g1440
sg109
(lp1447
S'server_software'
p1448
asbag102
(g123
g104
NtRp1449
(dp1450
g107
(dp1451
g134
g135
ssg116
g1440
sg109
(lp1452
S':'
asbag102
(g123
g104
NtRp1453
(dp1454
g107
(dp1455
sg116
g1440
sg109
(lp1456
g102
(g103
g104
NtRp1457
(dp1458
g107
(dp1459
g115
I4
ssg116
g1453
sg109
(lp1460
S'Rocket 1.2.4'
p1461
asbasbasbag102
(g118
g104
NtRp1462
(dp1463
g107
(dp1464
sg116
g867
sg109
(lp1465
g102
(g123
g104
NtRp1466
(dp1467
g107
(dp1468
g127
g128
ssg116
g1462
sg109
(lp1469
S'web2py_crontype'
p1470
asbag102
(g123
g104
NtRp1471
(dp1472
g107
(dp1473
g134
g135
ssg116
g1462
sg109
(lp1474
S':'
asbag102
(g123
g104
NtRp1475
(dp1476
g107
(dp1477
sg116
g1462
sg109
(lp1478
g102
(g103
g104
NtRp1479
(dp1480
g107
(dp1481
g115
I4
ssg116
g1475
sg109
(lp1482
S'hard'
p1483
asbasbasbag102
(g118
g104
NtRp1484
(dp1485
g107
(dp1486
sg116
g867
sg109
(lp1487
g102
(g123
g104
NtRp1488
(dp1489
g107
(dp1490
g127
g128
ssg116
g1484
sg109
(lp1491
S'web2py_path'
p1492
asbag102
(g123
g104
NtRp1493
(dp1494
g107
(dp1495
g134
g135
ssg116
g1484
sg109
(lp1496
S':'
asbag102
(g123
g104
NtRp1497
(dp1498
g107
(dp1499
sg116
g1484
sg109
(lp1500
g102
(g103
g104
NtRp1501
(dp1502
g107
(dp1503
g115
I4
ssg116
g1497
sg109
(lp1504
g914
asbasbasbag102
(g118
g104
NtRp1505
(dp1506
g107
(dp1507
sg116
g867
sg109
(lp1508
g102
(g123
g104
NtRp1509
(dp1510
g107
(dp1511
g127
g128
ssg116
g1505
sg109
(lp1512
S'web2py_version'
p1513
asbag102
(g123
g104
NtRp1514
(dp1515
g107
(dp1516
g134
g135
ssg116
g1505
sg109
(lp1517
S':'
asbag102
(g123
g104
NtRp1518
(dp1519
g107
(dp1520
sg116
g1505
sg109
(lp1521
g102
(g103
g104
NtRp1522
(dp1523
g107
(dp1524
g115
I4
ssg116
g1518
sg109
(lp1525
g102
(g111
g104
NtRp1526
(dp1527
g107
(dp1528
g115
I3
ssg116
Nsg109
(lp1529
g102
(g118
g104
NtRp1530
(dp1531
g107
(dp1532
sg116
g1526
sg109
(lp1533
g102
(g123
g104
NtRp1534
(dp1535
g107
(dp1536
sg116
g1530
sg109
(lp1537
g102
(g103
g104
NtRp1538
(dp1539
g107
(dp1540
g115
I3
ssg116
g1534
sg109
(lp1541
S'1'
asbasbasbag102
(g118
g104
NtRp1542
(dp1543
g107
(dp1544
sg116
g1526
sg109
(lp1545
g102
(g123
g104
NtRp1546
(dp1547
g107
(dp1548
sg116
g1542
sg109
(lp1549
g102
(g103
g104
NtRp1550
(dp1551
g107
(dp1552
g115
I3
ssg116
g1546
sg109
(lp1553
S'99'
p1554
asbasbasbag102
(g118
g104
NtRp1555
(dp1556
g107
(dp1557
sg116
g1526
sg109
(lp1558
g102
(g123
g104
NtRp1559
(dp1560
g107
(dp1561
sg116
g1555
sg109
(lp1562
g102
(g103
g104
NtRp1563
(dp1564
g107
(dp1565
g115
I3
ssg116
g1559
sg109
(lp1566
S'7'
asbasbasbag102
(g118
g104
NtRp1567
(dp1568
g107
(dp1569
sg116
g1526
sg109
(lp1570
g102
(g123
g104
NtRp1571
(dp1572
g107
(dp1573
sg116
g1567
sg109
(lp1574
g102
(g103
g104
NtRp1575
(dp1576
g107
(dp1577
g115
I3
ssg116
g1571
sg109
(lp1578
S'datetime.datetime(2012, 3, 4, 22, 12, 8)'
p1579
asbasbasbag102
(g118
g104
NtRp1580
(dp1581
g107
(dp1582
sg116
g1526
sg109
(lp1583
g102
(g123
g104
NtRp1584
(dp1585
g107
(dp1586
sg116
g1580
sg109
(lp1587
g102
(g103
g104
NtRp1588
(dp1589
g107
(dp1590
g115
I3
ssg116
g1584
sg109
(lp1591
S'stable'
p1592
asbasbasbasbasbasbasbag102
(g118
g104
NtRp1593
(dp1594
g107
(dp1595
sg116
g867
sg109
(lp1596
g102
(g123
g104
NtRp1597
(dp1598
g107
(dp1599
g127
g128
ssg116
g1593
sg109
(lp1600
S'wsgi_errors'
p1601
asbag102
(g123
g104
NtRp1602
(dp1603
g107
(dp1604
g134
g135
ssg116
g1593
sg109
(lp1605
S':'
asbag102
(g123
g104
NtRp1606
(dp1607
g107
(dp1608
sg116
g1593
sg109
(lp1609
g102
(g103
g104
NtRp1610
(dp1611
g107
(dp1612
g115
I4
ssg116
g1606
sg109
(lp1613
S"<open file '<stderr>', mode 'w' at 0x7f8ec51111e0>"
p1614
asbasbasbag102
(g118
g104
NtRp1615
(dp1616
g107
(dp1617
sg116
g867
sg109
(lp1618
g102
(g123
g104
NtRp1619
(dp1620
g107
(dp1621
g127
g128
ssg116
g1615
sg109
(lp1622
S'wsgi_file_wrapper'
p1623
asbag102
(g123
g104
NtRp1624
(dp1625
g107
(dp1626
g134
g135
ssg116
g1615
sg109
(lp1627
S':'
asbag102
(g123
g104
NtRp1628
(dp1629
g107
(dp1630
sg116
g1615
sg109
(lp1631
g102
(g103
g104
NtRp1632
(dp1633
g107
(dp1634
g115
I4
ssg116
g1628
sg109
(lp1635
S'<class wsgiref.util.FileWrapper at 0x7f8ec08a8870>'
p1636
asbasbasbag102
(g118
g104
NtRp1637
(dp1638
g107
(dp1639
sg116
g867
sg109
(lp1640
g102
(g123
g104
NtRp1641
(dp1642
g107
(dp1643
g127
g128
ssg116
g1637
sg109
(lp1644
S'wsgi_input'
p1645
asbag102
(g123
g104
NtRp1646
(dp1647
g107
(dp1648
g134
g135
ssg116
g1637
sg109
(lp1649
S':'
asbag102
(g123
g104
NtRp1650
(dp1651
g107
(dp1652
sg116
g1637
sg109
(lp1653
g102
(g103
g104
NtRp1654
(dp1655
g107
(dp1656
g115
I4
ssg116
g1650
sg109
(lp1657
S'<socket._fileobject object at 0x7f8e67552750>'
p1658
asbasbasbag102
(g118
g104
NtRp1659
(dp1660
g107
(dp1661
sg116
g867
sg109
(lp1662
g102
(g123
g104
NtRp1663
(dp1664
g107
(dp1665
g127
g128
ssg116
g1659
sg109
(lp1666
S'wsgi_multiprocess'
p1667
asbag102
(g123
g104
NtRp1668
(dp1669
g107
(dp1670
g134
g135
ssg116
g1659
sg109
(lp1671
S':'
asbag102
(g123
g104
NtRp1672
(dp1673
g107
(dp1674
sg116
g1659
sg109
(lp1675
g102
(g103
g104
NtRp1676
(dp1677
g107
(dp1678
g115
I4
ssg116
g1672
sg109
(lp1679
g145
asbasbasbag102
(g118
g104
NtRp1680
(dp1681
g107
(dp1682
sg116
g867
sg109
(lp1683
g102
(g123
g104
NtRp1684
(dp1685
g107
(dp1686
g127
g128
ssg116
g1680
sg109
(lp1687
S'wsgi_multithread'
p1688
asbag102
(g123
g104
NtRp1689
(dp1690
g107
(dp1691
g134
g135
ssg116
g1680
sg109
(lp1692
S':'
asbag102
(g123
g104
NtRp1693
(dp1694
g107
(dp1695
sg116
g1680
sg109
(lp1696
g102
(g103
g104
NtRp1697
(dp1698
g107
(dp1699
g115
I4
ssg116
g1693
sg109
(lp1700
S'True'
p1701
asbasbasbag102
(g118
g104
NtRp1702
(dp1703
g107
(dp1704
sg116
g867
sg109
(lp1705
g102
(g123
g104
NtRp1706
(dp1707
g107
(dp1708
g127
g128
ssg116
g1702
sg109
(lp1709
S'wsgi_run_once'
p1710
asbag102
(g123
g104
NtRp1711
(dp1712
g107
(dp1713
g134
g135
ssg116
g1702
sg109
(lp1714
S':'
asbag102
(g123
g104
NtRp1715
(dp1716
g107
(dp1717
sg116
g1702
sg109
(lp1718
g102
(g103
g104
NtRp1719
(dp1720
g107
(dp1721
g115
I4
ssg116
g1715
sg109
(lp1722
g145
asbasbasbag102
(g118
g104
NtRp1723
(dp1724
g107
(dp1725
sg116
g867
sg109
(lp1726
g102
(g123
g104
NtRp1727
(dp1728
g107
(dp1729
g127
g128
ssg116
g1723
sg109
(lp1730
S'wsgi_url_scheme'
p1731
asbag102
(g123
g104
NtRp1732
(dp1733
g107
(dp1734
g134
g135
ssg116
g1723
sg109
(lp1735
S':'
asbag102
(g123
g104
NtRp1736
(dp1737
g107
(dp1738
sg116
g1723
sg109
(lp1739
g102
(g103
g104
NtRp1740
(dp1741
g107
(dp1742
g115
I4
ssg116
g1736
sg109
(lp1743
S'http'
p1744
asbasbasbag102
(g118
g104
NtRp1745
(dp1746
g107
(dp1747
sg116
g867
sg109
(lp1748
g102
(g123
g104
NtRp1749
(dp1750
g107
(dp1751
g127
g128
ssg116
g1745
sg109
(lp1752
S'wsgi_version'
p1753
asbag102
(g123
g104
NtRp1754
(dp1755
g107
(dp1756
g134
g135
ssg116
g1745
sg109
(lp1757
S':'
asbag102
(g123
g104
NtRp1758
(dp1759
g107
(dp1760
sg116
g1745
sg109
(lp1761
g102
(g103
g104
NtRp1762
(dp1763
g107
(dp1764
g115
I4
ssg116
g1758
sg109
(lp1765
g102
(g111
g104
NtRp1766
(dp1767
g107
(dp1768
g115
I3
ssg116
Nsg109
(lp1769
g102
(g118
g104
NtRp1770
(dp1771
g107
(dp1772
sg116
g1766
sg109
(lp1773
g102
(g123
g104
NtRp1774
(dp1775
g107
(dp1776
sg116
g1770
sg109
(lp1777
g102
(g103
g104
NtRp1778
(dp1779
g107
(dp1780
g115
I3
ssg116
g1774
sg109
(lp1781
S'1'
asbasbasbag102
(g118
g104
NtRp1782
(dp1783
g107
(dp1784
sg116
g1766
sg109
(lp1785
g102
(g123
g104
NtRp1786
(dp1787
g107
(dp1788
sg116
g1782
sg109
(lp1789
g102
(g103
g104
NtRp1790
(dp1791
g107
(dp1792
g115
I3
ssg116
g1786
sg109
(lp1793
S'0'
asbasbasbasbasbasbasbasbasbasbasbag102
(g118
g104
NtRp1794
(dp1795
g107
(dp1796
sg116
g112
sg109
(lp1797
g102
(g123
g104
NtRp1798
(dp1799
g107
(dp1800
g127
g128
ssg116
g1794
sg109
(lp1801
S'extension'
p1802
asbag102
(g123
g104
NtRp1803
(dp1804
g107
(dp1805
g134
g135
ssg116
g1794
sg109
(lp1806
S':'
asbag102
(g123
g104
NtRp1807
(dp1808
g107
(dp1809
sg116
g1794
sg109
(lp1810
g102
(g103
g104
NtRp1811
(dp1812
g107
(dp1813
g115
I5
ssg116
g1807
sg109
(lp1814
S'html'
p1815
asbasbasbag102
(g118
g104
NtRp1816
(dp1817
g107
(dp1818
sg116
g112
sg109
(lp1819
g102
(g123
g104
NtRp1820
(dp1821
g107
(dp1822
g127
g128
ssg116
g1816
sg109
(lp1823
S'folder'
p1824
asbag102
(g123
g104
NtRp1825
(dp1826
g107
(dp1827
g134
g135
ssg116
g1816
sg109
(lp1828
S':'
asbag102
(g123
g104
NtRp1829
(dp1830
g107
(dp1831
sg116
g1816
sg109
(lp1832
g102
(g103
g104
NtRp1833
(dp1834
g107
(dp1835
g115
I5
ssg116
g1829
sg109
(lp1836
S'/home/pooja/web2py/applications/newsapp/'
p1837
asbasbasbag102
(g118
g104
NtRp1838
(dp1839
g107
(dp1840
sg116
g112
sg109
(lp1841
g102
(g123
g104
NtRp1842
(dp1843
g107
(dp1844
g127
g128
ssg116
g1838
sg109
(lp1845
S'function'
p1846
asbag102
(g123
g104
NtRp1847
(dp1848
g107
(dp1849
g134
g135
ssg116
g1838
sg109
(lp1850
S':'
asbag102
(g123
g104
NtRp1851
(dp1852
g107
(dp1853
sg116
g1838
sg109
(lp1854
g102
(g103
g104
NtRp1855
(dp1856
g107
(dp1857
g115
I5
ssg116
g1851
sg109
(lp1858
S'fbuser'
p1859
asbasbasbag102
(g118
g104
NtRp1860
(dp1861
g107
(dp1862
sg116
g112
sg109
(lp1863
g102
(g123
g104
NtRp1864
(dp1865
g107
(dp1866
g127
g128
ssg116
g1860
sg109
(lp1867
S'get_vars'
p1868
asbag102
(g123
g104
NtRp1869
(dp1870
g107
(dp1871
g134
g135
ssg116
g1860
sg109
(lp1872
S':'
asbag102
(g123
g104
NtRp1873
(dp1874
g107
(dp1875
sg116
g1860
sg109
(lp1876
g102
(g103
g104
NtRp1877
(dp1878
g107
(dp1879
g115
I5
ssg116
g1873
sg109
(lp1880
g102
(g111
g104
NtRp1881
(dp1882
g107
(dp1883
g115
I4
ssg116
Nsg109
(lp1884
sbasbasbasbag102
(g118
g104
NtRp1885
(dp1886
g107
(dp1887
sg116
g112
sg109
(lp1888
g102
(g123
g104
NtRp1889
(dp1890
g107
(dp1891
g127
g128
ssg116
g1885
sg109
(lp1892
S'global_settings'
p1893
asbag102
(g123
g104
NtRp1894
(dp1895
g107
(dp1896
g134
g135
ssg116
g1885
sg109
(lp1897
S':'
asbag102
(g123
g104
NtRp1898
(dp1899
g107
(dp1900
sg116
g1885
sg109
(lp1901
g102
(g103
g104
NtRp1902
(dp1903
g107
(dp1904
g115
I5
ssg116
g1898
sg109
(lp1905
g102
(g111
g104
NtRp1906
(dp1907
g107
(dp1908
g115
I4
ssg116
Nsg109
(lp1909
g102
(g118
g104
NtRp1910
(dp1911
g107
(dp1912
sg116
g1906
sg109
(lp1913
g102
(g123
g104
NtRp1914
(dp1915
g107
(dp1916
g127
g128
ssg116
g1910
sg109
(lp1917
g879
asbag102
(g123
g104
NtRp1918
(dp1919
g107
(dp1920
g134
g135
ssg116
g1910
sg109
(lp1921
S':'
asbag102
(g123
g104
NtRp1922
(dp1923
g107
(dp1924
sg116
g1910
sg109
(lp1925
g102
(g103
g104
NtRp1926
(dp1927
g107
(dp1928
g115
I4
ssg116
g1922
sg109
(lp1929
S"set(['/home/pooja/web2py/applications/admin/', '/home/pooja/web2py/applications/newsapp/', '/home/pooja/web2py/applications/welcome/'])"
p1930
asbasbasbag102
(g118
g104
NtRp1931
(dp1932
g107
(dp1933
sg116
g1906
sg109
(lp1934
g102
(g123
g104
NtRp1935
(dp1936
g107
(dp1937
g127
g128
ssg116
g1931
sg109
(lp1938
g901
asbag102
(g123
g104
NtRp1939
(dp1940
g107
(dp1941
g134
g135
ssg116
g1931
sg109
(lp1942
S':'
asbag102
(g123
g104
NtRp1943
(dp1944
g107
(dp1945
sg116
g1931
sg109
(lp1946
g102
(g103
g104
NtRp1947
(dp1948
g107
(dp1949
g115
I4
ssg116
g1943
sg109
(lp1950
g914
asbasbasbag102
(g118
g104
NtRp1951
(dp1952
g107
(dp1953
sg116
g1906
sg109
(lp1954
g102
(g123
g104
NtRp1955
(dp1956
g107
(dp1957
g127
g128
ssg116
g1951
sg109
(lp1958
g923
asbag102
(g123
g104
NtRp1959
(dp1960
g107
(dp1961
g134
g135
ssg116
g1951
sg109
(lp1962
S':'
asbag102
(g123
g104
NtRp1963
(dp1964
g107
(dp1965
sg116
g1951
sg109
(lp1966
g102
(g103
g104
NtRp1967
(dp1968
g107
(dp1969
g115
I4
ssg116
g1963
sg109
(lp1970
g102
(g111
g104
NtRp1971
(dp1972
g107
(dp1973
g115
I3
ssg116
Nsg109
(lp1974
sbasbasbasbag102
(g118
g104
NtRp1975
(dp1976
g107
(dp1977
sg116
g1906
sg109
(lp1978
g102
(g123
g104
NtRp1979
(dp1980
g107
(dp1981
g127
g128
ssg116
g1975
sg109
(lp1982
g948
asbag102
(g123
g104
NtRp1983
(dp1984
g107
(dp1985
g134
g135
ssg116
g1975
sg109
(lp1986
S':'
asbag102
(g123
g104
NtRp1987
(dp1988
g107
(dp1989
sg116
g1975
sg109
(lp1990
g102
(g103
g104
NtRp1991
(dp1992
g107
(dp1993
g115
I4
ssg116
g1987
sg109
(lp1994
S"<Values at 0x7f8ec06a5908: {'verbose': False, 'ip': '127.0.0.1', 'shutdown_timeout': 5, 'taskbar': False, 'nocron': False, 'pid_filename': 'httpserver.pid', 'maxthreads': None, 'softcron': False, 'server_name': 'pooja-HP-15-Notebook-PC', 'bpython': False, 'nogui': False, 'port': 8000, 'extcron': False, 'debuglevel': 30, 'test': None, 'folder': '/home/pooja/web2py', 'config': '', 'import_models': False, 'winservice': '', 'shell': None, 'run': '', 'log_filename': 'httpserver.log', 'args': [''], 'socket_timeout': 5, 'ssl_ca_certificate': None, 'scheduler': None, 'profiler_filename': None, 'ssl_private_key': '', 'password': '<ask>', 'request_queue_size': 5, 'ssl_certificate': '', 'cronjob': False, 'numthreads': None, 'quiet': False, 'interfaces': None, 'minthreads': None, 'timeout': 10, 'plain': False, 'nobanner': False}>"
p1995
asbasbasbag102
(g118
g104
NtRp1996
(dp1997
g107
(dp1998
sg116
g1906
sg109
(lp1999
g102
(g123
g104
NtRp2000
(dp2001
g107
(dp2002
g127
g128
ssg116
g1996
sg109
(lp2003
g970
asbag102
(g123
g104
NtRp2004
(dp2005
g107
(dp2006
g134
g135
ssg116
g1996
sg109
(lp2007
S':'
asbag102
(g123
g104
NtRp2008
(dp2009
g107
(dp2010
sg116
g1996
sg109
(lp2011
g102
(g103
g104
NtRp2012
(dp2013
g107
(dp2014
g115
I4
ssg116
g2008
sg109
(lp2015
S'set([])'
p2016
asbasbasbag102
(g118
g104
NtRp2017
(dp2018
g107
(dp2019
sg116
g1906
sg109
(lp2020
g102
(g123
g104
NtRp2021
(dp2022
g107
(dp2023
g127
g128
ssg116
g2017
sg109
(lp2024
g992
asbag102
(g123
g104
NtRp2025
(dp2026
g107
(dp2027
g134
g135
ssg116
g2017
sg109
(lp2028
S':'
asbag102
(g123
g104
NtRp2029
(dp2030
g107
(dp2031
sg116
g2017
sg109
(lp2032
g102
(g103
g104
NtRp2033
(dp2034
g107
(dp2035
g115
I4
ssg116
g2029
sg109
(lp2036
g145
asbasbasbag102
(g118
g104
NtRp2037
(dp2038
g107
(dp2039
sg116
g1906
sg109
(lp2040
g102
(g123
g104
NtRp2041
(dp2042
g107
(dp2043
g127
g128
ssg116
g2037
sg109
(lp2044
g1013
asbag102
(g123
g104
NtRp2045
(dp2046
g107
(dp2047
g134
g135
ssg116
g2037
sg109
(lp2048
S':'
asbag102
(g123
g104
NtRp2049
(dp2050
g107
(dp2051
sg116
g2037
sg109
(lp2052
g102
(g103
g104
NtRp2053
(dp2054
g107
(dp2055
g115
I4
ssg116
g2049
sg109
(lp2056
g1026
asbasbasbag102
(g118
g104
NtRp2057
(dp2058
g107
(dp2059
sg116
g1906
sg109
(lp2060
g102
(g123
g104
NtRp2061
(dp2062
g107
(dp2063
g127
g128
ssg116
g2057
sg109
(lp2064
g1211
asbag102
(g123
g104
NtRp2065
(dp2066
g107
(dp2067
g134
g135
ssg116
g2057
sg109
(lp2068
S':'
asbag102
(g123
g104
NtRp2069
(dp2070
g107
(dp2071
sg116
g2057
sg109
(lp2072
g102
(g103
g104
NtRp2073
(dp2074
g107
(dp2075
g115
I4
ssg116
g2069
sg109
(lp2076
g145
asbasbasbag102
(g118
g104
NtRp2077
(dp2078
g107
(dp2079
sg116
g1906
sg109
(lp2080
g102
(g123
g104
NtRp2081
(dp2082
g107
(dp2083
g127
g128
ssg116
g2077
sg109
(lp2084
g1232
asbag102
(g123
g104
NtRp2085
(dp2086
g107
(dp2087
g134
g135
ssg116
g2077
sg109
(lp2088
S':'
asbag102
(g123
g104
NtRp2089
(dp2090
g107
(dp2091
sg116
g2077
sg109
(lp2092
g102
(g103
g104
NtRp2093
(dp2094
g107
(dp2095
g115
I4
ssg116
g2089
sg109
(lp2096
g145
asbasbasbag102
(g118
g104
NtRp2097
(dp2098
g107
(dp2099
sg116
g1906
sg109
(lp2100
g102
(g123
g104
NtRp2101
(dp2102
g107
(dp2103
g127
g128
ssg116
g2097
sg109
(lp2104
g1470
asbag102
(g123
g104
NtRp2105
(dp2106
g107
(dp2107
g134
g135
ssg116
g2097
sg109
(lp2108
S':'
asbag102
(g123
g104
NtRp2109
(dp2110
g107
(dp2111
sg116
g2097
sg109
(lp2112
g102
(g103
g104
NtRp2113
(dp2114
g107
(dp2115
g115
I4
ssg116
g2109
sg109
(lp2116
g1483
asbasbasbag102
(g118
g104
NtRp2117
(dp2118
g107
(dp2119
sg116
g1906
sg109
(lp2120
g102
(g123
g104
NtRp2121
(dp2122
g107
(dp2123
g127
g128
ssg116
g2117
sg109
(lp2124
g1513
asbag102
(g123
g104
NtRp2125
(dp2126
g107
(dp2127
g134
g135
ssg116
g2117
sg109
(lp2128
S':'
asbag102
(g123
g104
NtRp2129
(dp2130
g107
(dp2131
sg116
g2117
sg109
(lp2132
g102
(g103
g104
NtRp2133
(dp2134
g107
(dp2135
g115
I4
ssg116
g2129
sg109
(lp2136
g102
(g111
g104
NtRp2137
(dp2138
g107
(dp2139
g115
I3
ssg116
Nsg109
(lp2140
g102
(g118
g104
NtRp2141
(dp2142
g107
(dp2143
sg116
g2137
sg109
(lp2144
g102
(g123
g104
NtRp2145
(dp2146
g107
(dp2147
sg116
g2141
sg109
(lp2148
g102
(g103
g104
NtRp2149
(dp2150
g107
(dp2151
g115
I3
ssg116
g2145
sg109
(lp2152
S'1'
asbasbasbag102
(g118
g104
NtRp2153
(dp2154
g107
(dp2155
sg116
g2137
sg109
(lp2156
g102
(g123
g104
NtRp2157
(dp2158
g107
(dp2159
sg116
g2153
sg109
(lp2160
g102
(g103
g104
NtRp2161
(dp2162
g107
(dp2163
g115
I3
ssg116
g2157
sg109
(lp2164
S'99'
p2165
asbasbasbag102
(g118
g104
NtRp2166
(dp2167
g107
(dp2168
sg116
g2137
sg109
(lp2169
g102
(g123
g104
NtRp2170
(dp2171
g107
(dp2172
sg116
g2166
sg109
(lp2173
g102
(g103
g104
NtRp2174
(dp2175
g107
(dp2176
g115
I3
ssg116
g2170
sg109
(lp2177
S'7'
asbasbasbag102
(g118
g104
NtRp2178
(dp2179
g107
(dp2180
sg116
g2137
sg109
(lp2181
g102
(g123
g104
NtRp2182
(dp2183
g107
(dp2184
sg116
g2178
sg109
(lp2185
g102
(g103
g104
NtRp2186
(dp2187
g107
(dp2188
g115
I3
ssg116
g2182
sg109
(lp2189
S'datetime.datetime(2012, 3, 4, 22, 12, 8)'
p2190
asbasbasbag102
(g118
g104
NtRp2191
(dp2192
g107
(dp2193
sg116
g2137
sg109
(lp2194
g102
(g123
g104
NtRp2195
(dp2196
g107
(dp2197
sg116
g2191
sg109
(lp2198
g102
(g103
g104
NtRp2199
(dp2200
g107
(dp2201
g115
I3
ssg116
g2195
sg109
(lp2202
g1592
asbasbasbasbasbasbasbasbasbasbasbag102
(g118
g104
NtRp2203
(dp2204
g107
(dp2205
sg116
g112
sg109
(lp2206
g102
(g123
g104
NtRp2207
(dp2208
g107
(dp2209
g127
g128
ssg116
g2203
sg109
(lp2210
S'is_https'
p2211
asbag102
(g123
g104
NtRp2212
(dp2213
g107
(dp2214
g134
g135
ssg116
g2203
sg109
(lp2215
S':'
asbag102
(g123
g104
NtRp2216
(dp2217
g107
(dp2218
sg116
g2203
sg109
(lp2219
g102
(g103
g104
NtRp2220
(dp2221
g107
(dp2222
g115
I5
ssg116
g2216
sg109
(lp2223
g145
asbasbasbag102
(g118
g104
NtRp2224
(dp2225
g107
(dp2226
sg116
g112
sg109
(lp2227
g102
(g123
g104
NtRp2228
(dp2229
g107
(dp2230
g127
g128
ssg116
g2224
sg109
(lp2231
S'is_local'
p2232
asbag102
(g123
g104
NtRp2233
(dp2234
g107
(dp2235
g134
g135
ssg116
g2224
sg109
(lp2236
S':'
asbag102
(g123
g104
NtRp2237
(dp2238
g107
(dp2239
sg116
g2224
sg109
(lp2240
g102
(g103
g104
NtRp2241
(dp2242
g107
(dp2243
g115
I5
ssg116
g2237
sg109
(lp2244
g1701
asbasbasbag102
(g118
g104
NtRp2245
(dp2246
g107
(dp2247
sg116
g112
sg109
(lp2248
g102
(g123
g104
NtRp2249
(dp2250
g107
(dp2251
g127
g128
ssg116
g2245
sg109
(lp2252
S'is_restful'
p2253
asbag102
(g123
g104
NtRp2254
(dp2255
g107
(dp2256
g134
g135
ssg116
g2245
sg109
(lp2257
S':'
asbag102
(g123
g104
NtRp2258
(dp2259
g107
(dp2260
sg116
g2245
sg109
(lp2261
g102
(g103
g104
NtRp2262
(dp2263
g107
(dp2264
g115
I5
ssg116
g2258
sg109
(lp2265
g145
asbasbasbag102
(g118
g104
NtRp2266
(dp2267
g107
(dp2268
sg116
g112
sg109
(lp2269
g102
(g123
g104
NtRp2270
(dp2271
g107
(dp2272
g127
g128
ssg116
g2266
sg109
(lp2273
S'now'
p2274
asbag102
(g123
g104
NtRp2275
(dp2276
g107
(dp2277
g134
g135
ssg116
g2266
sg109
(lp2278
S':'
asbag102
(g123
g104
NtRp2279
(dp2280
g107
(dp2281
sg116
g2266
sg109
(lp2282
g102
(g103
g104
NtRp2283
(dp2284
g107
(dp2285
g115
I5
ssg116
g2279
sg109
(lp2286
S'datetime.datetime(2015, 5, 9, 16, 55, 53, 479227)'
p2287
asbasbasbag102
(g118
g104
NtRp2288
(dp2289
g107
(dp2290
sg116
g112
sg109
(lp2291
g102
(g123
g104
NtRp2292
(dp2293
g107
(dp2294
g127
g128
ssg116
g2288
sg109
(lp2295
S'post_vars'
p2296
asbag102
(g123
g104
NtRp2297
(dp2298
g107
(dp2299
g134
g135
ssg116
g2288
sg109
(lp2300
S':'
asbag102
(g123
g104
NtRp2301
(dp2302
g107
(dp2303
sg116
g2288
sg109
(lp2304
g102
(g103
g104
NtRp2305
(dp2306
g107
(dp2307
g115
I5
ssg116
g2301
sg109
(lp2308
g102
(g111
g104
NtRp2309
(dp2310
g107
(dp2311
g115
I4
ssg116
Nsg109
(lp2312
sbasbasbasbag102
(g118
g104
NtRp2313
(dp2314
g107
(dp2315
sg116
g112
sg109
(lp2316
g102
(g123
g104
NtRp2317
(dp2318
g107
(dp2319
g127
g128
ssg116
g2313
sg109
(lp2320
g87
asbag102
(g123
g104
NtRp2321
(dp2322
g107
(dp2323
g134
g135
ssg116
g2313
sg109
(lp2324
S':'
asbag102
(g123
g104
NtRp2325
(dp2326
g107
(dp2327
sg116
g2313
sg109
(lp2328
g102
(g103
g104
NtRp2329
(dp2330
g107
(dp2331
g115
I5
ssg116
g2325
sg109
(lp2332
S'/newsapp/default/fbuser'
p2333
asbasbasbag102
(g118
g104
NtRp2334
(dp2335
g107
(dp2336
sg116
g112
sg109
(lp2337
g102
(g123
g104
NtRp2338
(dp2339
g107
(dp2340
g127
g128
ssg116
g2334
sg109
(lp2341
S'utcnow'
p2342
asbag102
(g123
g104
NtRp2343
(dp2344
g107
(dp2345
g134
g135
ssg116
g2334
sg109
(lp2346
S':'
asbag102
(g123
g104
NtRp2347
(dp2348
g107
(dp2349
sg116
g2334
sg109
(lp2350
g102
(g103
g104
NtRp2351
(dp2352
g107
(dp2353
g115
I5
ssg116
g2347
sg109
(lp2354
S'datetime.datetime(2015, 5, 9, 11, 25, 53, 479269)'
p2355
asbasbasbag102
(g118
g104
NtRp2356
(dp2357
g107
(dp2358
sg116
g112
sg109
(lp2359
g102
(g123
g104
NtRp2360
(dp2361
g107
(dp2362
g127
g128
ssg116
g2356
sg109
(lp2363
S'uuid'
p2364
asbag102
(g123
g104
NtRp2365
(dp2366
g107
(dp2367
g134
g135
ssg116
g2356
sg109
(lp2368
S':'
asbag102
(g123
g104
NtRp2369
(dp2370
g107
(dp2371
sg116
g2356
sg109
(lp2372
g102
(g103
g104
NtRp2373
(dp2374
g107
(dp2375
g115
I5
ssg116
g2369
sg109
(lp2376
S'newsapp/127.0.0.1.2015-05-09.16-55-53.001018f2-d1c6-4b01-8fa4-0684fd0a5652'
p2377
asbasbasbag102
(g118
g104
NtRp2378
(dp2379
g107
(dp2380
sg116
g112
sg109
(lp2381
g102
(g123
g104
NtRp2382
(dp2383
g107
(dp2384
g127
g128
ssg116
g2378
sg109
(lp2385
S'vars'
p2386
asbag102
(g123
g104
NtRp2387
(dp2388
g107
(dp2389
g134
g135
ssg116
g2378
sg109
(lp2390
S':'
asbag102
(g123
g104
NtRp2391
(dp2392
g107
(dp2393
sg116
g2378
sg109
(lp2394
g102
(g103
g104
NtRp2395
(dp2396
g107
(dp2397
g115
I5
ssg116
g2391
sg109
(lp2398
g102
(g111
g104
NtRp2399
(dp2400
g107
(dp2401
g115
I4
ssg116
Nsg109
(lp2402
sbasbasbasbag102
(g118
g104
NtRp2403
(dp2404
g107
(dp2405
sg116
g112
sg109
(lp2406
g102
(g123
g104
NtRp2407
(dp2408
g107
(dp2409
g127
g128
ssg116
g2403
sg109
(lp2410
S'wsgi'
p2411
asbag102
(g123
g104
NtRp2412
(dp2413
g107
(dp2414
g134
g135
ssg116
g2403
sg109
(lp2415
S':'
asbag102
(g123
g104
NtRp2416
(dp2417
g107
(dp2418
sg116
g2403
sg109
(lp2419
g102
(g103
g104
NtRp2420
(dp2421
g107
(dp2422
g115
I5
ssg116
g2416
sg109
(lp2423
g102
(g111
g104
NtRp2424
(dp2425
g107
(dp2426
g115
I4
ssg116
Nsg109
(lp2427
g102
(g118
g104
NtRp2428
(dp2429
g107
(dp2430
sg116
g2424
sg109
(lp2431
g102
(g123
g104
NtRp2432
(dp2433
g107
(dp2434
g127
g128
ssg116
g2428
sg109
(lp2435
S'environ'
p2436
asbag102
(g123
g104
NtRp2437
(dp2438
g107
(dp2439
g134
g135
ssg116
g2428
sg109
(lp2440
S':'
asbag102
(g123
g104
NtRp2441
(dp2442
g107
(dp2443
sg116
g2428
sg109
(lp2444
g102
(g103
g104
NtRp2445
(dp2446
g107
(dp2447
g115
I4
ssg116
g2441
sg109
(lp2448
g102
(g111
g104
NtRp2449
(dp2450
g107
(dp2451
g115
I3
ssg116
Nsg109
(lp2452
g102
(g118
g104
NtRp2453
(dp2454
g107
(dp2455
sg116
g2449
sg109
(lp2456
g102
(g123
g104
NtRp2457
(dp2458
g107
(dp2459
g127
g128
ssg116
g2453
sg109
(lp2460
S'HTTP_ACCEPT'
p2461
asbag102
(g123
g104
NtRp2462
(dp2463
g107
(dp2464
g134
g135
ssg116
g2453
sg109
(lp2465
S':'
asbag102
(g123
g104
NtRp2466
(dp2467
g107
(dp2468
sg116
g2453
sg109
(lp2469
g102
(g103
g104
NtRp2470
(dp2471
g107
(dp2472
g115
I3
ssg116
g2466
sg109
(lp2473
g1048
asbasbasbag102
(g118
g104
NtRp2474
(dp2475
g107
(dp2476
sg116
g2449
sg109
(lp2477
g102
(g123
g104
NtRp2478
(dp2479
g107
(dp2480
g127
g128
ssg116
g2474
sg109
(lp2481
S'HTTP_ACCEPT_ENCODING'
p2482
asbag102
(g123
g104
NtRp2483
(dp2484
g107
(dp2485
g134
g135
ssg116
g2474
sg109
(lp2486
S':'
asbag102
(g123
g104
NtRp2487
(dp2488
g107
(dp2489
sg116
g2474
sg109
(lp2490
g102
(g103
g104
NtRp2491
(dp2492
g107
(dp2493
g115
I3
ssg116
g2487
sg109
(lp2494
g1070
asbasbasbag102
(g118
g104
NtRp2495
(dp2496
g107
(dp2497
sg116
g2449
sg109
(lp2498
g102
(g123
g104
NtRp2499
(dp2500
g107
(dp2501
g127
g128
ssg116
g2495
sg109
(lp2502
S'HTTP_ACCEPT_LANGUAGE'
p2503
asbag102
(g123
g104
NtRp2504
(dp2505
g107
(dp2506
g134
g135
ssg116
g2495
sg109
(lp2507
S':'
asbag102
(g123
g104
NtRp2508
(dp2509
g107
(dp2510
sg116
g2495
sg109
(lp2511
g102
(g103
g104
NtRp2512
(dp2513
g107
(dp2514
g115
I3
ssg116
g2508
sg109
(lp2515
g1092
asbasbasbag102
(g118
g104
NtRp2516
(dp2517
g107
(dp2518
sg116
g2449
sg109
(lp2519
g102
(g123
g104
NtRp2520
(dp2521
g107
(dp2522
g127
g128
ssg116
g2516
sg109
(lp2523
S'HTTP_CONNECTION'
p2524
asbag102
(g123
g104
NtRp2525
(dp2526
g107
(dp2527
g134
g135
ssg116
g2516
sg109
(lp2528
S':'
asbag102
(g123
g104
NtRp2529
(dp2530
g107
(dp2531
sg116
g2516
sg109
(lp2532
g102
(g103
g104
NtRp2533
(dp2534
g107
(dp2535
g115
I3
ssg116
g2529
sg109
(lp2536
g1114
asbasbasbag102
(g118
g104
NtRp2537
(dp2538
g107
(dp2539
sg116
g2449
sg109
(lp2540
g102
(g123
g104
NtRp2541
(dp2542
g107
(dp2543
g127
g128
ssg116
g2537
sg109
(lp2544
S'HTTP_COOKIE'
p2545
asbag102
(g123
g104
NtRp2546
(dp2547
g107
(dp2548
g134
g135
ssg116
g2537
sg109
(lp2549
S':'
asbag102
(g123
g104
NtRp2550
(dp2551
g107
(dp2552
sg116
g2537
sg109
(lp2553
g102
(g103
g104
NtRp2554
(dp2555
g107
(dp2556
g115
I3
ssg116
g2550
sg109
(lp2557
g1136
asbasbasbag102
(g118
g104
NtRp2558
(dp2559
g107
(dp2560
sg116
g2449
sg109
(lp2561
g102
(g123
g104
NtRp2562
(dp2563
g107
(dp2564
g127
g128
ssg116
g2558
sg109
(lp2565
S'HTTP_HOST'
p2566
asbag102
(g123
g104
NtRp2567
(dp2568
g107
(dp2569
g134
g135
ssg116
g2558
sg109
(lp2570
S':'
asbag102
(g123
g104
NtRp2571
(dp2572
g107
(dp2573
sg116
g2558
sg109
(lp2574
g102
(g103
g104
NtRp2575
(dp2576
g107
(dp2577
g115
I3
ssg116
g2571
sg109
(lp2578
g1158
asbasbasbag102
(g118
g104
NtRp2579
(dp2580
g107
(dp2581
sg116
g2449
sg109
(lp2582
g102
(g123
g104
NtRp2583
(dp2584
g107
(dp2585
g127
g128
ssg116
g2579
sg109
(lp2586
S'HTTP_REFERER'
p2587
asbag102
(g123
g104
NtRp2588
(dp2589
g107
(dp2590
g134
g135
ssg116
g2579
sg109
(lp2591
S':'
asbag102
(g123
g104
NtRp2592
(dp2593
g107
(dp2594
sg116
g2579
sg109
(lp2595
g102
(g103
g104
NtRp2596
(dp2597
g107
(dp2598
g115
I3
ssg116
g2592
sg109
(lp2599
g1180
asbasbasbag102
(g118
g104
NtRp2600
(dp2601
g107
(dp2602
sg116
g2449
sg109
(lp2603
g102
(g123
g104
NtRp2604
(dp2605
g107
(dp2606
g127
g128
ssg116
g2600
sg109
(lp2607
S'HTTP_USER_AGENT'
p2608
asbag102
(g123
g104
NtRp2609
(dp2610
g107
(dp2611
g134
g135
ssg116
g2600
sg109
(lp2612
S':'
asbag102
(g123
g104
NtRp2613
(dp2614
g107
(dp2615
sg116
g2600
sg109
(lp2616
g102
(g103
g104
NtRp2617
(dp2618
g107
(dp2619
g115
I3
ssg116
g2613
sg109
(lp2620
g1202
asbasbasbag102
(g118
g104
NtRp2621
(dp2622
g107
(dp2623
sg116
g2449
sg109
(lp2624
g102
(g123
g104
NtRp2625
(dp2626
g107
(dp2627
g127
g128
ssg116
g2621
sg109
(lp2628
S'PATH_INFO'
p2629
asbag102
(g123
g104
NtRp2630
(dp2631
g107
(dp2632
g134
g135
ssg116
g2621
sg109
(lp2633
S':'
asbag102
(g123
g104
NtRp2634
(dp2635
g107
(dp2636
sg116
g2621
sg109
(lp2637
g102
(g103
g104
NtRp2638
(dp2639
g107
(dp2640
g115
I3
ssg116
g2634
sg109
(lp2641
g1266
asbasbasbag102
(g118
g104
NtRp2642
(dp2643
g107
(dp2644
sg116
g2449
sg109
(lp2645
g102
(g123
g104
NtRp2646
(dp2647
g107
(dp2648
g127
g128
ssg116
g2642
sg109
(lp2649
S'QUERY_STRING'
p2650
asbag102
(g123
g104
NtRp2651
(dp2652
g107
(dp2653
g134
g135
ssg116
g2642
sg109
(lp2654
S':'
asbag102
(g123
g104
NtRp2655
(dp2656
g107
(dp2657
sg116
g2642
sg109
(lp2658
g102
(g103
g104
NtRp2659
(dp2660
g107
(dp2661
g115
I3
ssg116
g2655
sg109
(lp2662
S''
asbasbasbag102
(g118
g104
NtRp2663
(dp2664
g107
(dp2665
sg116
g2449
sg109
(lp2666
g102
(g123
g104
NtRp2667
(dp2668
g107
(dp2669
g127
g128
ssg116
g2663
sg109
(lp2670
S'REMOTE_ADDR'
p2671
asbag102
(g123
g104
NtRp2672
(dp2673
g107
(dp2674
g134
g135
ssg116
g2663
sg109
(lp2675
S':'
asbag102
(g123
g104
NtRp2676
(dp2677
g107
(dp2678
sg116
g2663
sg109
(lp2679
g102
(g103
g104
NtRp2680
(dp2681
g107
(dp2682
g115
I3
ssg116
g2676
sg109
(lp2683
g235
asbasbasbag102
(g118
g104
NtRp2684
(dp2685
g107
(dp2686
sg116
g2449
sg109
(lp2687
g102
(g123
g104
NtRp2688
(dp2689
g107
(dp2690
g127
g128
ssg116
g2684
sg109
(lp2691
S'REMOTE_PORT'
p2692
asbag102
(g123
g104
NtRp2693
(dp2694
g107
(dp2695
g134
g135
ssg116
g2684
sg109
(lp2696
S':'
asbag102
(g123
g104
NtRp2697
(dp2698
g107
(dp2699
sg116
g2684
sg109
(lp2700
g102
(g103
g104
NtRp2701
(dp2702
g107
(dp2703
g115
I3
ssg116
g2697
sg109
(lp2704
g1330
asbasbasbag102
(g118
g104
NtRp2705
(dp2706
g107
(dp2707
sg116
g2449
sg109
(lp2708
g102
(g123
g104
NtRp2709
(dp2710
g107
(dp2711
g127
g128
ssg116
g2705
sg109
(lp2712
S'REQUEST_METHOD'
p2713
asbag102
(g123
g104
NtRp2714
(dp2715
g107
(dp2716
g134
g135
ssg116
g2705
sg109
(lp2717
S':'
asbag102
(g123
g104
NtRp2718
(dp2719
g107
(dp2720
sg116
g2705
sg109
(lp2721
g102
(g103
g104
NtRp2722
(dp2723
g107
(dp2724
g115
I3
ssg116
g2718
sg109
(lp2725
g1352
asbasbasbag102
(g118
g104
NtRp2726
(dp2727
g107
(dp2728
sg116
g2449
sg109
(lp2729
g102
(g123
g104
NtRp2730
(dp2731
g107
(dp2732
g127
g128
ssg116
g2726
sg109
(lp2733
S'SCRIPT_NAME'
p2734
asbag102
(g123
g104
NtRp2735
(dp2736
g107
(dp2737
g134
g135
ssg116
g2726
sg109
(lp2738
S':'
asbag102
(g123
g104
NtRp2739
(dp2740
g107
(dp2741
sg116
g2726
sg109
(lp2742
g102
(g103
g104
NtRp2743
(dp2744
g107
(dp2745
g115
I3
ssg116
g2739
sg109
(lp2746
S''
asbasbasbag102
(g118
g104
NtRp2747
(dp2748
g107
(dp2749
sg116
g2449
sg109
(lp2750
g102
(g123
g104
NtRp2751
(dp2752
g107
(dp2753
g127
g128
ssg116
g2747
sg109
(lp2754
S'SERVER_NAME'
p2755
asbag102
(g123
g104
NtRp2756
(dp2757
g107
(dp2758
g134
g135
ssg116
g2747
sg109
(lp2759
S':'
asbag102
(g123
g104
NtRp2760
(dp2761
g107
(dp2762
sg116
g2747
sg109
(lp2763
g102
(g103
g104
NtRp2764
(dp2765
g107
(dp2766
g115
I3
ssg116
g2760
sg109
(lp2767
g1395
asbasbasbag102
(g118
g104
NtRp2768
(dp2769
g107
(dp2770
sg116
g2449
sg109
(lp2771
g102
(g123
g104
NtRp2772
(dp2773
g107
(dp2774
g127
g128
ssg116
g2768
sg109
(lp2775
S'SERVER_PORT'
p2776
asbag102
(g123
g104
NtRp2777
(dp2778
g107
(dp2779
g134
g135
ssg116
g2768
sg109
(lp2780
S':'
asbag102
(g123
g104
NtRp2781
(dp2782
g107
(dp2783
sg116
g2768
sg109
(lp2784
g102
(g103
g104
NtRp2785
(dp2786
g107
(dp2787
g115
I3
ssg116
g2781
sg109
(lp2788
g1417
asbasbasbag102
(g118
g104
NtRp2789
(dp2790
g107
(dp2791
sg116
g2449
sg109
(lp2792
g102
(g123
g104
NtRp2793
(dp2794
g107
(dp2795
g127
g128
ssg116
g2789
sg109
(lp2796
S'SERVER_PROTOCOL'
p2797
asbag102
(g123
g104
NtRp2798
(dp2799
g107
(dp2800
g134
g135
ssg116
g2789
sg109
(lp2801
S':'
asbag102
(g123
g104
NtRp2802
(dp2803
g107
(dp2804
sg116
g2789
sg109
(lp2805
g102
(g103
g104
NtRp2806
(dp2807
g107
(dp2808
g115
I3
ssg116
g2802
sg109
(lp2809
g1439
asbasbasbag102
(g118
g104
NtRp2810
(dp2811
g107
(dp2812
sg116
g2449
sg109
(lp2813
g102
(g123
g104
NtRp2814
(dp2815
g107
(dp2816
g127
g128
ssg116
g2810
sg109
(lp2817
S'SERVER_SOFTWARE'
p2818
asbag102
(g123
g104
NtRp2819
(dp2820
g107
(dp2821
g134
g135
ssg116
g2810
sg109
(lp2822
S':'
asbag102
(g123
g104
NtRp2823
(dp2824
g107
(dp2825
sg116
g2810
sg109
(lp2826
g102
(g103
g104
NtRp2827
(dp2828
g107
(dp2829
g115
I3
ssg116
g2823
sg109
(lp2830
g1461
asbasbasbag102
(g118
g104
NtRp2831
(dp2832
g107
(dp2833
sg116
g2449
sg109
(lp2834
g102
(g123
g104
NtRp2835
(dp2836
g107
(dp2837
g127
g128
ssg116
g2831
sg109
(lp2838
S'wsgi.errors'
p2839
asbag102
(g123
g104
NtRp2840
(dp2841
g107
(dp2842
g134
g135
ssg116
g2831
sg109
(lp2843
S':'
asbag102
(g123
g104
NtRp2844
(dp2845
g107
(dp2846
sg116
g2831
sg109
(lp2847
g102
(g103
g104
NtRp2848
(dp2849
g107
(dp2850
g115
I3
ssg116
g2844
sg109
(lp2851
S"<open file '<stderr>', mode 'w' at 0x7f8ec51111e0>"
p2852
asbasbasbag102
(g118
g104
NtRp2853
(dp2854
g107
(dp2855
sg116
g2449
sg109
(lp2856
g102
(g123
g104
NtRp2857
(dp2858
g107
(dp2859
g127
g128
ssg116
g2853
sg109
(lp2860
S'wsgi.file_wrapper'
p2861
asbag102
(g123
g104
NtRp2862
(dp2863
g107
(dp2864
g134
g135
ssg116
g2853
sg109
(lp2865
S':'
asbag102
(g123
g104
NtRp2866
(dp2867
g107
(dp2868
sg116
g2853
sg109
(lp2869
g102
(g103
g104
NtRp2870
(dp2871
g107
(dp2872
g115
I3
ssg116
g2866
sg109
(lp2873
S'<class wsgiref.util.FileWrapper at 0x7f8ec08a8870>'
p2874
asbasbasbag102
(g118
g104
NtRp2875
(dp2876
g107
(dp2877
sg116
g2449
sg109
(lp2878
g102
(g123
g104
NtRp2879
(dp2880
g107
(dp2881
g127
g128
ssg116
g2875
sg109
(lp2882
S'wsgi.input'
p2883
asbag102
(g123
g104
NtRp2884
(dp2885
g107
(dp2886
g134
g135
ssg116
g2875
sg109
(lp2887
S':'
asbag102
(g123
g104
NtRp2888
(dp2889
g107
(dp2890
sg116
g2875
sg109
(lp2891
g102
(g103
g104
NtRp2892
(dp2893
g107
(dp2894
g115
I3
ssg116
g2888
sg109
(lp2895
S'<cStringIO.StringO object at 0x7f8e675f8068>'
p2896
asbasbasbag102
(g118
g104
NtRp2897
(dp2898
g107
(dp2899
sg116
g2449
sg109
(lp2900
g102
(g123
g104
NtRp2901
(dp2902
g107
(dp2903
g127
g128
ssg116
g2897
sg109
(lp2904
S'wsgi.multiprocess'
p2905
asbag102
(g123
g104
NtRp2906
(dp2907
g107
(dp2908
g134
g135
ssg116
g2897
sg109
(lp2909
S':'
asbag102
(g123
g104
NtRp2910
(dp2911
g107
(dp2912
sg116
g2897
sg109
(lp2913
g102
(g103
g104
NtRp2914
(dp2915
g107
(dp2916
g115
I3
ssg116
g2910
sg109
(lp2917
g145
asbasbasbag102
(g118
g104
NtRp2918
(dp2919
g107
(dp2920
sg116
g2449
sg109
(lp2921
g102
(g123
g104
NtRp2922
(dp2923
g107
(dp2924
g127
g128
ssg116
g2918
sg109
(lp2925
S'wsgi.multithread'
p2926
asbag102
(g123
g104
NtRp2927
(dp2928
g107
(dp2929
g134
g135
ssg116
g2918
sg109
(lp2930
S':'
asbag102
(g123
g104
NtRp2931
(dp2932
g107
(dp2933
sg116
g2918
sg109
(lp2934
g102
(g103
g104
NtRp2935
(dp2936
g107
(dp2937
g115
I3
ssg116
g2931
sg109
(lp2938
g1701
asbasbasbag102
(g118
g104
NtRp2939
(dp2940
g107
(dp2941
sg116
g2449
sg109
(lp2942
g102
(g123
g104
NtRp2943
(dp2944
g107
(dp2945
g127
g128
ssg116
g2939
sg109
(lp2946
S'wsgi.run_once'
p2947
asbag102
(g123
g104
NtRp2948
(dp2949
g107
(dp2950
g134
g135
ssg116
g2939
sg109
(lp2951
S':'
asbag102
(g123
g104
NtRp2952
(dp2953
g107
(dp2954
sg116
g2939
sg109
(lp2955
g102
(g103
g104
NtRp2956
(dp2957
g107
(dp2958
g115
I3
ssg116
g2952
sg109
(lp2959
g145
asbasbasbag102
(g118
g104
NtRp2960
(dp2961
g107
(dp2962
sg116
g2449
sg109
(lp2963
g102
(g123
g104
NtRp2964
(dp2965
g107
(dp2966
g127
g128
ssg116
g2960
sg109
(lp2967
S'wsgi.url_scheme'
p2968
asbag102
(g123
g104
NtRp2969
(dp2970
g107
(dp2971
g134
g135
ssg116
g2960
sg109
(lp2972
S':'
asbag102
(g123
g104
NtRp2973
(dp2974
g107
(dp2975
sg116
g2960
sg109
(lp2976
g102
(g103
g104
NtRp2977
(dp2978
g107
(dp2979
g115
I3
ssg116
g2973
sg109
(lp2980
g1744
asbasbasbag102
(g118
g104
NtRp2981
(dp2982
g107
(dp2983
sg116
g2449
sg109
(lp2984
g102
(g123
g104
NtRp2985
(dp2986
g107
(dp2987
g127
g128
ssg116
g2981
sg109
(lp2988
S'wsgi.version'
p2989
asbag102
(g123
g104
NtRp2990
(dp2991
g107
(dp2992
g134
g135
ssg116
g2981
sg109
(lp2993
S':'
asbag102
(g123
g104
NtRp2994
(dp2995
g107
(dp2996
sg116
g2981
sg109
(lp2997
g102
(g103
g104
NtRp2998
(dp2999
g107
(dp3000
g115
I3
ssg116
g2994
sg109
(lp3001
S'1'
asbasbasbasbasbasbasbasbasbasbasbasbasbsS'frames'
p3002
(lp3003
(dp3004
S'file'
p3005
S'/usr/lib/pymodules/python2.7/gluon/restricted.py'
p3006
sS'dump'
p3007
(dp3008
S'environment'
p3009
S"{'A': <class 'gluon.html.A'>, 'Auth': <class 'gluon.tools.Auth'>, 'B': <class 'gluon.html.B'>, 'BEAUTIFY': <class 'gluon.html.BEAUTIFY'>, 'BODY': <class 'gluon.html.BODY'>, 'BR': <class 'gluon.html.BR'>, 'BUTTON': <class 'gluon.html.BUTTON'>, 'CAT': <class 'gluon.html.CAT'>, 'CENTER': <class 'gluon.html.CENTER'>, 'CLEANUP': <class 'gluon.validators.CLEANUP'>, ...}"
p3010
sS'ccode'
p3011
S'<code object <module> at 0x7f8e675525b0, file "/...ications/newsapp/controllers/default.py", line 1>'
p3012
ssS'lnum'
p3013
I205
sS'lines'
p3014
(dp3015
I200
S'    try:'
p3016
sI201
S'        if type(code) == types.CodeType:'
p3017
sI202
S'            ccode = code'
p3018
sI203
S'        else:'
p3019
sI204
S'            ccode = compile2(code,layer)'
p3020
sI205
S'        exec ccode in environment'
p3021
sI206
S'    except HTTP:'
p3022
sI207
S'        raise'
p3023
sI208
S'    except RestrictedError:'
p3024
sI209
S'        # do not encapsulate (obfuscate) the original RestrictedError'
p3025
ssS'call'
p3026
S"(code='import urllib,urllib2\\nfrom urlparse import *\\nimp... dict()\\n\\nresponse._vars=response._caller(fbuser)\\n', environment={'A': <class 'gluon.html.A'>, 'Auth': <class 'gluon.tools.Auth'>, 'B': <class 'gluon.html.B'>, 'BEAUTIFY': <class 'gluon.html.BEAUTIFY'>, 'BODY': <class 'gluon.html.BODY'>, 'BR': <class 'gluon.html.BR'>, 'BUTTON': <class 'gluon.html.BUTTON'>, 'CAT': <class 'gluon.html.CAT'>, 'CENTER': <class 'gluon.html.CENTER'>, 'CLEANUP': <class 'gluon.validators.CLEANUP'>, ...}, layer='/home/pooja/web2py/applications/newsapp/controllers/default.py')"
p3027
sS'func'
p3028
S'restricted'
p3029
sa(dp3030
g3005
S'/home/pooja/web2py/applications/newsapp/controllers/default.py'
p3031
sg3007
(dp3032
sg3013
I101
sg3014
(dp3033
I96
S'    session.extended_token = extended_token'
p3034
sI97
S'    expires = interm[2]'
p3035
sI98
S'    fb_status = db.executesql("""INSERT IGNORE INTO  fb_details(name,email_id,fb_id,access_token,expiry) VALUES (%s,%s,%s,%s,%s);""",(name,email_id,session.fb_id,extended_token,expires))'
p3036
sI99
S'    return dict()'
p3037
sI90
S'    url += "&fb_exchange_token=%s"%(token)'
p3038
sI91
S''
sI92
S'    data = urllib2.urlopen(url)'
p3039
sI93
S'    interm = data.read().split("=")'
p3040
sI94
S'    token = interm[1].split("&")'
p3041
sI95
S'    extended_token = token[0]'
p3042
ssg3026
S'()'
p3043
sg3028
S'<module>'
p3044
sa(dp3045
g3005
S'/usr/lib/pymodules/python2.7/gluon/globals.py'
p3046
sg3007
(dp3047
S'self'
p3048
S'undefined'
p3049
sS'f'
S'<function fbuser>'
p3050
ssg3013
I173
sg3014
(dp3051
I168
S'        self.menu = []             # used by the default view layout'
p3052
sI169
S'        self.files = []            # used by web2py_ajax.html'
p3053
sI170
S'        self.generic_patterns = [] # patterns to allow generic views'
p3054
sI171
S"        self.delimiters = ('{{','}}')"
p3055
sI172
S'        self._vars = None'
p3056
sI173
S'        self._caller = lambda f: f()'
p3057
sI174
S'        self._view_environment = None'
p3058
sI175
S'        self._custom_commit = None'
p3059
sI176
S'        self._custom_rollback = None'
p3060
sI177
S''
ssg3026
S'(f=<function fbuser>)'
p3061
sg3028
S'<lambda>'
p3062
sa(dp3063
g3005
S'/home/pooja/web2py/applications/newsapp/controllers/default.py'
p3064
sg3007
(dp3065
S'urllib2.urlopen'
p3066
S'<function urlopen>'
p3067
sS'global urllib2'
p3068
S"<module 'urllib2' from '/usr/lib/python2.7/urllib2.pyc'>"
p3069
sS'url1'
p3070
S"'https://graph.facebook.com/me?access_token=None'"
p3071
sS'details'
p3072
g3049
ssg3013
I78
sg3014
(dp3073
I73
S''
sI74
S'def fbuser():'
p3074
sI75
S'    token = request.vars.token'
p3075
sI76
S'    url1 = "https://graph.facebook.com/"'
p3076
sI77
S"    url1 += 'me?access_token=%s'%(token)"
p3077
sI78
S'    details = urllib2.urlopen(url1)'
p3078
sI79
S'    dict_response = json.loads(details.read())'
p3079
sI80
S"    name = dict_response['name']"
p3080
sI81
S'    email_id = ""'
p3081
sI82
S'    try:'
p3082
ssg3026
S'()'
p3083
sg3028
S'fbuser'
p3084
sa(dp3085
g3005
S'/usr/lib/python2.7/urllib2.py'
p3086
sg3007
(dp3087
S'_opener.open'
p3088
S'<bound method OpenerDirector.open of <urllib2.OpenerDirector instance>>'
p3089
sS'url'
p3090
S"'https://graph.facebook.com/me?access_token=None'"
p3091
sS'data'
p3092
S'None'
p3093
sS'global _opener'
p3094
S'<urllib2.OpenerDirector instance>'
p3095
sS'timeout'
p3096
S'<object object>'
p3097
ssg3013
I127
sg3014
(dp3098
I128
S''
sI129
S'def install_opener(opener):'
p3099
sI130
S'    global _opener'
p3100
sI131
S'    _opener = opener'
p3101
sI122
S'_opener = None'
p3102
sI123
S'def urlopen(url, data=None, timeout=socket._GLOBAL_DEFAULT_TIMEOUT):'
p3103
sI124
S'    global _opener'
p3104
sI125
S'    if _opener is None:'
p3105
sI126
S'        _opener = build_opener()'
p3106
sI127
S'    return _opener.open(url, data, timeout)'
p3107
ssg3026
S"(url='https://graph.facebook.com/me?access_token=None', data=None, timeout=<object object>)"
p3108
sg3028
S'urlopen'
p3109
sa(dp3110
g3005
S'/usr/lib/python2.7/urllib2.py'
p3111
sg3007
(dp3112
S'meth'
p3113
S'<bound method HTTPErrorProcessor.http_response of <urllib2.HTTPErrorProcessor instance>>'
p3114
sS'req'
p3115
S'<urllib2.Request instance>'
p3116
sS'response'
p3117
S'<addinfourl at 140249592848752 whose fp = <socket._fileobject object>>'
p3118
ssg3013
I410
sg3014
(dp3119
I405
S''
sI406
S'        # post-process response'
p3120
sI407
S'        meth_name = protocol+"_response"'
p3121
sI408
S'        for processor in self.process_response.get(protocol, []):'
p3122
sI409
S'            meth = getattr(processor, meth_name)'
p3123
sI410
S'            response = meth(req, response)'
p3124
sI411
S''
sI412
S'        return response'
p3125
sI413
S''
sI414
S'    def _open(self, req, data=None):'
p3126
ssg3026
S"(self=<urllib2.OpenerDirector instance>, fullurl='https://graph.facebook.com/me?access_token=None', data=None, timeout=<object object>)"
p3127
sg3028
S'open'
p3128
sa(dp3129
g3005
S'/usr/lib/python2.7/urllib2.py'
p3130
sg3007
(dp3131
S'msg'
p3132
S"'Bad Request'"
p3133
sS'code'
p3134
S'400'
p3135
sS'request'
p3136
S'<urllib2.Request instance>'
p3137
sS'response'
p3138
S'<addinfourl at 140249592848752 whose fp = <socket._fileobject object>>'
p3139
sS'hdrs'
p3140
S'<httplib.HTTPMessage instance>'
p3141
ssg3013
I523
sg3014
(dp3142
I518
S''
sI519
S'        # According to RFC 2616, "2xx" code indicates that the client\'s'
p3143
sI520
S'        # request was successfully received, understood, and accepted.'
p3144
sI521
S'        if not (200 <= code < 300):'
p3145
sI522
S'            response = self.parent.error('
p3146
sI523
S"                'http', request, response, code, msg, hdrs)"
p3147
sI524
S''
sI525
S'        return response'
p3148
sI526
S''
sI527
S'    https_response = http_response'
p3149
ssg3026
S'(self=<urllib2.HTTPErrorProcessor instance>, request=<urllib2.Request instance>, response=<addinfourl at 140249592848752 whose fp = <socket._fileobject object>>)'
p3150
sg3028
S'http_response'
p3151
sa(dp3152
g3005
S'/usr/lib/python2.7/urllib2.py'
p3153
sg3007
(dp3154
S'self._call_chain'
p3155
S'<bound method OpenerDirector._call_chain of <urllib2.OpenerDirector instance>>'
p3156
sS'self'
p3157
S'<urllib2.OpenerDirector instance>'
p3158
sS'args'
p3159
S"({301: [<urllib2.HTTPRedirectHandler instance>], 302: [<urllib2.HTTPRedirectHandler instance>], 303: [<urllib2.HTTPRedirectHandler instance>], 307: [<urllib2.HTTPRedirectHandler instance>], 'default': [<urllib2.HTTPDefaultErrorHandler instance>]}, 'default', 'http_error_default', <urllib2.Request instance>, <addinfourl at 140249592848752 whose fp = <socket._fileobject object>>, 400, 'Bad Request', <httplib.HTTPMessage instance>)"
p3160
ssg3013
I448
sg3014
(dp3161
I448
S'            return self._call_chain(*args)'
p3162
sI449
S''
sI450
S'# XXX probably also want an abstract factory that knows when it makes'
p3163
sI451
S'# sense to skip a superclass in favor of a subclass and when it might'
p3164
sI452
S'# make sense to include both'
p3165
sI443
S'        if result:'
p3166
sI444
S'            return result'
p3167
sI445
S''
sI446
S'        if http_err:'
p3168
sI447
S"            args = (dict, 'default', 'http_error_default') + orig_args"
p3169
ssg3026
S"(self=<urllib2.OpenerDirector instance>, proto=400, *args=({301: [<urllib2.HTTPRedirectHandler instance>], 302: [<urllib2.HTTPRedirectHandler instance>], 303: [<urllib2.HTTPRedirectHandler instance>], 307: [<urllib2.HTTPRedirectHandler instance>], 'default': [<urllib2.HTTPDefaultErrorHandler instance>]}, 'default', 'http_error_default', <urllib2.Request instance>, <addinfourl at 140249592848752 whose fp = <socket._fileobject object>>, 400, 'Bad Request', <httplib.HTTPMessage instance>))"
p3170
sg3028
S'error'
p3171
sa(dp3172
g3005
S'/usr/lib/python2.7/urllib2.py'
p3173
sg3007
(dp3174
S'args'
p3175
S"(<urllib2.Request instance>, <addinfourl at 140249592848752 whose fp = <socket._fileobject object>>, 400, 'Bad Request', <httplib.HTTPMessage instance>)"
p3176
sS'result'
p3177
g3049
sS'func'
p3178
S'<bound method HTTPDefaultErrorHandler.http_error...lt of <urllib2.HTTPDefaultErrorHandler instance>>'
p3179
ssg3013
I382
sg3014
(dp3180
I384
S'                return result'
p3181
sI385
S''
sI386
S'    def open(self, fullurl, data=None, timeout=socket._GLOBAL_DEFAULT_TIMEOUT):'
p3182
sI377
S'        # could.  Otherwise, they return the response.'
p3183
sI378
S'        handlers = chain.get(kind, ())'
p3184
sI379
S'        for handler in handlers:'
p3185
sI380
S'            func = getattr(handler, meth_name)'
p3186
sI381
S''
sI382
S'            result = func(*args)'
p3187
sI383
S'            if result is not None:'
p3188
ssg3026
S"(self=<urllib2.OpenerDirector instance>, chain={301: [<urllib2.HTTPRedirectHandler instance>], 302: [<urllib2.HTTPRedirectHandler instance>], 303: [<urllib2.HTTPRedirectHandler instance>], 307: [<urllib2.HTTPRedirectHandler instance>], 'default': [<urllib2.HTTPDefaultErrorHandler instance>]}, kind='default', meth_name='http_error_default', *args=(<urllib2.Request instance>, <addinfourl at 140249592848752 whose fp = <socket._fileobject object>>, 400, 'Bad Request', <httplib.HTTPMessage instance>))"
p3189
sg3028
S'_call_chain'
p3190
sa(dp3191
g3005
S'/usr/lib/python2.7/urllib2.py'
p3192
sg3007
(dp3193
S'fp'
p3194
S'<addinfourl at 140249592848752 whose fp = <socket._fileobject object>>'
p3195
sS'code'
p3196
S'400'
p3197
sS'hdrs'
p3198
S'<httplib.HTTPMessage instance>'
p3199
sS'req'
p3200
S'<urllib2.Request instance>'
p3201
sS'req.get_full_url'
p3202
S'<bound method Request.get_full_url of <urllib2.Request instance>>'
p3203
sS'msg'
p3204
S"'Bad Request'"
p3205
sS'global HTTPError'
p3206
S"<class 'urllib2.HTTPError'>"
p3207
ssg3013
I531
sg3014
(dp3208
I526
S''
sI527
S'    https_response = http_response'
p3209
sI528
S''
sI529
S'class HTTPDefaultErrorHandler(BaseHandler):'
p3210
sI530
S'    def http_error_default(self, req, fp, code, msg, hdrs):'
p3211
sI531
S'        raise HTTPError(req.get_full_url(), code, msg, hdrs, fp)'
p3212
sI532
S''
sI533
S'class HTTPRedirectHandler(BaseHandler):'
p3213
sI534
S'    # maximum number of redirections to any single URL'
p3214
sI535
S'    # this is needed because of the state that cookies introduce'
p3215
ssg3026
S"(self=<urllib2.HTTPDefaultErrorHandler instance>, req=<urllib2.Request instance>, fp=<addinfourl at 140249592848752 whose fp = <socket._fileobject object>>, code=400, msg='Bad Request', hdrs=<httplib.HTTPMessage instance>)"
p3216
sg3028
S'http_error_default'
p3217
sasS'pyver'
p3218
S'Python 2.7.6: /usr/bin/python'
p3219
sS'session'
p3220
g102
(g103
g104
NtRp3221
(dp3222
g107
(dp3223
sg109
(lp3224
g102
(g111
g104
NtRp3225
(dp3226
g107
(dp3227
g115
I5
ssg116
Nsg109
(lp3228
sbasbsS'etype'
p3229
S"<class 'urllib2.HTTPError'>"
p3230
sS'date'
p3231
S'Sat May  9 16:55:53 2015'
p3232
sS'response'
p3233
g102
(g103
g104
NtRp3234
(dp3235
g107
(dp3236
sg109
(lp3237
g102
(g111
g104
NtRp3238
(dp3239
g107
(dp3240
g115
I5
ssg116
Nsg109
(lp3241
g102
(g118
g104
NtRp3242
(dp3243
g107
(dp3244
sg116
g3238
sg109
(lp3245
g102
(g123
g104
NtRp3246
(dp3247
g107
(dp3248
g127
g128
ssg116
g3242
sg109
(lp3249
g200
asbag102
(g123
g104
NtRp3250
(dp3251
g107
(dp3252
g134
g135
ssg116
g3242
sg109
(lp3253
S':'
asbag102
(g123
g104
NtRp3254
(dp3255
g107
(dp3256
sg116
g3242
sg109
(lp3257
g102
(g103
g104
NtRp3258
(dp3259
g107
(dp3260
g115
I5
ssg116
g3254
sg109
(lp3261
S'<cStringIO.StringO object at 0x7f8e66e77a08>'
p3262
asbasbasbag102
(g118
g104
NtRp3263
(dp3264
g107
(dp3265
sg116
g3238
sg109
(lp3266
g102
(g123
g104
NtRp3267
(dp3268
g107
(dp3269
g127
g128
ssg116
g3263
sg109
(lp3270
g266
asbag102
(g123
g104
NtRp3271
(dp3272
g107
(dp3273
g134
g135
ssg116
g3263
sg109
(lp3274
S':'
asbag102
(g123
g104
NtRp3275
(dp3276
g107
(dp3277
sg116
g3263
sg109
(lp3278
g102
(g103
g104
NtRp3279
(dp3280
g107
(dp3281
g115
I5
ssg116
g3275
sg109
(lp3282
g102
(g111
g104
NtRp3283
(dp3284
g107
(dp3285
g115
I4
ssg116
Nsg109
(lp3286
g102
(g118
g104
NtRp3287
(dp3288
g107
(dp3289
sg116
g3283
sg109
(lp3290
g102
(g123
g104
NtRp3291
(dp3292
g107
(dp3293
g127
g128
ssg116
g3287
sg109
(lp3294
S'session_id_newsapp'
p3295
asbag102
(g123
g104
NtRp3296
(dp3297
g107
(dp3298
g134
g135
ssg116
g3287
sg109
(lp3299
S':'
asbag102
(g123
g104
NtRp3300
(dp3301
g107
(dp3302
sg116
g3287
sg109
(lp3303
g102
(g103
g104
NtRp3304
(dp3305
g107
(dp3306
g115
I4
ssg116
g3300
sg109
(lp3307
g102
(g111
g104
NtRp3308
(dp3309
g107
(dp3310
g115
I3
ssg116
Nsg109
(lp3311
g102
(g118
g104
NtRp3312
(dp3313
g107
(dp3314
sg116
g3308
sg109
(lp3315
g102
(g123
g104
NtRp3316
(dp3317
g107
(dp3318
g127
g128
ssg116
g3312
sg109
(lp3319
g316
asbag102
(g123
g104
NtRp3320
(dp3321
g107
(dp3322
g134
g135
ssg116
g3312
sg109
(lp3323
S':'
asbag102
(g123
g104
NtRp3324
(dp3325
g107
(dp3326
sg116
g3312
sg109
(lp3327
g102
(g103
g104
NtRp3328
(dp3329
g107
(dp3330
g115
I3
ssg116
g3324
sg109
(lp3331
S''
asbasbasbag102
(g118
g104
NtRp3332
(dp3333
g107
(dp3334
sg116
g3308
sg109
(lp3335
g102
(g123
g104
NtRp3336
(dp3337
g107
(dp3338
g127
g128
ssg116
g3332
sg109
(lp3339
g337
asbag102
(g123
g104
NtRp3340
(dp3341
g107
(dp3342
g134
g135
ssg116
g3332
sg109
(lp3343
S':'
asbag102
(g123
g104
NtRp3344
(dp3345
g107
(dp3346
sg116
g3332
sg109
(lp3347
g102
(g103
g104
NtRp3348
(dp3349
g107
(dp3350
g115
I3
ssg116
g3344
sg109
(lp3351
S''
asbasbasbag102
(g118
g104
NtRp3352
(dp3353
g107
(dp3354
sg116
g3308
sg109
(lp3355
g102
(g123
g104
NtRp3356
(dp3357
g107
(dp3358
g127
g128
ssg116
g3352
sg109
(lp3359
g358
asbag102
(g123
g104
NtRp3360
(dp3361
g107
(dp3362
g134
g135
ssg116
g3352
sg109
(lp3363
S':'
asbag102
(g123
g104
NtRp3364
(dp3365
g107
(dp3366
sg116
g3352
sg109
(lp3367
g102
(g103
g104
NtRp3368
(dp3369
g107
(dp3370
g115
I3
ssg116
g3364
sg109
(lp3371
S''
asbasbasbag102
(g118
g104
NtRp3372
(dp3373
g107
(dp3374
sg116
g3308
sg109
(lp3375
g102
(g123
g104
NtRp3376
(dp3377
g107
(dp3378
g127
g128
ssg116
g3372
sg109
(lp3379
g379
asbag102
(g123
g104
NtRp3380
(dp3381
g107
(dp3382
g134
g135
ssg116
g3372
sg109
(lp3383
S':'
asbag102
(g123
g104
NtRp3384
(dp3385
g107
(dp3386
sg116
g3372
sg109
(lp3387
g102
(g103
g104
NtRp3388
(dp3389
g107
(dp3390
g115
I3
ssg116
g3384
sg109
(lp3391
S''
asbasbasbag102
(g118
g104
NtRp3392
(dp3393
g107
(dp3394
sg116
g3308
sg109
(lp3395
g102
(g123
g104
NtRp3396
(dp3397
g107
(dp3398
g127
g128
ssg116
g3392
sg109
(lp3399
g400
asbag102
(g123
g104
NtRp3400
(dp3401
g107
(dp3402
g134
g135
ssg116
g3392
sg109
(lp3403
S':'
asbag102
(g123
g104
NtRp3404
(dp3405
g107
(dp3406
sg116
g3392
sg109
(lp3407
g102
(g103
g104
NtRp3408
(dp3409
g107
(dp3410
g115
I3
ssg116
g3404
sg109
(lp3411
S''
asbasbasbag102
(g118
g104
NtRp3412
(dp3413
g107
(dp3414
sg116
g3308
sg109
(lp3415
g102
(g123
g104
NtRp3416
(dp3417
g107
(dp3418
g127
g128
ssg116
g3412
sg109
(lp3419
g421
asbag102
(g123
g104
NtRp3420
(dp3421
g107
(dp3422
g134
g135
ssg116
g3412
sg109
(lp3423
S':'
asbag102
(g123
g104
NtRp3424
(dp3425
g107
(dp3426
sg116
g3412
sg109
(lp3427
g102
(g103
g104
NtRp3428
(dp3429
g107
(dp3430
g115
I3
ssg116
g3424
sg109
(lp3431
S'/'
asbasbasbag102
(g118
g104
NtRp3432
(dp3433
g107
(dp3434
sg116
g3308
sg109
(lp3435
g102
(g123
g104
NtRp3436
(dp3437
g107
(dp3438
g127
g128
ssg116
g3432
sg109
(lp3439
g442
asbag102
(g123
g104
NtRp3440
(dp3441
g107
(dp3442
g134
g135
ssg116
g3432
sg109
(lp3443
S':'
asbag102
(g123
g104
NtRp3444
(dp3445
g107
(dp3446
sg116
g3432
sg109
(lp3447
g102
(g103
g104
NtRp3448
(dp3449
g107
(dp3450
g115
I3
ssg116
g3444
sg109
(lp3451
S''
asbasbasbag102
(g118
g104
NtRp3452
(dp3453
g107
(dp3454
sg116
g3308
sg109
(lp3455
g102
(g123
g104
NtRp3456
(dp3457
g107
(dp3458
g127
g128
ssg116
g3452
sg109
(lp3459
g463
asbag102
(g123
g104
NtRp3460
(dp3461
g107
(dp3462
g134
g135
ssg116
g3452
sg109
(lp3463
S':'
asbag102
(g123
g104
NtRp3464
(dp3465
g107
(dp3466
sg116
g3452
sg109
(lp3467
g102
(g103
g104
NtRp3468
(dp3469
g107
(dp3470
g115
I3
ssg116
g3464
sg109
(lp3471
S''
asbasbasbasbasbasbasbasbasbasbasbag102
(g118
g104
NtRp3472
(dp3473
g107
(dp3474
sg116
g3238
sg109
(lp3475
g102
(g123
g104
NtRp3476
(dp3477
g107
(dp3478
g127
g128
ssg116
g3472
sg109
(lp3479
S'delimiters'
p3480
asbag102
(g123
g104
NtRp3481
(dp3482
g107
(dp3483
g134
g135
ssg116
g3472
sg109
(lp3484
S':'
asbag102
(g123
g104
NtRp3485
(dp3486
g107
(dp3487
sg116
g3472
sg109
(lp3488
g102
(g103
g104
NtRp3489
(dp3490
g107
(dp3491
g115
I5
ssg116
g3485
sg109
(lp3492
g102
(g111
g104
NtRp3493
(dp3494
g107
(dp3495
g115
I4
ssg116
Nsg109
(lp3496
g102
(g118
g104
NtRp3497
(dp3498
g107
(dp3499
sg116
g3493
sg109
(lp3500
g102
(g123
g104
NtRp3501
(dp3502
g107
(dp3503
sg116
g3497
sg109
(lp3504
g102
(g103
g104
NtRp3505
(dp3506
g107
(dp3507
g115
I4
ssg116
g3501
sg109
(lp3508
S'{{'
p3509
asbasbasbag102
(g118
g104
NtRp3510
(dp3511
g107
(dp3512
sg116
g3493
sg109
(lp3513
g102
(g123
g104
NtRp3514
(dp3515
g107
(dp3516
sg116
g3510
sg109
(lp3517
g102
(g103
g104
NtRp3518
(dp3519
g107
(dp3520
g115
I4
ssg116
g3514
sg109
(lp3521
S'}}'
p3522
asbasbasbasbasbasbasbag102
(g118
g104
NtRp3523
(dp3524
g107
(dp3525
sg116
g3238
sg109
(lp3526
g102
(g123
g104
NtRp3527
(dp3528
g107
(dp3529
g127
g128
ssg116
g3523
sg109
(lp3530
S'files'
p3531
asbag102
(g123
g104
NtRp3532
(dp3533
g107
(dp3534
g134
g135
ssg116
g3523
sg109
(lp3535
S':'
asbag102
(g123
g104
NtRp3536
(dp3537
g107
(dp3538
sg116
g3523
sg109
(lp3539
g102
(g103
g104
NtRp3540
(dp3541
g107
(dp3542
g115
I5
ssg116
g3536
sg109
(lp3543
g102
(g111
g104
NtRp3544
(dp3545
g107
(dp3546
g115
I4
ssg116
Nsg109
(lp3547
sbasbasbasbag102
(g118
g104
NtRp3548
(dp3549
g107
(dp3550
sg116
g3238
sg109
(lp3551
g102
(g123
g104
NtRp3552
(dp3553
g107
(dp3554
g127
g128
ssg116
g3548
sg109
(lp3555
S'flash'
p3556
asbag102
(g123
g104
NtRp3557
(dp3558
g107
(dp3559
g134
g135
ssg116
g3548
sg109
(lp3560
S':'
asbag102
(g123
g104
NtRp3561
(dp3562
g107
(dp3563
sg116
g3548
sg109
(lp3564
g102
(g103
g104
NtRp3565
(dp3566
g107
(dp3567
g115
I5
ssg116
g3561
sg109
(lp3568
S''
asbasbasbag102
(g118
g104
NtRp3569
(dp3570
g107
(dp3571
sg116
g3238
sg109
(lp3572
g102
(g123
g104
NtRp3573
(dp3574
g107
(dp3575
g127
g128
ssg116
g3569
sg109
(lp3576
S'generic_patterns'
p3577
asbag102
(g123
g104
NtRp3578
(dp3579
g107
(dp3580
g134
g135
ssg116
g3569
sg109
(lp3581
S':'
asbag102
(g123
g104
NtRp3582
(dp3583
g107
(dp3584
sg116
g3569
sg109
(lp3585
g102
(g103
g104
NtRp3586
(dp3587
g107
(dp3588
g115
I5
ssg116
g3582
sg109
(lp3589
g102
(g111
g104
NtRp3590
(dp3591
g107
(dp3592
g115
I4
ssg116
Nsg109
(lp3593
g102
(g118
g104
NtRp3594
(dp3595
g107
(dp3596
sg116
g3590
sg109
(lp3597
g102
(g123
g104
NtRp3598
(dp3599
g107
(dp3600
sg116
g3594
sg109
(lp3601
g102
(g103
g104
NtRp3602
(dp3603
g107
(dp3604
g115
I4
ssg116
g3598
sg109
(lp3605
S'*'
asbasbasbasbasbasbasbag102
(g118
g104
NtRp3606
(dp3607
g107
(dp3608
sg116
g3238
sg109
(lp3609
g102
(g123
g104
NtRp3610
(dp3611
g107
(dp3612
g127
g128
ssg116
g3606
sg109
(lp3613
g41
asbag102
(g123
g104
NtRp3614
(dp3615
g107
(dp3616
g134
g135
ssg116
g3606
sg109
(lp3617
S':'
asbag102
(g123
g104
NtRp3618
(dp3619
g107
(dp3620
sg116
g3606
sg109
(lp3621
g102
(g103
g104
NtRp3622
(dp3623
g107
(dp3624
g115
I5
ssg116
g3618
sg109
(lp3625
g102
(g111
g104
NtRp3626
(dp3627
g107
(dp3628
g115
I4
ssg116
Nsg109
(lp3629
g102
(g118
g104
NtRp3630
(dp3631
g107
(dp3632
sg116
g3626
sg109
(lp3633
g102
(g123
g104
NtRp3634
(dp3635
g107
(dp3636
g127
g128
ssg116
g3630
sg109
(lp3637
S'Cache-Control'
p3638
asbag102
(g123
g104
NtRp3639
(dp3640
g107
(dp3641
g134
g135
ssg116
g3630
sg109
(lp3642
S':'
asbag102
(g123
g104
NtRp3643
(dp3644
g107
(dp3645
sg116
g3630
sg109
(lp3646
g102
(g103
g104
NtRp3647
(dp3648
g107
(dp3649
g115
I4
ssg116
g3643
sg109
(lp3650
S'no-store, no-cache, must-revalidate, post-check=0, pre-check=0'
p3651
asbasbasbag102
(g118
g104
NtRp3652
(dp3653
g107
(dp3654
sg116
g3626
sg109
(lp3655
g102
(g123
g104
NtRp3656
(dp3657
g107
(dp3658
g127
g128
ssg116
g3652
sg109
(lp3659
S'Content-Type'
p3660
asbag102
(g123
g104
NtRp3661
(dp3662
g107
(dp3663
g134
g135
ssg116
g3652
sg109
(lp3664
S':'
asbag102
(g123
g104
NtRp3665
(dp3666
g107
(dp3667
sg116
g3652
sg109
(lp3668
g102
(g103
g104
NtRp3669
(dp3670
g107
(dp3671
g115
I4
ssg116
g3665
sg109
(lp3672
S'text/html; charset=utf-8'
p3673
asbasbasbag102
(g118
g104
NtRp3674
(dp3675
g107
(dp3676
sg116
g3626
sg109
(lp3677
g102
(g123
g104
NtRp3678
(dp3679
g107
(dp3680
g127
g128
ssg116
g3674
sg109
(lp3681
S'Expires'
p3682
asbag102
(g123
g104
NtRp3683
(dp3684
g107
(dp3685
g134
g135
ssg116
g3674
sg109
(lp3686
S':'
asbag102
(g123
g104
NtRp3687
(dp3688
g107
(dp3689
sg116
g3674
sg109
(lp3690
g102
(g103
g104
NtRp3691
(dp3692
g107
(dp3693
g115
I4
ssg116
g3687
sg109
(lp3694
S'Sat, 09 May 2015 11:25:53 GMT'
p3695
asbasbasbag102
(g118
g104
NtRp3696
(dp3697
g107
(dp3698
sg116
g3626
sg109
(lp3699
g102
(g123
g104
NtRp3700
(dp3701
g107
(dp3702
g127
g128
ssg116
g3696
sg109
(lp3703
S'Pragma'
p3704
asbag102
(g123
g104
NtRp3705
(dp3706
g107
(dp3707
g134
g135
ssg116
g3696
sg109
(lp3708
S':'
asbag102
(g123
g104
NtRp3709
(dp3710
g107
(dp3711
sg116
g3696
sg109
(lp3712
g102
(g103
g104
NtRp3713
(dp3714
g107
(dp3715
g115
I4
ssg116
g3709
sg109
(lp3716
S'no-cache'
p3717
asbasbasbag102
(g118
g104
NtRp3718
(dp3719
g107
(dp3720
sg116
g3626
sg109
(lp3721
g102
(g123
g104
NtRp3722
(dp3723
g107
(dp3724
g127
g128
ssg116
g3718
sg109
(lp3725
S'X-Powered-By'
p3726
asbag102
(g123
g104
NtRp3727
(dp3728
g107
(dp3729
g134
g135
ssg116
g3718
sg109
(lp3730
S':'
asbag102
(g123
g104
NtRp3731
(dp3732
g107
(dp3733
sg116
g3718
sg109
(lp3734
g102
(g103
g104
NtRp3735
(dp3736
g107
(dp3737
g115
I4
ssg116
g3731
sg109
(lp3738
S'web2py'
p3739
asbasbasbasbasbasbasbag102
(g118
g104
NtRp3740
(dp3741
g107
(dp3742
sg116
g3238
sg109
(lp3743
g102
(g123
g104
NtRp3744
(dp3745
g107
(dp3746
g127
g128
ssg116
g3740
sg109
(lp3747
S'menu'
p3748
asbag102
(g123
g104
NtRp3749
(dp3750
g107
(dp3751
g134
g135
ssg116
g3740
sg109
(lp3752
S':'
asbag102
(g123
g104
NtRp3753
(dp3754
g107
(dp3755
sg116
g3740
sg109
(lp3756
g102
(g103
g104
NtRp3757
(dp3758
g107
(dp3759
g115
I5
ssg116
g3753
sg109
(lp3760
g102
(g111
g104
NtRp3761
(dp3762
g107
(dp3763
g115
I4
ssg116
Nsg109
(lp3764
g102
(g118
g104
NtRp3765
(dp3766
g107
(dp3767
sg116
g3761
sg109
(lp3768
g102
(g123
g104
NtRp3769
(dp3770
g107
(dp3771
sg116
g3765
sg109
(lp3772
g102
(g103
g104
NtRp3773
(dp3774
g107
(dp3775
g115
I4
ssg116
g3769
sg109
(lp3776
g102
(g111
g104
NtRp3777
(dp3778
g107
(dp3779
g115
I3
ssg116
Nsg109
(lp3780
g102
(g118
g104
NtRp3781
(dp3782
g107
(dp3783
sg116
g3777
sg109
(lp3784
g102
(g123
g104
NtRp3785
(dp3786
g107
(dp3787
sg116
g3781
sg109
(lp3788
g102
(g103
g104
NtRp3789
(dp3790
g107
(dp3791
g115
I3
ssg116
g3785
sg109
(lp3792
cgluon.languages
lazyT_unpickle
p3793
(S't\x04\x00\x00\x00Home'
tRp3794
asbasbasbag102
(g118
g104
NtRp3795
(dp3796
g107
(dp3797
sg116
g3777
sg109
(lp3798
g102
(g123
g104
NtRp3799
(dp3800
g107
(dp3801
sg116
g3795
sg109
(lp3802
g102
(g103
g104
NtRp3803
(dp3804
g107
(dp3805
g115
I3
ssg116
g3799
sg109
(lp3806
g145
asbasbasbag102
(g118
g104
NtRp3807
(dp3808
g107
(dp3809
sg116
g3777
sg109
(lp3810
g102
(g123
g104
NtRp3811
(dp3812
g107
(dp3813
sg116
g3807
sg109
(lp3814
g102
(g103
g104
NtRp3815
(dp3816
g107
(dp3817
g115
I3
ssg116
g3811
sg109
(lp3818
S'/newsapp/default/index'
p3819
asbasbasbag102
(g118
g104
NtRp3820
(dp3821
g107
(dp3822
sg116
g3777
sg109
(lp3823
g102
(g123
g104
NtRp3824
(dp3825
g107
(dp3826
sg116
g3820
sg109
(lp3827
g102
(g103
g104
NtRp3828
(dp3829
g107
(dp3830
g115
I3
ssg116
g3824
sg109
(lp3831
g102
(g111
g104
NtRp3832
(dp3833
g107
(dp3834
g115
I2
ssg116
Nsg109
(lp3835
sbasbasbasbasbasbasbasbag102
(g118
g104
NtRp3836
(dp3837
g107
(dp3838
sg116
g3761
sg109
(lp3839
g102
(g123
g104
NtRp3840
(dp3841
g107
(dp3842
sg116
g3836
sg109
(lp3843
g102
(g103
g104
NtRp3844
(dp3845
g107
(dp3846
g115
I4
ssg116
g3840
sg109
(lp3847
g102
(g111
g104
NtRp3848
(dp3849
g107
(dp3850
g115
I3
ssg116
Nsg109
(lp3851
g102
(g118
g104
NtRp3852
(dp3853
g107
(dp3854
sg116
g3848
sg109
(lp3855
g102
(g123
g104
NtRp3856
(dp3857
g107
(dp3858
sg116
g3852
sg109
(lp3859
g102
(g103
g104
NtRp3860
(dp3861
g107
(dp3862
g115
I3
ssg116
g3856
sg109
(lp3863
g102
(cgluon.html
SPAN
p3864
g104
NtRp3865
(dp3866
g107
(dp3867
g127
S'color:yellow'
p3868
ssg116
Nsg109
(lp3869
g3739
asbasbasbasbag102
(g118
g104
NtRp3870
(dp3871
g107
(dp3872
sg116
g3848
sg109
(lp3873
g102
(g123
g104
NtRp3874
(dp3875
g107
(dp3876
sg116
g3870
sg109
(lp3877
g102
(g103
g104
NtRp3878
(dp3879
g107
(dp3880
g115
I3
ssg116
g3874
sg109
(lp3881
g145
asbasbasbag102
(g118
g104
NtRp3882
(dp3883
g107
(dp3884
sg116
g3848
sg109
(lp3885
g102
(g123
g104
NtRp3886
(dp3887
g107
(dp3888
sg116
g3882
sg109
(lp3889
g102
(g103
g104
NtRp3890
(dp3891
g107
(dp3892
g115
I3
ssg116
g3886
sg109
(lp3893
S'None'
p3894
asbasbasbag102
(g118
g104
NtRp3895
(dp3896
g107
(dp3897
sg116
g3848
sg109
(lp3898
g102
(g123
g104
NtRp3899
(dp3900
g107
(dp3901
sg116
g3895
sg109
(lp3902
g102
(g103
g104
NtRp3903
(dp3904
g107
(dp3905
g115
I3
ssg116
g3899
sg109
(lp3906
g102
(g111
g104
NtRp3907
(dp3908
g107
(dp3909
g115
I2
ssg116
Nsg109
(lp3910
g102
(g118
g104
NtRp3911
(dp3912
g107
(dp3913
sg116
g3907
sg109
(lp3914
g102
(g123
g104
NtRp3915
(dp3916
g107
(dp3917
sg116
g3911
sg109
(lp3918
g102
(g103
g104
NtRp3919
(dp3920
g107
(dp3921
g115
I2
ssg116
g3915
sg109
(lp3922
g102
(g111
g104
NtRp3923
(dp3924
g107
(dp3925
g115
I1
ssg116
Nsg109
(lp3926
g102
(g118
g104
NtRp3927
(dp3928
g107
(dp3929
sg116
g3923
sg109
(lp3930
g102
(g123
g104
NtRp3931
(dp3932
g107
(dp3933
sg116
g3927
sg109
(lp3934
g102
(g103
g104
NtRp3935
(dp3936
g107
(dp3937
g115
I1
ssg116
g3931
sg109
(lp3938
g3793
(S's\x08\x00\x00\x00My Sites'
tRp3939
asbasbasbag102
(g118
g104
NtRp3940
(dp3941
g107
(dp3942
sg116
g3923
sg109
(lp3943
g102
(g123
g104
NtRp3944
(dp3945
g107
(dp3946
sg116
g3940
sg109
(lp3947
g102
(g103
g104
NtRp3948
(dp3949
g107
(dp3950
g115
I1
ssg116
g3944
sg109
(lp3951
I00
asbasbasbag102
(g118
g104
NtRp3952
(dp3953
g107
(dp3954
sg116
g3923
sg109
(lp3955
g102
(g123
g104
NtRp3956
(dp3957
g107
(dp3958
sg116
g3952
sg109
(lp3959
g102
(g103
g104
NtRp3960
(dp3961
g107
(dp3962
g115
I1
ssg116
g3956
sg109
(lp3963
S'/admin/default/site'
p3964
asbasbasbasbasbasbasbag102
(g118
g104
NtRp3965
(dp3966
g107
(dp3967
sg116
g3907
sg109
(lp3968
g102
(g123
g104
NtRp3969
(dp3970
g107
(dp3971
sg116
g3965
sg109
(lp3972
g102
(g103
g104
NtRp3973
(dp3974
g107
(dp3975
g115
I2
ssg116
g3969
sg109
(lp3976
g102
(g111
g104
NtRp3977
(dp3978
g107
(dp3979
g115
I1
ssg116
Nsg109
(lp3980
g102
(g118
g104
NtRp3981
(dp3982
g107
(dp3983
sg116
g3977
sg109
(lp3984
g102
(g123
g104
NtRp3985
(dp3986
g107
(dp3987
sg116
g3981
sg109
(lp3988
g102
(g103
g104
NtRp3989
(dp3990
g107
(dp3991
g115
I1
ssg116
g3985
sg109
(lp3992
g3793
(S's\x08\x00\x00\x00This App'
tRp3993
asbasbasbag102
(g118
g104
NtRp3994
(dp3995
g107
(dp3996
sg116
g3977
sg109
(lp3997
g102
(g123
g104
NtRp3998
(dp3999
g107
(dp4000
sg116
g3994
sg109
(lp4001
g102
(g103
g104
NtRp4002
(dp4003
g107
(dp4004
g115
I1
ssg116
g3998
sg109
(lp4005
I00
asbasbasbag102
(g118
g104
NtRp4006
(dp4007
g107
(dp4008
sg116
g3977
sg109
(lp4009
g102
(g123
g104
NtRp4010
(dp4011
g107
(dp4012
sg116
g4006
sg109
(lp4013
g102
(g103
g104
NtRp4014
(dp4015
g107
(dp4016
g115
I1
ssg116
g4010
sg109
(lp4017
S'/admin/default/design/newsapp'
p4018
asbasbasbag102
(g118
g104
NtRp4019
(dp4020
g107
(dp4021
sg116
g3977
sg109
(lp4022
g102
(g123
g104
NtRp4023
(dp4024
g107
(dp4025
sg116
g4019
sg109
(lp4026
g102
(g103
g104
NtRp4027
(dp4028
g107
(dp4029
g115
I1
ssg116
g4023
sg109
(lp4030
(lp4031
(g3793
(S't\n\x00\x00\x00Controller'
tRp4032
I00
S'/admin/default/edit/newsapp/controllers/default.py'
tp4033
a(g3793
(S't\x04\x00\x00\x00View'
tRp4034
I00
S'/admin/default/edit/newsapp/views/default/fbuser.html'
tp4035
a(g3793
(S't\x06\x00\x00\x00Layout'
tRp4036
I00
S'/admin/default/edit/newsapp/views/layout.html'
tp4037
a(g3793
(S't\n\x00\x00\x00Stylesheet'
tRp4038
I00
S'/admin/default/edit/newsapp/static/css/web2py.css'
tp4039
a(g3793
(S's\x08\x00\x00\x00DB Model'
tRp4040
I00
S'/admin/default/edit/newsapp/models/db.py'
tp4041
a(g3793
(S's\n\x00\x00\x00Menu Model'
tRp4042
I00
S'/admin/default/edit/newsapp/models/menu.py'
tp4043
a(g3793
(S't\x08\x00\x00\x00Database'
tRp4044
I00
S'/newsapp/appadmin/index'
tp4045
a(g3793
(S't\x06\x00\x00\x00Errors'
tRp4046
I00
S'/admin/default/errors/newsapp'
tp4047
a(g3793
(S't\x05\x00\x00\x00About'
tRp4048
I00
S'/admin/default/about/newsapp'
tp4049
aasbasbasbasbasbasbasbag102
(g118
g104
NtRp4050
(dp4051
g107
(dp4052
sg116
g3907
sg109
(lp4053
g102
(g123
g104
NtRp4054
(dp4055
g107
(dp4056
sg116
g4050
sg109
(lp4057
g102
(g103
g104
NtRp4058
(dp4059
g107
(dp4060
g115
I2
ssg116
g4054
sg109
(lp4061
g102
(g111
g104
NtRp4062
(dp4063
g107
(dp4064
g115
I1
ssg116
Nsg109
(lp4065
g102
(g118
g104
NtRp4066
(dp4067
g107
(dp4068
sg116
g4062
sg109
(lp4069
g102
(g123
g104
NtRp4070
(dp4071
g107
(dp4072
sg116
g4066
sg109
(lp4073
g102
(g103
g104
NtRp4074
(dp4075
g107
(dp4076
g115
I1
ssg116
g4070
sg109
(lp4077
S'web2py.com'
p4078
asbasbasbag102
(g118
g104
NtRp4079
(dp4080
g107
(dp4081
sg116
g4062
sg109
(lp4082
g102
(g123
g104
NtRp4083
(dp4084
g107
(dp4085
sg116
g4079
sg109
(lp4086
g102
(g103
g104
NtRp4087
(dp4088
g107
(dp4089
g115
I1
ssg116
g4083
sg109
(lp4090
I00
asbasbasbag102
(g118
g104
NtRp4091
(dp4092
g107
(dp4093
sg116
g4062
sg109
(lp4094
g102
(g123
g104
NtRp4095
(dp4096
g107
(dp4097
sg116
g4091
sg109
(lp4098
g102
(g103
g104
NtRp4099
(dp4100
g107
(dp4101
g115
I1
ssg116
g4095
sg109
(lp4102
S'http://www.web2py.com'
p4103
asbasbasbag102
(g118
g104
NtRp4104
(dp4105
g107
(dp4106
sg116
g4062
sg109
(lp4107
g102
(g123
g104
NtRp4108
(dp4109
g107
(dp4110
sg116
g4104
sg109
(lp4111
g102
(g103
g104
NtRp4112
(dp4113
g107
(dp4114
g115
I1
ssg116
g4108
sg109
(lp4115
(lp4116
(g3793
(S't\x08\x00\x00\x00Download'
tRp4117
I00
S'http://www.web2py.com/examples/default/download'
p4118
tp4119
a(g3793
(S't\x07\x00\x00\x00Support'
tRp4120
I00
S'http://www.web2py.com/examples/default/support'
p4121
tp4122
a(g3793
(S't\x04\x00\x00\x00Demo'
tRp4123
I00
S'http://web2py.com/demo_admin'
p4124
tp4125
a(g3793
(S's\x0e\x00\x00\x00Quick Examples'
tRp4126
I00
S'http://web2py.com/examples/default/examples'
p4127
tp4128
a(g3793
(S't\x03\x00\x00\x00FAQ'
tRp4129
I00
S'http://web2py.com/AlterEgo'
p4130
tp4131
a(g3793
(S't\x06\x00\x00\x00Videos'
tRp4132
I00
S'http://www.web2py.com/examples/default/videos/'
p4133
tp4134
a(g3793
(S's\x11\x00\x00\x00Free Applications'
tRp4135
I00
S'http://web2py.com/appliances'
p4136
tp4137
a(g3793
(S't\x07\x00\x00\x00Plugins'
tRp4138
I00
S'http://web2py.com/plugins'
p4139
tp4140
a(g3793
(S't\x07\x00\x00\x00Layouts'
tRp4141
I00
S'http://web2py.com/layouts'
p4142
tp4143
a(g3793
(S't\x07\x00\x00\x00Recipes'
tRp4144
I00
S'http://web2pyslices.com/'
p4145
tp4146
a(g3793
(S't\x08\x00\x00\x00Semantic'
tRp4147
I00
S'http://web2py.com/semantic'
p4148
tp4149
aasbasbasbasbasbasbasbag102
(g118
g104
NtRp4150
(dp4151
g107
(dp4152
sg116
g3907
sg109
(lp4153
g102
(g123
g104
NtRp4154
(dp4155
g107
(dp4156
sg116
g4150
sg109
(lp4157
g102
(g103
g104
NtRp4158
(dp4159
g107
(dp4160
g115
I2
ssg116
g4154
sg109
(lp4161
g102
(g111
g104
NtRp4162
(dp4163
g107
(dp4164
g115
I1
ssg116
Nsg109
(lp4165
g102
(g118
g104
NtRp4166
(dp4167
g107
(dp4168
sg116
g4162
sg109
(lp4169
g102
(g123
g104
NtRp4170
(dp4171
g107
(dp4172
sg116
g4166
sg109
(lp4173
g102
(g103
g104
NtRp4174
(dp4175
g107
(dp4176
g115
I1
ssg116
g4170
sg109
(lp4177
g3793
(S't\r\x00\x00\x00Documentation'
tRp4178
asbasbasbag102
(g118
g104
NtRp4179
(dp4180
g107
(dp4181
sg116
g4162
sg109
(lp4182
g102
(g123
g104
NtRp4183
(dp4184
g107
(dp4185
sg116
g4179
sg109
(lp4186
g102
(g103
g104
NtRp4187
(dp4188
g107
(dp4189
g115
I1
ssg116
g4183
sg109
(lp4190
I00
asbasbasbag102
(g118
g104
NtRp4191
(dp4192
g107
(dp4193
sg116
g4162
sg109
(lp4194
g102
(g123
g104
NtRp4195
(dp4196
g107
(dp4197
sg116
g4191
sg109
(lp4198
g102
(g103
g104
NtRp4199
(dp4200
g107
(dp4201
g115
I1
ssg116
g4195
sg109
(lp4202
S'http://www.web2py.com/book'
p4203
asbasbasbag102
(g118
g104
NtRp4204
(dp4205
g107
(dp4206
sg116
g4162
sg109
(lp4207
g102
(g123
g104
NtRp4208
(dp4209
g107
(dp4210
sg116
g4204
sg109
(lp4211
g102
(g103
g104
NtRp4212
(dp4213
g107
(dp4214
g115
I1
ssg116
g4208
sg109
(lp4215
(lp4216
(g3793
(S't\x07\x00\x00\x00Preface'
tRp4217
I00
S'http://www.web2py.com/book/default/chapter/00'
p4218
tp4219
a(g3793
(S't\x0c\x00\x00\x00Introduction'
tRp4220
I00
S'http://www.web2py.com/book/default/chapter/01'
p4221
tp4222
a(g3793
(S't\x06\x00\x00\x00Python'
tRp4223
I00
S'http://www.web2py.com/book/default/chapter/02'
p4224
tp4225
a(g3793
(S't\x08\x00\x00\x00Overview'
tRp4226
I00
S'http://www.web2py.com/book/default/chapter/03'
p4227
tp4228
a(g3793
(S's\x08\x00\x00\x00The Core'
tRp4229
I00
S'http://www.web2py.com/book/default/chapter/04'
p4230
tp4231
a(g3793
(S's\t\x00\x00\x00The Views'
tRp4232
I00
S'http://www.web2py.com/book/default/chapter/05'
p4233
tp4234
a(g3793
(S't\x08\x00\x00\x00Database'
tRp4235
I00
S'http://www.web2py.com/book/default/chapter/06'
p4236
tp4237
a(g3793
(S's\x14\x00\x00\x00Forms and Validators'
tRp4238
I00
S'http://www.web2py.com/book/default/chapter/07'
p4239
tp4240
a(g3793
(S's\r\x00\x00\x00Email and SMS'
tRp4241
I00
S'http://www.web2py.com/book/default/chapter/08'
p4242
tp4243
a(g3793
(S's\x0e\x00\x00\x00Access Control'
tRp4244
I00
S'http://www.web2py.com/book/default/chapter/09'
p4245
tp4246
a(g3793
(S't\x08\x00\x00\x00Services'
tRp4247
I00
S'http://www.web2py.com/book/default/chapter/10'
p4248
tp4249
a(g3793
(S's\x0c\x00\x00\x00Ajax Recipes'
tRp4250
I00
S'http://www.web2py.com/book/default/chapter/11'
p4251
tp4252
a(g3793
(S's\x16\x00\x00\x00Components and Plugins'
tRp4253
I00
S'http://www.web2py.com/book/default/chapter/12'
p4254
tp4255
a(g3793
(S's\x12\x00\x00\x00Deployment Recipes'
tRp4256
I00
S'http://www.web2py.com/book/default/chapter/13'
p4257
tp4258
a(g3793
(S's\r\x00\x00\x00Other Recipes'
tRp4259
I00
S'http://www.web2py.com/book/default/chapter/14'
p4260
tp4261
a(g3793
(S's\r\x00\x00\x00Buy this book'
tRp4262
I00
S'http://stores.lulu.com/web2py'
p4263
tp4264
aasbasbasbasbasbasbasbag102
(g118
g104
NtRp4265
(dp4266
g107
(dp4267
sg116
g3907
sg109
(lp4268
g102
(g123
g104
NtRp4269
(dp4270
g107
(dp4271
sg116
g4265
sg109
(lp4272
g102
(g103
g104
NtRp4273
(dp4274
g107
(dp4275
g115
I2
ssg116
g4269
sg109
(lp4276
g102
(g111
g104
NtRp4277
(dp4278
g107
(dp4279
g115
I1
ssg116
Nsg109
(lp4280
g102
(g118
g104
NtRp4281
(dp4282
g107
(dp4283
sg116
g4277
sg109
(lp4284
g102
(g123
g104
NtRp4285
(dp4286
g107
(dp4287
sg116
g4281
sg109
(lp4288
g102
(g103
g104
NtRp4289
(dp4290
g107
(dp4291
g115
I1
ssg116
g4285
sg109
(lp4292
g3793
(S't\t\x00\x00\x00Community'
tRp4293
asbasbasbag102
(g118
g104
NtRp4294
(dp4295
g107
(dp4296
sg116
g4277
sg109
(lp4297
g102
(g123
g104
NtRp4298
(dp4299
g107
(dp4300
sg116
g4294
sg109
(lp4301
g102
(g103
g104
NtRp4302
(dp4303
g107
(dp4304
g115
I1
ssg116
g4298
sg109
(lp4305
I00
asbasbasbag102
(g118
g104
NtRp4306
(dp4307
g107
(dp4308
sg116
g4277
sg109
(lp4309
g102
(g123
g104
NtRp4310
(dp4311
g107
(dp4312
sg116
g4306
sg109
(lp4313
g102
(g103
g104
NtRp4314
(dp4315
g107
(dp4316
g115
I1
ssg116
g4310
sg109
(lp4317
Nasbasbasbag102
(g118
g104
NtRp4318
(dp4319
g107
(dp4320
sg116
g4277
sg109
(lp4321
g102
(g123
g104
NtRp4322
(dp4323
g107
(dp4324
sg116
g4318
sg109
(lp4325
g102
(g103
g104
NtRp4326
(dp4327
g107
(dp4328
g115
I1
ssg116
g4322
sg109
(lp4329
(lp4330
(g3793
(S't\x06\x00\x00\x00Groups'
tRp4331
I00
S'http://www.web2py.com/examples/default/usergroups'
p4332
tp4333
a(g3793
(S't\x07\x00\x00\x00Twitter'
tRp4334
I00
S'http://twitter.com/web2py'
p4335
tp4336
a(g3793
(S's\t\x00\x00\x00Live Chat'
tRp4337
I00
S'http://webchat.freenode.net/?channels=web2py'
p4338
tp4339
aasbasbasbasbasbasbasbag102
(g118
g104
NtRp4340
(dp4341
g107
(dp4342
sg116
g3907
sg109
(lp4343
g102
(g123
g104
NtRp4344
(dp4345
g107
(dp4346
sg116
g4340
sg109
(lp4347
g102
(g103
g104
NtRp4348
(dp4349
g107
(dp4350
g115
I2
ssg116
g4344
sg109
(lp4351
g102
(g111
g104
NtRp4352
(dp4353
g107
(dp4354
g115
I1
ssg116
Nsg109
(lp4355
g102
(g118
g104
NtRp4356
(dp4357
g107
(dp4358
sg116
g4352
sg109
(lp4359
g102
(g123
g104
NtRp4360
(dp4361
g107
(dp4362
sg116
g4356
sg109
(lp4363
g102
(g103
g104
NtRp4364
(dp4365
g107
(dp4366
g115
I1
ssg116
g4360
sg109
(lp4367
g3793
(S't\x07\x00\x00\x00Plugins'
tRp4368
asbasbasbag102
(g118
g104
NtRp4369
(dp4370
g107
(dp4371
sg116
g4352
sg109
(lp4372
g102
(g123
g104
NtRp4373
(dp4374
g107
(dp4375
sg116
g4369
sg109
(lp4376
g102
(g103
g104
NtRp4377
(dp4378
g107
(dp4379
g115
I1
ssg116
g4373
sg109
(lp4380
I00
asbasbasbag102
(g118
g104
NtRp4381
(dp4382
g107
(dp4383
sg116
g4352
sg109
(lp4384
g102
(g123
g104
NtRp4385
(dp4386
g107
(dp4387
sg116
g4381
sg109
(lp4388
g102
(g103
g104
NtRp4389
(dp4390
g107
(dp4391
g115
I1
ssg116
g4385
sg109
(lp4392
Nasbasbasbag102
(g118
g104
NtRp4393
(dp4394
g107
(dp4395
sg116
g4352
sg109
(lp4396
g102
(g123
g104
NtRp4397
(dp4398
g107
(dp4399
sg116
g4393
sg109
(lp4400
g102
(g103
g104
NtRp4401
(dp4402
g107
(dp4403
g115
I1
ssg116
g4397
sg109
(lp4404
(lp4405
(S'plugin_wiki'
p4406
I00
S'http://web2py.com/examples/default/download'
p4407
tp4408
a(g3793
(S's\r\x00\x00\x00Other Plugins'
tRp4409
I00
g4139
tp4410
a(g3793
(S's\x0e\x00\x00\x00Layout Plugins'
tRp4411
I00
g4142
tp4412
aasbasbasbasbasbasbasbasbasbasbasbasbasbasbasbasbasbasbasbag102
(g118
g104
NtRp4413
(dp4414
g107
(dp4415
sg116
g3238
sg109
(lp4416
g102
(g123
g104
NtRp4417
(dp4418
g107
(dp4419
g127
g128
ssg116
g4413
sg109
(lp4420
S'meta'
p4421
asbag102
(g123
g104
NtRp4422
(dp4423
g107
(dp4424
g134
g135
ssg116
g4413
sg109
(lp4425
S':'
asbag102
(g123
g104
NtRp4426
(dp4427
g107
(dp4428
sg116
g4413
sg109
(lp4429
g102
(g103
g104
NtRp4430
(dp4431
g107
(dp4432
g115
I5
ssg116
g4426
sg109
(lp4433
g102
(g111
g104
NtRp4434
(dp4435
g107
(dp4436
g115
I4
ssg116
Nsg109
(lp4437
g102
(g118
g104
NtRp4438
(dp4439
g107
(dp4440
sg116
g4434
sg109
(lp4441
g102
(g123
g104
NtRp4442
(dp4443
g107
(dp4444
g127
g128
ssg116
g4438
sg109
(lp4445
S'author'
p4446
asbag102
(g123
g104
NtRp4447
(dp4448
g107
(dp4449
g134
g135
ssg116
g4438
sg109
(lp4450
S':'
asbag102
(g123
g104
NtRp4451
(dp4452
g107
(dp4453
sg116
g4438
sg109
(lp4454
g102
(g103
g104
NtRp4455
(dp4456
g107
(dp4457
g115
I4
ssg116
g4451
sg109
(lp4458
S'Your Name <you@example.com>'
p4459
asbasbasbag102
(g118
g104
NtRp4460
(dp4461
g107
(dp4462
sg116
g4434
sg109
(lp4463
g102
(g123
g104
NtRp4464
(dp4465
g107
(dp4466
g127
g128
ssg116
g4460
sg109
(lp4467
S'copyright'
p4468
asbag102
(g123
g104
NtRp4469
(dp4470
g107
(dp4471
g134
g135
ssg116
g4460
sg109
(lp4472
S':'
asbag102
(g123
g104
NtRp4473
(dp4474
g107
(dp4475
sg116
g4460
sg109
(lp4476
g102
(g103
g104
NtRp4477
(dp4478
g107
(dp4479
g115
I4
ssg116
g4473
sg109
(lp4480
S'Copyright 2011'
p4481
asbasbasbag102
(g118
g104
NtRp4482
(dp4483
g107
(dp4484
sg116
g4434
sg109
(lp4485
g102
(g123
g104
NtRp4486
(dp4487
g107
(dp4488
g127
g128
ssg116
g4482
sg109
(lp4489
S'description'
p4490
asbag102
(g123
g104
NtRp4491
(dp4492
g107
(dp4493
g134
g135
ssg116
g4482
sg109
(lp4494
S':'
asbag102
(g123
g104
NtRp4495
(dp4496
g107
(dp4497
sg116
g4482
sg109
(lp4498
g102
(g103
g104
NtRp4499
(dp4500
g107
(dp4501
g115
I4
ssg116
g4495
sg109
(lp4502
S'a cool new app'
p4503
asbasbasbag102
(g118
g104
NtRp4504
(dp4505
g107
(dp4506
sg116
g4434
sg109
(lp4507
g102
(g123
g104
NtRp4508
(dp4509
g107
(dp4510
g127
g128
ssg116
g4504
sg109
(lp4511
S'generator'
p4512
asbag102
(g123
g104
NtRp4513
(dp4514
g107
(dp4515
g134
g135
ssg116
g4504
sg109
(lp4516
S':'
asbag102
(g123
g104
NtRp4517
(dp4518
g107
(dp4519
sg116
g4504
sg109
(lp4520
g102
(g103
g104
NtRp4521
(dp4522
g107
(dp4523
g115
I4
ssg116
g4517
sg109
(lp4524
S'Web2py Web Framework'
p4525
asbasbasbag102
(g118
g104
NtRp4526
(dp4527
g107
(dp4528
sg116
g4434
sg109
(lp4529
g102
(g123
g104
NtRp4530
(dp4531
g107
(dp4532
g127
g128
ssg116
g4526
sg109
(lp4533
S'keywords'
p4534
asbag102
(g123
g104
NtRp4535
(dp4536
g107
(dp4537
g134
g135
ssg116
g4526
sg109
(lp4538
S':'
asbag102
(g123
g104
NtRp4539
(dp4540
g107
(dp4541
sg116
g4526
sg109
(lp4542
g102
(g103
g104
NtRp4543
(dp4544
g107
(dp4545
g115
I4
ssg116
g4539
sg109
(lp4546
S'web2py, python, framework'
p4547
asbasbasbasbasbasbasbag102
(g118
g104
NtRp4548
(dp4549
g107
(dp4550
sg116
g3238
sg109
(lp4551
g102
(g123
g104
NtRp4552
(dp4553
g107
(dp4554
g127
g128
ssg116
g4548
sg109
(lp4555
S'postprocessing'
p4556
asbag102
(g123
g104
NtRp4557
(dp4558
g107
(dp4559
g134
g135
ssg116
g4548
sg109
(lp4560
S':'
asbag102
(g123
g104
NtRp4561
(dp4562
g107
(dp4563
sg116
g4548
sg109
(lp4564
g102
(g103
g104
NtRp4565
(dp4566
g107
(dp4567
g115
I5
ssg116
g4561
sg109
(lp4568
g102
(g111
g104
NtRp4569
(dp4570
g107
(dp4571
g115
I4
ssg116
Nsg109
(lp4572
sbasbasbasbag102
(g118
g104
NtRp4573
(dp4574
g107
(dp4575
sg116
g3238
sg109
(lp4576
g102
(g123
g104
NtRp4577
(dp4578
g107
(dp4579
g127
g128
ssg116
g4573
sg109
(lp4580
S'session_filename'
p4581
asbag102
(g123
g104
NtRp4582
(dp4583
g107
(dp4584
g134
g135
ssg116
g4573
sg109
(lp4585
S':'
asbag102
(g123
g104
NtRp4586
(dp4587
g107
(dp4588
sg116
g4573
sg109
(lp4589
g102
(g103
g104
NtRp4590
(dp4591
g107
(dp4592
g115
I5
ssg116
g4586
sg109
(lp4593
S'/home/pooja/web2py/applications/newsapp/sessions/127.0.0.1-f678195c-9101-4a8a-acba-ef2cb4934fd4'
p4594
asbasbasbag102
(g118
g104
NtRp4595
(dp4596
g107
(dp4597
sg116
g3238
sg109
(lp4598
g102
(g123
g104
NtRp4599
(dp4600
g107
(dp4601
g127
g128
ssg116
g4595
sg109
(lp4602
S'session_id'
p4603
asbag102
(g123
g104
NtRp4604
(dp4605
g107
(dp4606
g134
g135
ssg116
g4595
sg109
(lp4607
S':'
asbag102
(g123
g104
NtRp4608
(dp4609
g107
(dp4610
sg116
g4595
sg109
(lp4611
g102
(g103
g104
NtRp4612
(dp4613
g107
(dp4614
g115
I5
ssg116
g4608
sg109
(lp4615
S'127.0.0.1-f678195c-9101-4a8a-acba-ef2cb4934fd4'
p4616
asbasbasbag102
(g118
g104
NtRp4617
(dp4618
g107
(dp4619
sg116
g3238
sg109
(lp4620
g102
(g123
g104
NtRp4621
(dp4622
g107
(dp4623
g127
g128
ssg116
g4617
sg109
(lp4624
S'session_id_name'
p4625
asbag102
(g123
g104
NtRp4626
(dp4627
g107
(dp4628
g134
g135
ssg116
g4617
sg109
(lp4629
S':'
asbag102
(g123
g104
NtRp4630
(dp4631
g107
(dp4632
sg116
g4617
sg109
(lp4633
g102
(g103
g104
NtRp4634
(dp4635
g107
(dp4636
g115
I5
ssg116
g4630
sg109
(lp4637
g3295
asbasbasbag102
(g118
g104
NtRp4638
(dp4639
g107
(dp4640
sg116
g3238
sg109
(lp4641
g102
(g123
g104
NtRp4642
(dp4643
g107
(dp4644
g127
g128
ssg116
g4638
sg109
(lp4645
S'session_new'
p4646
asbag102
(g123
g104
NtRp4647
(dp4648
g107
(dp4649
g134
g135
ssg116
g4638
sg109
(lp4650
S':'
asbag102
(g123
g104
NtRp4651
(dp4652
g107
(dp4653
sg116
g4638
sg109
(lp4654
g102
(g103
g104
NtRp4655
(dp4656
g107
(dp4657
g115
I5
ssg116
g4651
sg109
(lp4658
g1701
asbasbasbag102
(g118
g104
NtRp4659
(dp4660
g107
(dp4661
sg116
g3238
sg109
(lp4662
g102
(g123
g104
NtRp4663
(dp4664
g107
(dp4665
g127
g128
ssg116
g4659
sg109
(lp4666
S'status'
p4667
asbag102
(g123
g104
NtRp4668
(dp4669
g107
(dp4670
g134
g135
ssg116
g4659
sg109
(lp4671
S':'
asbag102
(g123
g104
NtRp4672
(dp4673
g107
(dp4674
sg116
g4659
sg109
(lp4675
g102
(g103
g104
NtRp4676
(dp4677
g107
(dp4678
g115
I5
ssg116
g4672
sg109
(lp4679
S'200'
p4680
asbasbasbag102
(g118
g104
NtRp4681
(dp4682
g107
(dp4683
sg116
g3238
sg109
(lp4684
g102
(g123
g104
NtRp4685
(dp4686
g107
(dp4687
g127
g128
ssg116
g4681
sg109
(lp4688
S'subtitle'
p4689
asbag102
(g123
g104
NtRp4690
(dp4691
g107
(dp4692
g134
g135
ssg116
g4681
sg109
(lp4693
S':'
asbag102
(g123
g104
NtRp4694
(dp4695
g107
(dp4696
sg116
g4681
sg109
(lp4697
g102
(g103
g104
NtRp4698
(dp4699
g107
(dp4700
g115
I5
ssg116
g4694
sg109
(lp4701
g3793
(S's\r\x00\x00\x00customize me!'
tRp4702
asbasbasbag102
(g118
g104
NtRp4703
(dp4704
g107
(dp4705
sg116
g3238
sg109
(lp4706
g102
(g123
g104
NtRp4707
(dp4708
g107
(dp4709
g127
g128
ssg116
g4703
sg109
(lp4710
S'title'
p4711
asbag102
(g123
g104
NtRp4712
(dp4713
g107
(dp4714
g134
g135
ssg116
g4703
sg109
(lp4715
S':'
asbag102
(g123
g104
NtRp4716
(dp4717
g107
(dp4718
sg116
g4703
sg109
(lp4719
g102
(g103
g104
NtRp4720
(dp4721
g107
(dp4722
g115
I5
ssg116
g4716
sg109
(lp4723
S'Newsapp'
p4724
asbasbasbag102
(g118
g104
NtRp4725
(dp4726
g107
(dp4727
sg116
g3238
sg109
(lp4728
g102
(g123
g104
NtRp4729
(dp4730
g107
(dp4731
g127
g128
ssg116
g4725
sg109
(lp4732
g2364
asbag102
(g123
g104
NtRp4733
(dp4734
g107
(dp4735
g134
g135
ssg116
g4725
sg109
(lp4736
S':'
asbag102
(g123
g104
NtRp4737
(dp4738
g107
(dp4739
sg116
g4725
sg109
(lp4740
g102
(g103
g104
NtRp4741
(dp4742
g107
(dp4743
g115
I5
ssg116
g4737
sg109
(lp4744
g2377
asbasbasbag102
(g118
g104
NtRp4745
(dp4746
g107
(dp4747
sg116
g3238
sg109
(lp4748
g102
(g123
g104
NtRp4749
(dp4750
g107
(dp4751
g127
g128
ssg116
g4745
sg109
(lp4752
S'view'
p4753
asbag102
(g123
g104
NtRp4754
(dp4755
g107
(dp4756
g134
g135
ssg116
g4745
sg109
(lp4757
S':'
asbag102
(g123
g104
NtRp4758
(dp4759
g107
(dp4760
sg116
g4745
sg109
(lp4761
g102
(g103
g104
NtRp4762
(dp4763
g107
(dp4764
g115
I5
ssg116
g4758
sg109
(lp4765
S'default/fbuser.html'
p4766
asbasbasbasbasbsS'locals'
p4767
(dp4768
g59
S'<addinfourl at 140249592848752 whose fp = <socket._fileobject object>>'
p4769
sg6
S'400'
p4770
sg61
S'<httplib.HTTPMessage instance>'
p4771
sS'self'
p4772
S'<urllib2.HTTPDefaultErrorHandler instance>'
p4773
sS'req'
p4774
S'<urllib2.Request instance>'
p4775
sg55
S"'Bad Request'"
p4776
sssS'traceback'
p4777
S'Traceback (most recent call last):\n  File "/usr/lib/pymodules/python2.7/gluon/restricted.py", line 205, in restricted\n    exec ccode in environment\n  File "/home/pooja/web2py/applications/newsapp/controllers/default.py", line 101, in <module>\n  File "/usr/lib/pymodules/python2.7/gluon/globals.py", line 173, in <lambda>\n    self._caller = lambda f: f()\n  File "/home/pooja/web2py/applications/newsapp/controllers/default.py", line 78, in fbuser\n    details = urllib2.urlopen(url1)\n  File "/usr/lib/python2.7/urllib2.py", line 127, in urlopen\n    return _opener.open(url, data, timeout)\n  File "/usr/lib/python2.7/urllib2.py", line 410, in open\n    response = meth(req, response)\n  File "/usr/lib/python2.7/urllib2.py", line 523, in http_response\n    \'http\', request, response, code, msg, hdrs)\n  File "/usr/lib/python2.7/urllib2.py", line 448, in error\n    return self._call_chain(*args)\n  File "/usr/lib/python2.7/urllib2.py", line 382, in _call_chain\n    result = func(*args)\n  File "/usr/lib/python2.7/urllib2.py", line 531, in http_error_default\n    raise HTTPError(req.get_full_url(), code, msg, hdrs, fp)\nHTTPError: HTTP Error 400: Bad Request\n'
p4778
s.