(dp1
S'output'
p2
S'<class \'pysqlite2.dbapi2.OperationalError\'> near "IGNORE": syntax error'
p3
sS'layer'
p4
S'/home/pooja/web2py/applications/newsapp/controllers/default.py'
p5
sS'code'
p6
S'import urllib,urllib2\nfrom urlparse import *\nimport json\nimport sys\nimport os\nfrom oauth2 import *\nfrom gluon import *\ndef index():\n    return dict()\n\ndef tw_signin():\n    app = Consumer(key= "dJvGhNEaw6ivlQGals8g1mMu9", secret= "n5qBLoWVO77KHLfAUB1Z5wTYtO7ed62XmNbq52bmYjEFYdJNQi")\n    client = Client(app)\n    response, content = client.request(\'https://twitter.com/oauth/request_token\', "GET")\n    if response[\'status\'] != \'200\':\n        raise HTTP(response[\'status\']),str(content)\n    request_token = dict(parse_qsl(content))\n    session.request_token = request_token\n    redirect_location = "%s?oauth_token=%s" % (\'https://twitter.com/oauth/authenticate\', request_token[\'oauth_token\'])\n    redirect(redirect_location)\n    return\n\ndef permission():\n    if not(session.request_token is None):\n        consumer = Consumer(key= "dJvGhNEaw6ivlQGals8g1mMu9", secret= "n5qBLoWVO77KHLfAUB1Z5wTYtO7ed62XmNbq52bmYjEFYdJNQi")\n        token = None\n        try:\n            token = Token(session.request_token[\'oauth_token\'],session.request_token[\'oauth_token_secret\'])\n        except:\n            redirect(URL(r=request,c=\'default\', f=\'index\'))\n        token.set_verifier(request.vars[\'oauth_verifier\'])\n        client = Client(consumer, token)\n        response, content = client.request(\'https://twitter.com/oauth/access_token\', "POST")\n        if response[\'status\'] == \'401\':\n            BEAUTIFY("you have denied the request")\n            redirect(URL(r=request,c=\'default\', f=\'index\'))\n        if response[\'status\'] != \'200\':\n            return response[\'status\'],str(content)\n        access_token = dict(parse_qsl(content))\n        session.access_token = access_token\n        user_id = int(access_token[\'user_id\'])\n        name =(access_token[\'screen_name\'])\n        tw_status_query = """\n            INSERT IGNORE INTO  tw_details(screen_name,user_id,tw_token,tw_token_secret) VALUES (\'%s\',\'%s\',\'%s\',\'%s\')\n    ON DUPLICATE KEY UPDATE tw_token=\'%s\',tw_token_secret=\'%s\';"""%(name,user_id,session.access_token[\'oauth_token\'],session.access_token[\'oauth_token_secret\'],session.access_token[\'oauth_token\'],session.access_token[\'oauth_token_secret\'])\n    tw_status = db.executesql(tw_status_query)\n    return dict()\n\ndef get_extented_token():\n    token = request.vars.token\n    url1 = "https://graph.facebook.com/"\n    url1 += \'me?access_token=%s\'%(token)\n    details = urllib2.urlopen(url1)\n    dict_response = json.loads(details.read())\n    name = dict_response[\'name\']\n    email_id = dict_response[\'email\']\n    fb_id = dict_response[\'id\']\n    session.email_id = email_id\n    session.fb_id = fb_id\n    url = "https://graph.facebook.com/"\n    url += "oauth/access_token?client_id="+fbconfig.app_id+"&client_secret="+fbconfig.app_secret\n    url += "&grant_type=fb_exchange_token"\n    url += "&fb_exchange_token=%s"%(token)\n\n    data = urllib2.urlopen(url)\n\n    interm = data.read().split("=")\n    token = interm[1].split("&")\n    extended_token = token[0]\n    session.extended_token = extended_token\n    expires = interm[2]\n\ndef fbuser():\n    token = request.vars.token\n    url1 = "https://graph.facebook.com/"\n    url1 += \'me?access_token=%s\'%(token)\n    details = urllib2.urlopen(url1)\n    dict_response = json.loads(details.read())\n    name = dict_response[\'name\']\n    email_id = ""\n    try:\n        email_id = dict_response[\'email\']\n    except:\n        pass\n    fb_id = dict_response[\'id\']\n    url = "https://graph.facebook.com/"\n    url += "oauth/access_token?client_id="+fbconfig.app_id+"&client_secret="+fbconfig.app_secret\n    url += "&grant_type=fb_exchange_token"\n    url += "&fb_exchange_token=%s"%(token)\n\n    data = urllib2.urlopen(url)\n    interm = data.read().split("=")\n    token = interm[1].split("&")\n    extended_token = token[0]\n    session.extended_token = extended_token\n    expires = interm[2]\n    fb_status = db.executesql("""INSERT IGNORE INTO  fb_details(name,email_id,fb_id,access_token,expiry) VALUES (%s,%s,%s,%s,%s);""",(name,email_id,session.fb_id,extended_token,expires))\n    return dict()\n\nresponse._vars=response._caller(permission)\n'
p7
sS'snapshot'
p8
(dp9
S'exception'
p10
(dp11
S'__module__'
p12
S"'pysqlite2.dbapi2'"
p13
sS'__getslice__'
p14
S"<method-wrapper '__getslice__' of OperationalError object>"
p15
sS'__str__'
p16
S"<method-wrapper '__str__' of OperationalError object>"
p17
sS'__reduce__'
p18
S'<built-in method __reduce__ of OperationalError object>'
p19
sS'__dict__'
p20
S'{}'
p21
sS'__sizeof__'
p22
S'<built-in method __sizeof__ of OperationalError object>'
p23
sS'__weakref__'
p24
S'None'
p25
sS'__init__'
p26
S"<method-wrapper '__init__' of OperationalError object>"
p27
sS'__setattr__'
p28
S"<method-wrapper '__setattr__' of OperationalError object>"
p29
sS'__reduce_ex__'
p30
S'<built-in method __reduce_ex__ of OperationalError object>'
p31
sS'__new__'
p32
S'<built-in method __new__ of type object>'
p33
sS'__format__'
p34
S'<built-in method __format__ of OperationalError object>'
p35
sS'__class__'
p36
S"<class 'pysqlite2.dbapi2.OperationalError'>"
p37
sS'__doc__'
p38
S'None'
p39
sS'__getitem__'
p40
S"<method-wrapper '__getitem__' of OperationalError object>"
p41
sS'__setstate__'
p42
S'<built-in method __setstate__ of OperationalError object>'
p43
sS'__getattribute__'
p44
S"<method-wrapper '__getattribute__' of OperationalError object>"
p45
sS'args'
p46
S'(\'near "IGNORE": syntax error\',)'
p47
sS'__subclasshook__'
p48
S'<built-in method __subclasshook__ of type object>'
p49
sS'__unicode__'
p50
S'<built-in method __unicode__ of OperationalError object>'
p51
sS'__delattr__'
p52
S"<method-wrapper '__delattr__' of OperationalError object>"
p53
sS'__repr__'
p54
S"<method-wrapper '__repr__' of OperationalError object>"
p55
sS'__hash__'
p56
S"<method-wrapper '__hash__' of OperationalError object>"
p57
ssS'evalue'
p58
S'near "IGNORE": syntax error'
p59
sS'request'
p60
ccopy_reg
_reconstructor
p61
(cgluon.html
BEAUTIFY
p62
c__builtin__
object
p63
NtRp64
(dp65
S'attributes'
p66
(dp67
sS'components'
p68
(lp69
g61
(cgluon.html
TABLE
p70
g63
NtRp71
(dp72
g66
(dp73
S'level'
p74
I5
ssS'parent'
p75
Nsg68
(lp76
g61
(cgluon.html
TR
p77
g63
NtRp78
(dp79
g66
(dp80
sg75
g71
sg68
(lp81
g61
(cgluon.html
TD
p82
g63
NtRp83
(dp84
g66
(dp85
S'_style'
p86
S'font-weight:bold;vertical-align:top'
p87
ssg75
g78
sg68
(lp88
S'ajax'
p89
asbag61
(g82
g63
NtRp90
(dp91
g66
(dp92
S'_valign'
p93
S'top'
p94
ssg75
g78
sg68
(lp95
S':'
asbag61
(g82
g63
NtRp96
(dp97
g66
(dp98
sg75
g78
sg68
(lp99
g61
(g62
g63
NtRp100
(dp101
g66
(dp102
g74
I5
ssg75
g96
sg68
(lp103
S'False'
p104
asbasbasbag61
(g77
g63
NtRp105
(dp106
g66
(dp107
sg75
g71
sg68
(lp108
g61
(g82
g63
NtRp109
(dp110
g66
(dp111
g86
g87
ssg75
g105
sg68
(lp112
S'application'
p113
asbag61
(g82
g63
NtRp114
(dp115
g66
(dp116
g93
g94
ssg75
g105
sg68
(lp117
S':'
asbag61
(g82
g63
NtRp118
(dp119
g66
(dp120
sg75
g105
sg68
(lp121
g61
(g62
g63
NtRp122
(dp123
g66
(dp124
g74
I5
ssg75
g118
sg68
(lp125
S'newsapp'
p126
asbasbasbag61
(g77
g63
NtRp127
(dp128
g66
(dp129
sg75
g71
sg68
(lp130
g61
(g82
g63
NtRp131
(dp132
g66
(dp133
g86
g87
ssg75
g127
sg68
(lp134
g46
asbag61
(g82
g63
NtRp135
(dp136
g66
(dp137
g93
g94
ssg75
g127
sg68
(lp138
S':'
asbag61
(g82
g63
NtRp139
(dp140
g66
(dp141
sg75
g127
sg68
(lp142
g61
(g62
g63
NtRp143
(dp144
g66
(dp145
g74
I5
ssg75
g139
sg68
(lp146
g61
(g70
g63
NtRp147
(dp148
g66
(dp149
g74
I4
ssg75
Nsg68
(lp150
sbasbasbasbag61
(g77
g63
NtRp151
(dp152
g66
(dp153
sg75
g71
sg68
(lp154
g61
(g82
g63
NtRp155
(dp156
g66
(dp157
g86
g87
ssg75
g151
sg68
(lp158
S'body'
p159
asbag61
(g82
g63
NtRp160
(dp161
g66
(dp162
g93
g94
ssg75
g151
sg68
(lp163
S':'
asbag61
(g82
g63
NtRp164
(dp165
g66
(dp166
sg75
g151
sg68
(lp167
g61
(g62
g63
NtRp168
(dp169
g66
(dp170
g74
I5
ssg75
g164
sg68
(lp171
S'<cStringIO.StringO object at 0x7f76b8ce6110>'
p172
asbasbasbag61
(g77
g63
NtRp173
(dp174
g66
(dp175
sg75
g71
sg68
(lp176
g61
(g82
g63
NtRp177
(dp178
g66
(dp179
g86
g87
ssg75
g173
sg68
(lp180
S'client'
p181
asbag61
(g82
g63
NtRp182
(dp183
g66
(dp184
g93
g94
ssg75
g173
sg68
(lp185
S':'
asbag61
(g82
g63
NtRp186
(dp187
g66
(dp188
sg75
g173
sg68
(lp189
g61
(g62
g63
NtRp190
(dp191
g66
(dp192
g74
I5
ssg75
g186
sg68
(lp193
S'127.0.0.1'
p194
asbasbasbag61
(g77
g63
NtRp195
(dp196
g66
(dp197
sg75
g71
sg68
(lp198
g61
(g82
g63
NtRp199
(dp200
g66
(dp201
g86
g87
ssg75
g195
sg68
(lp202
S'controller'
p203
asbag61
(g82
g63
NtRp204
(dp205
g66
(dp206
g93
g94
ssg75
g195
sg68
(lp207
S':'
asbag61
(g82
g63
NtRp208
(dp209
g66
(dp210
sg75
g195
sg68
(lp211
g61
(g62
g63
NtRp212
(dp213
g66
(dp214
g74
I5
ssg75
g208
sg68
(lp215
S'default'
p216
asbasbasbag61
(g77
g63
NtRp217
(dp218
g66
(dp219
sg75
g71
sg68
(lp220
g61
(g82
g63
NtRp221
(dp222
g66
(dp223
g86
g87
ssg75
g217
sg68
(lp224
S'cookies'
p225
asbag61
(g82
g63
NtRp226
(dp227
g66
(dp228
g93
g94
ssg75
g217
sg68
(lp229
S':'
asbag61
(g82
g63
NtRp230
(dp231
g66
(dp232
sg75
g217
sg68
(lp233
g61
(g62
g63
NtRp234
(dp235
g66
(dp236
g74
I5
ssg75
g230
sg68
(lp237
g61
(g70
g63
NtRp238
(dp239
g66
(dp240
g74
I4
ssg75
Nsg68
(lp241
g61
(g77
g63
NtRp242
(dp243
g66
(dp244
sg75
g238
sg68
(lp245
g61
(g82
g63
NtRp246
(dp247
g66
(dp248
g86
g87
ssg75
g242
sg68
(lp249
S'session_id_admin'
p250
asbag61
(g82
g63
NtRp251
(dp252
g66
(dp253
g93
g94
ssg75
g242
sg68
(lp254
S':'
asbag61
(g82
g63
NtRp255
(dp256
g66
(dp257
sg75
g242
sg68
(lp258
g61
(g62
g63
NtRp259
(dp260
g66
(dp261
g74
I4
ssg75
g255
sg68
(lp262
g61
(g70
g63
NtRp263
(dp264
g66
(dp265
g74
I3
ssg75
Nsg68
(lp266
g61
(g77
g63
NtRp267
(dp268
g66
(dp269
sg75
g263
sg68
(lp270
g61
(g82
g63
NtRp271
(dp272
g66
(dp273
g86
g87
ssg75
g267
sg68
(lp274
S'comment'
p275
asbag61
(g82
g63
NtRp276
(dp277
g66
(dp278
g93
g94
ssg75
g267
sg68
(lp279
S':'
asbag61
(g82
g63
NtRp280
(dp281
g66
(dp282
sg75
g267
sg68
(lp283
g61
(g62
g63
NtRp284
(dp285
g66
(dp286
g74
I3
ssg75
g280
sg68
(lp287
S''
asbasbasbag61
(g77
g63
NtRp288
(dp289
g66
(dp290
sg75
g263
sg68
(lp291
g61
(g82
g63
NtRp292
(dp293
g66
(dp294
g86
g87
ssg75
g288
sg68
(lp295
S'domain'
p296
asbag61
(g82
g63
NtRp297
(dp298
g66
(dp299
g93
g94
ssg75
g288
sg68
(lp300
S':'
asbag61
(g82
g63
NtRp301
(dp302
g66
(dp303
sg75
g288
sg68
(lp304
g61
(g62
g63
NtRp305
(dp306
g66
(dp307
g74
I3
ssg75
g301
sg68
(lp308
S''
asbasbasbag61
(g77
g63
NtRp309
(dp310
g66
(dp311
sg75
g263
sg68
(lp312
g61
(g82
g63
NtRp313
(dp314
g66
(dp315
g86
g87
ssg75
g309
sg68
(lp316
S'expires'
p317
asbag61
(g82
g63
NtRp318
(dp319
g66
(dp320
g93
g94
ssg75
g309
sg68
(lp321
S':'
asbag61
(g82
g63
NtRp322
(dp323
g66
(dp324
sg75
g309
sg68
(lp325
g61
(g62
g63
NtRp326
(dp327
g66
(dp328
g74
I3
ssg75
g322
sg68
(lp329
S''
asbasbasbag61
(g77
g63
NtRp330
(dp331
g66
(dp332
sg75
g263
sg68
(lp333
g61
(g82
g63
NtRp334
(dp335
g66
(dp336
g86
g87
ssg75
g330
sg68
(lp337
S'httponly'
p338
asbag61
(g82
g63
NtRp339
(dp340
g66
(dp341
g93
g94
ssg75
g330
sg68
(lp342
S':'
asbag61
(g82
g63
NtRp343
(dp344
g66
(dp345
sg75
g330
sg68
(lp346
g61
(g62
g63
NtRp347
(dp348
g66
(dp349
g74
I3
ssg75
g343
sg68
(lp350
S''
asbasbasbag61
(g77
g63
NtRp351
(dp352
g66
(dp353
sg75
g263
sg68
(lp354
g61
(g82
g63
NtRp355
(dp356
g66
(dp357
g86
g87
ssg75
g351
sg68
(lp358
S'max-age'
p359
asbag61
(g82
g63
NtRp360
(dp361
g66
(dp362
g93
g94
ssg75
g351
sg68
(lp363
S':'
asbag61
(g82
g63
NtRp364
(dp365
g66
(dp366
sg75
g351
sg68
(lp367
g61
(g62
g63
NtRp368
(dp369
g66
(dp370
g74
I3
ssg75
g364
sg68
(lp371
S''
asbasbasbag61
(g77
g63
NtRp372
(dp373
g66
(dp374
sg75
g263
sg68
(lp375
g61
(g82
g63
NtRp376
(dp377
g66
(dp378
g86
g87
ssg75
g372
sg68
(lp379
S'path'
p380
asbag61
(g82
g63
NtRp381
(dp382
g66
(dp383
g93
g94
ssg75
g372
sg68
(lp384
S':'
asbag61
(g82
g63
NtRp385
(dp386
g66
(dp387
sg75
g372
sg68
(lp388
g61
(g62
g63
NtRp389
(dp390
g66
(dp391
g74
I3
ssg75
g385
sg68
(lp392
S''
asbasbasbag61
(g77
g63
NtRp393
(dp394
g66
(dp395
sg75
g263
sg68
(lp396
g61
(g82
g63
NtRp397
(dp398
g66
(dp399
g86
g87
ssg75
g393
sg68
(lp400
S'secure'
p401
asbag61
(g82
g63
NtRp402
(dp403
g66
(dp404
g93
g94
ssg75
g393
sg68
(lp405
S':'
asbag61
(g82
g63
NtRp406
(dp407
g66
(dp408
sg75
g393
sg68
(lp409
g61
(g62
g63
NtRp410
(dp411
g66
(dp412
g74
I3
ssg75
g406
sg68
(lp413
S''
asbasbasbag61
(g77
g63
NtRp414
(dp415
g66
(dp416
sg75
g263
sg68
(lp417
g61
(g82
g63
NtRp418
(dp419
g66
(dp420
g86
g87
ssg75
g414
sg68
(lp421
S'version'
p422
asbag61
(g82
g63
NtRp423
(dp424
g66
(dp425
g93
g94
ssg75
g414
sg68
(lp426
S':'
asbag61
(g82
g63
NtRp427
(dp428
g66
(dp429
sg75
g414
sg68
(lp430
g61
(g62
g63
NtRp431
(dp432
g66
(dp433
g74
I3
ssg75
g427
sg68
(lp434
S''
asbasbasbasbasbasbasbag61
(g77
g63
NtRp435
(dp436
g66
(dp437
sg75
g238
sg68
(lp438
g61
(g82
g63
NtRp439
(dp440
g66
(dp441
g86
g87
ssg75
g435
sg68
(lp442
S'session_id_newsapp'
p443
asbag61
(g82
g63
NtRp444
(dp445
g66
(dp446
g93
g94
ssg75
g435
sg68
(lp447
S':'
asbag61
(g82
g63
NtRp448
(dp449
g66
(dp450
sg75
g435
sg68
(lp451
g61
(g62
g63
NtRp452
(dp453
g66
(dp454
g74
I4
ssg75
g448
sg68
(lp455
g61
(g70
g63
NtRp456
(dp457
g66
(dp458
g74
I3
ssg75
Nsg68
(lp459
g61
(g77
g63
NtRp460
(dp461
g66
(dp462
sg75
g456
sg68
(lp463
g61
(g82
g63
NtRp464
(dp465
g66
(dp466
g86
g87
ssg75
g460
sg68
(lp467
g275
asbag61
(g82
g63
NtRp468
(dp469
g66
(dp470
g93
g94
ssg75
g460
sg68
(lp471
S':'
asbag61
(g82
g63
NtRp472
(dp473
g66
(dp474
sg75
g460
sg68
(lp475
g61
(g62
g63
NtRp476
(dp477
g66
(dp478
g74
I3
ssg75
g472
sg68
(lp479
S''
asbasbasbag61
(g77
g63
NtRp480
(dp481
g66
(dp482
sg75
g456
sg68
(lp483
g61
(g82
g63
NtRp484
(dp485
g66
(dp486
g86
g87
ssg75
g480
sg68
(lp487
g296
asbag61
(g82
g63
NtRp488
(dp489
g66
(dp490
g93
g94
ssg75
g480
sg68
(lp491
S':'
asbag61
(g82
g63
NtRp492
(dp493
g66
(dp494
sg75
g480
sg68
(lp495
g61
(g62
g63
NtRp496
(dp497
g66
(dp498
g74
I3
ssg75
g492
sg68
(lp499
S''
asbasbasbag61
(g77
g63
NtRp500
(dp501
g66
(dp502
sg75
g456
sg68
(lp503
g61
(g82
g63
NtRp504
(dp505
g66
(dp506
g86
g87
ssg75
g500
sg68
(lp507
g317
asbag61
(g82
g63
NtRp508
(dp509
g66
(dp510
g93
g94
ssg75
g500
sg68
(lp511
S':'
asbag61
(g82
g63
NtRp512
(dp513
g66
(dp514
sg75
g500
sg68
(lp515
g61
(g62
g63
NtRp516
(dp517
g66
(dp518
g74
I3
ssg75
g512
sg68
(lp519
S''
asbasbasbag61
(g77
g63
NtRp520
(dp521
g66
(dp522
sg75
g456
sg68
(lp523
g61
(g82
g63
NtRp524
(dp525
g66
(dp526
g86
g87
ssg75
g520
sg68
(lp527
g338
asbag61
(g82
g63
NtRp528
(dp529
g66
(dp530
g93
g94
ssg75
g520
sg68
(lp531
S':'
asbag61
(g82
g63
NtRp532
(dp533
g66
(dp534
sg75
g520
sg68
(lp535
g61
(g62
g63
NtRp536
(dp537
g66
(dp538
g74
I3
ssg75
g532
sg68
(lp539
S''
asbasbasbag61
(g77
g63
NtRp540
(dp541
g66
(dp542
sg75
g456
sg68
(lp543
g61
(g82
g63
NtRp544
(dp545
g66
(dp546
g86
g87
ssg75
g540
sg68
(lp547
g359
asbag61
(g82
g63
NtRp548
(dp549
g66
(dp550
g93
g94
ssg75
g540
sg68
(lp551
S':'
asbag61
(g82
g63
NtRp552
(dp553
g66
(dp554
sg75
g540
sg68
(lp555
g61
(g62
g63
NtRp556
(dp557
g66
(dp558
g74
I3
ssg75
g552
sg68
(lp559
S''
asbasbasbag61
(g77
g63
NtRp560
(dp561
g66
(dp562
sg75
g456
sg68
(lp563
g61
(g82
g63
NtRp564
(dp565
g66
(dp566
g86
g87
ssg75
g560
sg68
(lp567
g380
asbag61
(g82
g63
NtRp568
(dp569
g66
(dp570
g93
g94
ssg75
g560
sg68
(lp571
S':'
asbag61
(g82
g63
NtRp572
(dp573
g66
(dp574
sg75
g560
sg68
(lp575
g61
(g62
g63
NtRp576
(dp577
g66
(dp578
g74
I3
ssg75
g572
sg68
(lp579
S''
asbasbasbag61
(g77
g63
NtRp580
(dp581
g66
(dp582
sg75
g456
sg68
(lp583
g61
(g82
g63
NtRp584
(dp585
g66
(dp586
g86
g87
ssg75
g580
sg68
(lp587
g401
asbag61
(g82
g63
NtRp588
(dp589
g66
(dp590
g93
g94
ssg75
g580
sg68
(lp591
S':'
asbag61
(g82
g63
NtRp592
(dp593
g66
(dp594
sg75
g580
sg68
(lp595
g61
(g62
g63
NtRp596
(dp597
g66
(dp598
g74
I3
ssg75
g592
sg68
(lp599
S''
asbasbasbag61
(g77
g63
NtRp600
(dp601
g66
(dp602
sg75
g456
sg68
(lp603
g61
(g82
g63
NtRp604
(dp605
g66
(dp606
g86
g87
ssg75
g600
sg68
(lp607
g422
asbag61
(g82
g63
NtRp608
(dp609
g66
(dp610
g93
g94
ssg75
g600
sg68
(lp611
S':'
asbag61
(g82
g63
NtRp612
(dp613
g66
(dp614
sg75
g600
sg68
(lp615
g61
(g62
g63
NtRp616
(dp617
g66
(dp618
g74
I3
ssg75
g612
sg68
(lp619
S''
asbasbasbasbasbasbasbag61
(g77
g63
NtRp620
(dp621
g66
(dp622
sg75
g238
sg68
(lp623
g61
(g82
g63
NtRp624
(dp625
g66
(dp626
g86
g87
ssg75
g620
sg68
(lp627
S'session_id_welcome'
p628
asbag61
(g82
g63
NtRp629
(dp630
g66
(dp631
g93
g94
ssg75
g620
sg68
(lp632
S':'
asbag61
(g82
g63
NtRp633
(dp634
g66
(dp635
sg75
g620
sg68
(lp636
g61
(g62
g63
NtRp637
(dp638
g66
(dp639
g74
I4
ssg75
g633
sg68
(lp640
g61
(g70
g63
NtRp641
(dp642
g66
(dp643
g74
I3
ssg75
Nsg68
(lp644
g61
(g77
g63
NtRp645
(dp646
g66
(dp647
sg75
g641
sg68
(lp648
g61
(g82
g63
NtRp649
(dp650
g66
(dp651
g86
g87
ssg75
g645
sg68
(lp652
g275
asbag61
(g82
g63
NtRp653
(dp654
g66
(dp655
g93
g94
ssg75
g645
sg68
(lp656
S':'
asbag61
(g82
g63
NtRp657
(dp658
g66
(dp659
sg75
g645
sg68
(lp660
g61
(g62
g63
NtRp661
(dp662
g66
(dp663
g74
I3
ssg75
g657
sg68
(lp664
S''
asbasbasbag61
(g77
g63
NtRp665
(dp666
g66
(dp667
sg75
g641
sg68
(lp668
g61
(g82
g63
NtRp669
(dp670
g66
(dp671
g86
g87
ssg75
g665
sg68
(lp672
g296
asbag61
(g82
g63
NtRp673
(dp674
g66
(dp675
g93
g94
ssg75
g665
sg68
(lp676
S':'
asbag61
(g82
g63
NtRp677
(dp678
g66
(dp679
sg75
g665
sg68
(lp680
g61
(g62
g63
NtRp681
(dp682
g66
(dp683
g74
I3
ssg75
g677
sg68
(lp684
S''
asbasbasbag61
(g77
g63
NtRp685
(dp686
g66
(dp687
sg75
g641
sg68
(lp688
g61
(g82
g63
NtRp689
(dp690
g66
(dp691
g86
g87
ssg75
g685
sg68
(lp692
g317
asbag61
(g82
g63
NtRp693
(dp694
g66
(dp695
g93
g94
ssg75
g685
sg68
(lp696
S':'
asbag61
(g82
g63
NtRp697
(dp698
g66
(dp699
sg75
g685
sg68
(lp700
g61
(g62
g63
NtRp701
(dp702
g66
(dp703
g74
I3
ssg75
g697
sg68
(lp704
S''
asbasbasbag61
(g77
g63
NtRp705
(dp706
g66
(dp707
sg75
g641
sg68
(lp708
g61
(g82
g63
NtRp709
(dp710
g66
(dp711
g86
g87
ssg75
g705
sg68
(lp712
g338
asbag61
(g82
g63
NtRp713
(dp714
g66
(dp715
g93
g94
ssg75
g705
sg68
(lp716
S':'
asbag61
(g82
g63
NtRp717
(dp718
g66
(dp719
sg75
g705
sg68
(lp720
g61
(g62
g63
NtRp721
(dp722
g66
(dp723
g74
I3
ssg75
g717
sg68
(lp724
S''
asbasbasbag61
(g77
g63
NtRp725
(dp726
g66
(dp727
sg75
g641
sg68
(lp728
g61
(g82
g63
NtRp729
(dp730
g66
(dp731
g86
g87
ssg75
g725
sg68
(lp732
g359
asbag61
(g82
g63
NtRp733
(dp734
g66
(dp735
g93
g94
ssg75
g725
sg68
(lp736
S':'
asbag61
(g82
g63
NtRp737
(dp738
g66
(dp739
sg75
g725
sg68
(lp740
g61
(g62
g63
NtRp741
(dp742
g66
(dp743
g74
I3
ssg75
g737
sg68
(lp744
S''
asbasbasbag61
(g77
g63
NtRp745
(dp746
g66
(dp747
sg75
g641
sg68
(lp748
g61
(g82
g63
NtRp749
(dp750
g66
(dp751
g86
g87
ssg75
g745
sg68
(lp752
g380
asbag61
(g82
g63
NtRp753
(dp754
g66
(dp755
g93
g94
ssg75
g745
sg68
(lp756
S':'
asbag61
(g82
g63
NtRp757
(dp758
g66
(dp759
sg75
g745
sg68
(lp760
g61
(g62
g63
NtRp761
(dp762
g66
(dp763
g74
I3
ssg75
g757
sg68
(lp764
S''
asbasbasbag61
(g77
g63
NtRp765
(dp766
g66
(dp767
sg75
g641
sg68
(lp768
g61
(g82
g63
NtRp769
(dp770
g66
(dp771
g86
g87
ssg75
g765
sg68
(lp772
g401
asbag61
(g82
g63
NtRp773
(dp774
g66
(dp775
g93
g94
ssg75
g765
sg68
(lp776
S':'
asbag61
(g82
g63
NtRp777
(dp778
g66
(dp779
sg75
g765
sg68
(lp780
g61
(g62
g63
NtRp781
(dp782
g66
(dp783
g74
I3
ssg75
g777
sg68
(lp784
S''
asbasbasbag61
(g77
g63
NtRp785
(dp786
g66
(dp787
sg75
g641
sg68
(lp788
g61
(g82
g63
NtRp789
(dp790
g66
(dp791
g86
g87
ssg75
g785
sg68
(lp792
g422
asbag61
(g82
g63
NtRp793
(dp794
g66
(dp795
g93
g94
ssg75
g785
sg68
(lp796
S':'
asbag61
(g82
g63
NtRp797
(dp798
g66
(dp799
sg75
g785
sg68
(lp800
g61
(g62
g63
NtRp801
(dp802
g66
(dp803
g74
I3
ssg75
g797
sg68
(lp804
S''
asbasbasbasbasbasbasbasbasbasbasbag61
(g77
g63
NtRp805
(dp806
g66
(dp807
sg75
g71
sg68
(lp808
g61
(g82
g63
NtRp809
(dp810
g66
(dp811
g86
g87
ssg75
g805
sg68
(lp812
S'env'
p813
asbag61
(g82
g63
NtRp814
(dp815
g66
(dp816
g93
g94
ssg75
g805
sg68
(lp817
S':'
asbag61
(g82
g63
NtRp818
(dp819
g66
(dp820
sg75
g805
sg68
(lp821
g61
(g62
g63
NtRp822
(dp823
g66
(dp824
g74
I5
ssg75
g818
sg68
(lp825
g61
(g70
g63
NtRp826
(dp827
g66
(dp828
g74
I4
ssg75
Nsg68
(lp829
g61
(g77
g63
NtRp830
(dp831
g66
(dp832
sg75
g826
sg68
(lp833
g61
(g82
g63
NtRp834
(dp835
g66
(dp836
g86
g87
ssg75
g830
sg68
(lp837
S'app_folders'
p838
asbag61
(g82
g63
NtRp839
(dp840
g66
(dp841
g93
g94
ssg75
g830
sg68
(lp842
S':'
asbag61
(g82
g63
NtRp843
(dp844
g66
(dp845
sg75
g830
sg68
(lp846
g61
(g62
g63
NtRp847
(dp848
g66
(dp849
g74
I4
ssg75
g843
sg68
(lp850
S"set(['/home/pooja/web2py/applications/admin/', '/home/pooja/web2py/applications/newsapp/', '/home/pooja/web2py/applications/welcome/'])"
p851
asbasbasbag61
(g77
g63
NtRp852
(dp853
g66
(dp854
sg75
g826
sg68
(lp855
g61
(g82
g63
NtRp856
(dp857
g66
(dp858
g86
g87
ssg75
g852
sg68
(lp859
S'applications_parent'
p860
asbag61
(g82
g63
NtRp861
(dp862
g66
(dp863
g93
g94
ssg75
g852
sg68
(lp864
S':'
asbag61
(g82
g63
NtRp865
(dp866
g66
(dp867
sg75
g852
sg68
(lp868
g61
(g62
g63
NtRp869
(dp870
g66
(dp871
g74
I4
ssg75
g865
sg68
(lp872
S'/home/pooja/web2py'
p873
asbasbasbag61
(g77
g63
NtRp874
(dp875
g66
(dp876
sg75
g826
sg68
(lp877
g61
(g82
g63
NtRp878
(dp879
g66
(dp880
g86
g87
ssg75
g874
sg68
(lp881
S'cmd_args'
p882
asbag61
(g82
g63
NtRp883
(dp884
g66
(dp885
g93
g94
ssg75
g874
sg68
(lp886
S':'
asbag61
(g82
g63
NtRp887
(dp888
g66
(dp889
sg75
g874
sg68
(lp890
g61
(g62
g63
NtRp891
(dp892
g66
(dp893
g74
I4
ssg75
g887
sg68
(lp894
g61
(g70
g63
NtRp895
(dp896
g66
(dp897
g74
I3
ssg75
Nsg68
(lp898
sbasbasbasbag61
(g77
g63
NtRp899
(dp900
g66
(dp901
sg75
g826
sg68
(lp902
g61
(g82
g63
NtRp903
(dp904
g66
(dp905
g86
g87
ssg75
g899
sg68
(lp906
S'cmd_options'
p907
asbag61
(g82
g63
NtRp908
(dp909
g66
(dp910
g93
g94
ssg75
g899
sg68
(lp911
S':'
asbag61
(g82
g63
NtRp912
(dp913
g66
(dp914
sg75
g899
sg68
(lp915
g61
(g62
g63
NtRp916
(dp917
g66
(dp918
g74
I4
ssg75
g912
sg68
(lp919
S"<Values at 0x7f77019dce18: {'verbose': False, 'ip': '127.0.0.1', 'shutdown_timeout': 5, 'taskbar': False, 'nocron': False, 'pid_filename': 'httpserver.pid', 'maxthreads': None, 'softcron': False, 'server_name': 'pooja-HP-15-Notebook-PC', 'bpython': False, 'nogui': False, 'port': 8000, 'extcron': False, 'debuglevel': 30, 'test': None, 'folder': '/home/pooja/web2py', 'config': '', 'import_models': False, 'winservice': '', 'shell': None, 'run': '', 'log_filename': 'httpserver.log', 'args': [''], 'socket_timeout': 5, 'ssl_ca_certificate': None, 'scheduler': None, 'profiler_filename': None, 'ssl_private_key': '', 'password': '<ask>', 'request_queue_size': 5, 'ssl_certificate': '', 'cronjob': False, 'numthreads': None, 'quiet': False, 'interfaces': None, 'minthreads': None, 'timeout': 10, 'plain': False, 'nobanner': False}>"
p920
asbasbasbag61
(g77
g63
NtRp921
(dp922
g66
(dp923
sg75
g826
sg68
(lp924
g61
(g82
g63
NtRp925
(dp926
g66
(dp927
g86
g87
ssg75
g921
sg68
(lp928
S'db_sessions'
p929
asbag61
(g82
g63
NtRp930
(dp931
g66
(dp932
g93
g94
ssg75
g921
sg68
(lp933
S':'
asbag61
(g82
g63
NtRp934
(dp935
g66
(dp936
sg75
g921
sg68
(lp937
g61
(g62
g63
NtRp938
(dp939
g66
(dp940
g74
I4
ssg75
g934
sg68
(lp941
S'set([])'
p942
asbasbasbag61
(g77
g63
NtRp943
(dp944
g66
(dp945
sg75
g826
sg68
(lp946
g61
(g82
g63
NtRp947
(dp948
g66
(dp949
g86
g87
ssg75
g943
sg68
(lp950
S'debugging'
p951
asbag61
(g82
g63
NtRp952
(dp953
g66
(dp954
g93
g94
ssg75
g943
sg68
(lp955
S':'
asbag61
(g82
g63
NtRp956
(dp957
g66
(dp958
sg75
g943
sg68
(lp959
g61
(g62
g63
NtRp960
(dp961
g66
(dp962
g74
I4
ssg75
g956
sg68
(lp963
g104
asbasbasbag61
(g77
g63
NtRp964
(dp965
g66
(dp966
sg75
g826
sg68
(lp967
g61
(g82
g63
NtRp968
(dp969
g66
(dp970
g86
g87
ssg75
g964
sg68
(lp971
S'gluon_parent'
p972
asbag61
(g82
g63
NtRp973
(dp974
g66
(dp975
g93
g94
ssg75
g964
sg68
(lp976
S':'
asbag61
(g82
g63
NtRp977
(dp978
g66
(dp979
sg75
g964
sg68
(lp980
g61
(g62
g63
NtRp981
(dp982
g66
(dp983
g74
I4
ssg75
g977
sg68
(lp984
S'/usr/share/web2py'
p985
asbasbasbag61
(g77
g63
NtRp986
(dp987
g66
(dp988
sg75
g826
sg68
(lp989
g61
(g82
g63
NtRp990
(dp991
g66
(dp992
g86
g87
ssg75
g986
sg68
(lp993
S'http_accept'
p994
asbag61
(g82
g63
NtRp995
(dp996
g66
(dp997
g93
g94
ssg75
g986
sg68
(lp998
S':'
asbag61
(g82
g63
NtRp999
(dp1000
g66
(dp1001
sg75
g986
sg68
(lp1002
g61
(g62
g63
NtRp1003
(dp1004
g66
(dp1005
g74
I4
ssg75
g999
sg68
(lp1006
S'text/html,application/xhtml+xml,application/xml;q=0.9,image/webp,*/*;q=0.8'
p1007
asbasbasbag61
(g77
g63
NtRp1008
(dp1009
g66
(dp1010
sg75
g826
sg68
(lp1011
g61
(g82
g63
NtRp1012
(dp1013
g66
(dp1014
g86
g87
ssg75
g1008
sg68
(lp1015
S'http_accept_encoding'
p1016
asbag61
(g82
g63
NtRp1017
(dp1018
g66
(dp1019
g93
g94
ssg75
g1008
sg68
(lp1020
S':'
asbag61
(g82
g63
NtRp1021
(dp1022
g66
(dp1023
sg75
g1008
sg68
(lp1024
g61
(g62
g63
NtRp1025
(dp1026
g66
(dp1027
g74
I4
ssg75
g1021
sg68
(lp1028
S'gzip, deflate, sdch'
p1029
asbasbasbag61
(g77
g63
NtRp1030
(dp1031
g66
(dp1032
sg75
g826
sg68
(lp1033
g61
(g82
g63
NtRp1034
(dp1035
g66
(dp1036
g86
g87
ssg75
g1030
sg68
(lp1037
S'http_accept_language'
p1038
asbag61
(g82
g63
NtRp1039
(dp1040
g66
(dp1041
g93
g94
ssg75
g1030
sg68
(lp1042
S':'
asbag61
(g82
g63
NtRp1043
(dp1044
g66
(dp1045
sg75
g1030
sg68
(lp1046
g61
(g62
g63
NtRp1047
(dp1048
g66
(dp1049
g74
I4
ssg75
g1043
sg68
(lp1050
S'en-US,en;q=0.8'
p1051
asbasbasbag61
(g77
g63
NtRp1052
(dp1053
g66
(dp1054
sg75
g826
sg68
(lp1055
g61
(g82
g63
NtRp1056
(dp1057
g66
(dp1058
g86
g87
ssg75
g1052
sg68
(lp1059
S'http_connection'
p1060
asbag61
(g82
g63
NtRp1061
(dp1062
g66
(dp1063
g93
g94
ssg75
g1052
sg68
(lp1064
S':'
asbag61
(g82
g63
NtRp1065
(dp1066
g66
(dp1067
sg75
g1052
sg68
(lp1068
g61
(g62
g63
NtRp1069
(dp1070
g66
(dp1071
g74
I4
ssg75
g1065
sg68
(lp1072
S'keep-alive'
p1073
asbasbasbag61
(g77
g63
NtRp1074
(dp1075
g66
(dp1076
sg75
g826
sg68
(lp1077
g61
(g82
g63
NtRp1078
(dp1079
g66
(dp1080
g86
g87
ssg75
g1074
sg68
(lp1081
S'http_cookie'
p1082
asbag61
(g82
g63
NtRp1083
(dp1084
g66
(dp1085
g93
g94
ssg75
g1074
sg68
(lp1086
S':'
asbag61
(g82
g63
NtRp1087
(dp1088
g66
(dp1089
sg75
g1074
sg68
(lp1090
g61
(g62
g63
NtRp1091
(dp1092
g66
(dp1093
g74
I4
ssg75
g1087
sg68
(lp1094
S'session_id_welcome=127.0.0.1-39cd24b2-3651-4c99-9fb0-a3dd11b0684e; session_id_admin=127.0.0.1-c04865d9-d3b8-4c95-a4e7-88838830d340; session_id_newsapp=127.0.0.1-f56ccde5-80db-47cc-80e8-bbcc8cc05a92'
p1095
asbasbasbag61
(g77
g63
NtRp1096
(dp1097
g66
(dp1098
sg75
g826
sg68
(lp1099
g61
(g82
g63
NtRp1100
(dp1101
g66
(dp1102
g86
g87
ssg75
g1096
sg68
(lp1103
S'http_host'
p1104
asbag61
(g82
g63
NtRp1105
(dp1106
g66
(dp1107
g93
g94
ssg75
g1096
sg68
(lp1108
S':'
asbag61
(g82
g63
NtRp1109
(dp1110
g66
(dp1111
sg75
g1096
sg68
(lp1112
g61
(g62
g63
NtRp1113
(dp1114
g66
(dp1115
g74
I4
ssg75
g1109
sg68
(lp1116
S'127.0.0.1:8000'
p1117
asbasbasbag61
(g77
g63
NtRp1118
(dp1119
g66
(dp1120
sg75
g826
sg68
(lp1121
g61
(g82
g63
NtRp1122
(dp1123
g66
(dp1124
g86
g87
ssg75
g1118
sg68
(lp1125
S'http_user_agent'
p1126
asbag61
(g82
g63
NtRp1127
(dp1128
g66
(dp1129
g93
g94
ssg75
g1118
sg68
(lp1130
S':'
asbag61
(g82
g63
NtRp1131
(dp1132
g66
(dp1133
sg75
g1118
sg68
(lp1134
g61
(g62
g63
NtRp1135
(dp1136
g66
(dp1137
g74
I4
ssg75
g1131
sg68
(lp1138
S'Mozilla/5.0 (X11; Linux x86_64) AppleWebKit/537.36 (KHTML, like Gecko) Chrome/42.0.2311.135 Safari/537.36'
p1139
asbasbasbag61
(g77
g63
NtRp1140
(dp1141
g66
(dp1142
sg75
g826
sg68
(lp1143
g61
(g82
g63
NtRp1144
(dp1145
g66
(dp1146
g86
g87
ssg75
g1140
sg68
(lp1147
S'is_jython'
p1148
asbag61
(g82
g63
NtRp1149
(dp1150
g66
(dp1151
g93
g94
ssg75
g1140
sg68
(lp1152
S':'
asbag61
(g82
g63
NtRp1153
(dp1154
g66
(dp1155
sg75
g1140
sg68
(lp1156
g61
(g62
g63
NtRp1157
(dp1158
g66
(dp1159
g74
I4
ssg75
g1153
sg68
(lp1160
g104
asbasbasbag61
(g77
g63
NtRp1161
(dp1162
g66
(dp1163
sg75
g826
sg68
(lp1164
g61
(g82
g63
NtRp1165
(dp1166
g66
(dp1167
g86
g87
ssg75
g1161
sg68
(lp1168
S'is_pypy'
p1169
asbag61
(g82
g63
NtRp1170
(dp1171
g66
(dp1172
g93
g94
ssg75
g1161
sg68
(lp1173
S':'
asbag61
(g82
g63
NtRp1174
(dp1175
g66
(dp1176
sg75
g1161
sg68
(lp1177
g61
(g62
g63
NtRp1178
(dp1179
g66
(dp1180
g74
I4
ssg75
g1174
sg68
(lp1181
g104
asbasbasbag61
(g77
g63
NtRp1182
(dp1183
g66
(dp1184
sg75
g826
sg68
(lp1185
g61
(g82
g63
NtRp1186
(dp1187
g66
(dp1188
g86
g87
ssg75
g1182
sg68
(lp1189
S'path_info'
p1190
asbag61
(g82
g63
NtRp1191
(dp1192
g66
(dp1193
g93
g94
ssg75
g1182
sg68
(lp1194
S':'
asbag61
(g82
g63
NtRp1195
(dp1196
g66
(dp1197
sg75
g1182
sg68
(lp1198
g61
(g62
g63
NtRp1199
(dp1200
g66
(dp1201
g74
I4
ssg75
g1195
sg68
(lp1202
S'/newsapp/default/permission'
p1203
asbasbasbag61
(g77
g63
NtRp1204
(dp1205
g66
(dp1206
sg75
g826
sg68
(lp1207
g61
(g82
g63
NtRp1208
(dp1209
g66
(dp1210
g86
g87
ssg75
g1204
sg68
(lp1211
S'query_string'
p1212
asbag61
(g82
g63
NtRp1213
(dp1214
g66
(dp1215
g93
g94
ssg75
g1204
sg68
(lp1216
S':'
asbag61
(g82
g63
NtRp1217
(dp1218
g66
(dp1219
sg75
g1204
sg68
(lp1220
g61
(g62
g63
NtRp1221
(dp1222
g66
(dp1223
g74
I4
ssg75
g1217
sg68
(lp1224
S'oauth_token=STEK7eC4EtnG0BizWtI9WOHdBGEa36kc&oauth_verifier=ec9TDAcMtPwZMs593ANiud8Rje2lOJka'
p1225
asbasbasbag61
(g77
g63
NtRp1226
(dp1227
g66
(dp1228
sg75
g826
sg68
(lp1229
g61
(g82
g63
NtRp1230
(dp1231
g66
(dp1232
g86
g87
ssg75
g1226
sg68
(lp1233
S'remote_addr'
p1234
asbag61
(g82
g63
NtRp1235
(dp1236
g66
(dp1237
g93
g94
ssg75
g1226
sg68
(lp1238
S':'
asbag61
(g82
g63
NtRp1239
(dp1240
g66
(dp1241
sg75
g1226
sg68
(lp1242
g61
(g62
g63
NtRp1243
(dp1244
g66
(dp1245
g74
I4
ssg75
g1239
sg68
(lp1246
g194
asbasbasbag61
(g77
g63
NtRp1247
(dp1248
g66
(dp1249
sg75
g826
sg68
(lp1250
g61
(g82
g63
NtRp1251
(dp1252
g66
(dp1253
g86
g87
ssg75
g1247
sg68
(lp1254
S'remote_port'
p1255
asbag61
(g82
g63
NtRp1256
(dp1257
g66
(dp1258
g93
g94
ssg75
g1247
sg68
(lp1259
S':'
asbag61
(g82
g63
NtRp1260
(dp1261
g66
(dp1262
sg75
g1247
sg68
(lp1263
g61
(g62
g63
NtRp1264
(dp1265
g66
(dp1266
g74
I4
ssg75
g1260
sg68
(lp1267
S'49504'
p1268
asbasbasbag61
(g77
g63
NtRp1269
(dp1270
g66
(dp1271
sg75
g826
sg68
(lp1272
g61
(g82
g63
NtRp1273
(dp1274
g66
(dp1275
g86
g87
ssg75
g1269
sg68
(lp1276
S'request_method'
p1277
asbag61
(g82
g63
NtRp1278
(dp1279
g66
(dp1280
g93
g94
ssg75
g1269
sg68
(lp1281
S':'
asbag61
(g82
g63
NtRp1282
(dp1283
g66
(dp1284
sg75
g1269
sg68
(lp1285
g61
(g62
g63
NtRp1286
(dp1287
g66
(dp1288
g74
I4
ssg75
g1282
sg68
(lp1289
S'GET'
p1290
asbasbasbag61
(g77
g63
NtRp1291
(dp1292
g66
(dp1293
sg75
g826
sg68
(lp1294
g61
(g82
g63
NtRp1295
(dp1296
g66
(dp1297
g86
g87
ssg75
g1291
sg68
(lp1298
S'script_name'
p1299
asbag61
(g82
g63
NtRp1300
(dp1301
g66
(dp1302
g93
g94
ssg75
g1291
sg68
(lp1303
S':'
asbag61
(g82
g63
NtRp1304
(dp1305
g66
(dp1306
sg75
g1291
sg68
(lp1307
g61
(g62
g63
NtRp1308
(dp1309
g66
(dp1310
g74
I4
ssg75
g1304
sg68
(lp1311
S''
asbasbasbag61
(g77
g63
NtRp1312
(dp1313
g66
(dp1314
sg75
g826
sg68
(lp1315
g61
(g82
g63
NtRp1316
(dp1317
g66
(dp1318
g86
g87
ssg75
g1312
sg68
(lp1319
S'server_name'
p1320
asbag61
(g82
g63
NtRp1321
(dp1322
g66
(dp1323
g93
g94
ssg75
g1312
sg68
(lp1324
S':'
asbag61
(g82
g63
NtRp1325
(dp1326
g66
(dp1327
sg75
g1312
sg68
(lp1328
g61
(g62
g63
NtRp1329
(dp1330
g66
(dp1331
g74
I4
ssg75
g1325
sg68
(lp1332
S'pooja-HP-15-Notebook-PC'
p1333
asbasbasbag61
(g77
g63
NtRp1334
(dp1335
g66
(dp1336
sg75
g826
sg68
(lp1337
g61
(g82
g63
NtRp1338
(dp1339
g66
(dp1340
g86
g87
ssg75
g1334
sg68
(lp1341
S'server_port'
p1342
asbag61
(g82
g63
NtRp1343
(dp1344
g66
(dp1345
g93
g94
ssg75
g1334
sg68
(lp1346
S':'
asbag61
(g82
g63
NtRp1347
(dp1348
g66
(dp1349
sg75
g1334
sg68
(lp1350
g61
(g62
g63
NtRp1351
(dp1352
g66
(dp1353
g74
I4
ssg75
g1347
sg68
(lp1354
S'8000'
p1355
asbasbasbag61
(g77
g63
NtRp1356
(dp1357
g66
(dp1358
sg75
g826
sg68
(lp1359
g61
(g82
g63
NtRp1360
(dp1361
g66
(dp1362
g86
g87
ssg75
g1356
sg68
(lp1363
S'server_protocol'
p1364
asbag61
(g82
g63
NtRp1365
(dp1366
g66
(dp1367
g93
g94
ssg75
g1356
sg68
(lp1368
S':'
asbag61
(g82
g63
NtRp1369
(dp1370
g66
(dp1371
sg75
g1356
sg68
(lp1372
g61
(g62
g63
NtRp1373
(dp1374
g66
(dp1375
g74
I4
ssg75
g1369
sg68
(lp1376
S'HTTP/1.1'
p1377
asbasbasbag61
(g77
g63
NtRp1378
(dp1379
g66
(dp1380
sg75
g826
sg68
(lp1381
g61
(g82
g63
NtRp1382
(dp1383
g66
(dp1384
g86
g87
ssg75
g1378
sg68
(lp1385
S'server_software'
p1386
asbag61
(g82
g63
NtRp1387
(dp1388
g66
(dp1389
g93
g94
ssg75
g1378
sg68
(lp1390
S':'
asbag61
(g82
g63
NtRp1391
(dp1392
g66
(dp1393
sg75
g1378
sg68
(lp1394
g61
(g62
g63
NtRp1395
(dp1396
g66
(dp1397
g74
I4
ssg75
g1391
sg68
(lp1398
S'Rocket 1.2.4'
p1399
asbasbasbag61
(g77
g63
NtRp1400
(dp1401
g66
(dp1402
sg75
g826
sg68
(lp1403
g61
(g82
g63
NtRp1404
(dp1405
g66
(dp1406
g86
g87
ssg75
g1400
sg68
(lp1407
S'web2py_crontype'
p1408
asbag61
(g82
g63
NtRp1409
(dp1410
g66
(dp1411
g93
g94
ssg75
g1400
sg68
(lp1412
S':'
asbag61
(g82
g63
NtRp1413
(dp1414
g66
(dp1415
sg75
g1400
sg68
(lp1416
g61
(g62
g63
NtRp1417
(dp1418
g66
(dp1419
g74
I4
ssg75
g1413
sg68
(lp1420
S'hard'
p1421
asbasbasbag61
(g77
g63
NtRp1422
(dp1423
g66
(dp1424
sg75
g826
sg68
(lp1425
g61
(g82
g63
NtRp1426
(dp1427
g66
(dp1428
g86
g87
ssg75
g1422
sg68
(lp1429
S'web2py_path'
p1430
asbag61
(g82
g63
NtRp1431
(dp1432
g66
(dp1433
g93
g94
ssg75
g1422
sg68
(lp1434
S':'
asbag61
(g82
g63
NtRp1435
(dp1436
g66
(dp1437
sg75
g1422
sg68
(lp1438
g61
(g62
g63
NtRp1439
(dp1440
g66
(dp1441
g74
I4
ssg75
g1435
sg68
(lp1442
g873
asbasbasbag61
(g77
g63
NtRp1443
(dp1444
g66
(dp1445
sg75
g826
sg68
(lp1446
g61
(g82
g63
NtRp1447
(dp1448
g66
(dp1449
g86
g87
ssg75
g1443
sg68
(lp1450
S'web2py_version'
p1451
asbag61
(g82
g63
NtRp1452
(dp1453
g66
(dp1454
g93
g94
ssg75
g1443
sg68
(lp1455
S':'
asbag61
(g82
g63
NtRp1456
(dp1457
g66
(dp1458
sg75
g1443
sg68
(lp1459
g61
(g62
g63
NtRp1460
(dp1461
g66
(dp1462
g74
I4
ssg75
g1456
sg68
(lp1463
g61
(g70
g63
NtRp1464
(dp1465
g66
(dp1466
g74
I3
ssg75
Nsg68
(lp1467
g61
(g77
g63
NtRp1468
(dp1469
g66
(dp1470
sg75
g1464
sg68
(lp1471
g61
(g82
g63
NtRp1472
(dp1473
g66
(dp1474
sg75
g1468
sg68
(lp1475
g61
(g62
g63
NtRp1476
(dp1477
g66
(dp1478
g74
I3
ssg75
g1472
sg68
(lp1479
S'1'
asbasbasbag61
(g77
g63
NtRp1480
(dp1481
g66
(dp1482
sg75
g1464
sg68
(lp1483
g61
(g82
g63
NtRp1484
(dp1485
g66
(dp1486
sg75
g1480
sg68
(lp1487
g61
(g62
g63
NtRp1488
(dp1489
g66
(dp1490
g74
I3
ssg75
g1484
sg68
(lp1491
S'99'
p1492
asbasbasbag61
(g77
g63
NtRp1493
(dp1494
g66
(dp1495
sg75
g1464
sg68
(lp1496
g61
(g82
g63
NtRp1497
(dp1498
g66
(dp1499
sg75
g1493
sg68
(lp1500
g61
(g62
g63
NtRp1501
(dp1502
g66
(dp1503
g74
I3
ssg75
g1497
sg68
(lp1504
S'7'
asbasbasbag61
(g77
g63
NtRp1505
(dp1506
g66
(dp1507
sg75
g1464
sg68
(lp1508
g61
(g82
g63
NtRp1509
(dp1510
g66
(dp1511
sg75
g1505
sg68
(lp1512
g61
(g62
g63
NtRp1513
(dp1514
g66
(dp1515
g74
I3
ssg75
g1509
sg68
(lp1516
S'datetime.datetime(2012, 3, 4, 22, 12, 8)'
p1517
asbasbasbag61
(g77
g63
NtRp1518
(dp1519
g66
(dp1520
sg75
g1464
sg68
(lp1521
g61
(g82
g63
NtRp1522
(dp1523
g66
(dp1524
sg75
g1518
sg68
(lp1525
g61
(g62
g63
NtRp1526
(dp1527
g66
(dp1528
g74
I3
ssg75
g1522
sg68
(lp1529
S'stable'
p1530
asbasbasbasbasbasbasbag61
(g77
g63
NtRp1531
(dp1532
g66
(dp1533
sg75
g826
sg68
(lp1534
g61
(g82
g63
NtRp1535
(dp1536
g66
(dp1537
g86
g87
ssg75
g1531
sg68
(lp1538
S'wsgi_errors'
p1539
asbag61
(g82
g63
NtRp1540
(dp1541
g66
(dp1542
g93
g94
ssg75
g1531
sg68
(lp1543
S':'
asbag61
(g82
g63
NtRp1544
(dp1545
g66
(dp1546
sg75
g1531
sg68
(lp1547
g61
(g62
g63
NtRp1548
(dp1549
g66
(dp1550
g74
I4
ssg75
g1544
sg68
(lp1551
S"<open file '<stderr>', mode 'w' at 0x7f77071f91e0>"
p1552
asbasbasbag61
(g77
g63
NtRp1553
(dp1554
g66
(dp1555
sg75
g826
sg68
(lp1556
g61
(g82
g63
NtRp1557
(dp1558
g66
(dp1559
g86
g87
ssg75
g1553
sg68
(lp1560
S'wsgi_file_wrapper'
p1561
asbag61
(g82
g63
NtRp1562
(dp1563
g66
(dp1564
g93
g94
ssg75
g1553
sg68
(lp1565
S':'
asbag61
(g82
g63
NtRp1566
(dp1567
g66
(dp1568
sg75
g1553
sg68
(lp1569
g61
(g62
g63
NtRp1570
(dp1571
g66
(dp1572
g74
I4
ssg75
g1566
sg68
(lp1573
S'<class wsgiref.util.FileWrapper at 0x7f7703156e88>'
p1574
asbasbasbag61
(g77
g63
NtRp1575
(dp1576
g66
(dp1577
sg75
g826
sg68
(lp1578
g61
(g82
g63
NtRp1579
(dp1580
g66
(dp1581
g86
g87
ssg75
g1575
sg68
(lp1582
S'wsgi_input'
p1583
asbag61
(g82
g63
NtRp1584
(dp1585
g66
(dp1586
g93
g94
ssg75
g1575
sg68
(lp1587
S':'
asbag61
(g82
g63
NtRp1588
(dp1589
g66
(dp1590
sg75
g1575
sg68
(lp1591
g61
(g62
g63
NtRp1592
(dp1593
g66
(dp1594
g74
I4
ssg75
g1588
sg68
(lp1595
S'<socket._fileobject object at 0x7f76b874f3d0>'
p1596
asbasbasbag61
(g77
g63
NtRp1597
(dp1598
g66
(dp1599
sg75
g826
sg68
(lp1600
g61
(g82
g63
NtRp1601
(dp1602
g66
(dp1603
g86
g87
ssg75
g1597
sg68
(lp1604
S'wsgi_multiprocess'
p1605
asbag61
(g82
g63
NtRp1606
(dp1607
g66
(dp1608
g93
g94
ssg75
g1597
sg68
(lp1609
S':'
asbag61
(g82
g63
NtRp1610
(dp1611
g66
(dp1612
sg75
g1597
sg68
(lp1613
g61
(g62
g63
NtRp1614
(dp1615
g66
(dp1616
g74
I4
ssg75
g1610
sg68
(lp1617
g104
asbasbasbag61
(g77
g63
NtRp1618
(dp1619
g66
(dp1620
sg75
g826
sg68
(lp1621
g61
(g82
g63
NtRp1622
(dp1623
g66
(dp1624
g86
g87
ssg75
g1618
sg68
(lp1625
S'wsgi_multithread'
p1626
asbag61
(g82
g63
NtRp1627
(dp1628
g66
(dp1629
g93
g94
ssg75
g1618
sg68
(lp1630
S':'
asbag61
(g82
g63
NtRp1631
(dp1632
g66
(dp1633
sg75
g1618
sg68
(lp1634
g61
(g62
g63
NtRp1635
(dp1636
g66
(dp1637
g74
I4
ssg75
g1631
sg68
(lp1638
S'True'
p1639
asbasbasbag61
(g77
g63
NtRp1640
(dp1641
g66
(dp1642
sg75
g826
sg68
(lp1643
g61
(g82
g63
NtRp1644
(dp1645
g66
(dp1646
g86
g87
ssg75
g1640
sg68
(lp1647
S'wsgi_run_once'
p1648
asbag61
(g82
g63
NtRp1649
(dp1650
g66
(dp1651
g93
g94
ssg75
g1640
sg68
(lp1652
S':'
asbag61
(g82
g63
NtRp1653
(dp1654
g66
(dp1655
sg75
g1640
sg68
(lp1656
g61
(g62
g63
NtRp1657
(dp1658
g66
(dp1659
g74
I4
ssg75
g1653
sg68
(lp1660
g104
asbasbasbag61
(g77
g63
NtRp1661
(dp1662
g66
(dp1663
sg75
g826
sg68
(lp1664
g61
(g82
g63
NtRp1665
(dp1666
g66
(dp1667
g86
g87
ssg75
g1661
sg68
(lp1668
S'wsgi_url_scheme'
p1669
asbag61
(g82
g63
NtRp1670
(dp1671
g66
(dp1672
g93
g94
ssg75
g1661
sg68
(lp1673
S':'
asbag61
(g82
g63
NtRp1674
(dp1675
g66
(dp1676
sg75
g1661
sg68
(lp1677
g61
(g62
g63
NtRp1678
(dp1679
g66
(dp1680
g74
I4
ssg75
g1674
sg68
(lp1681
S'http'
p1682
asbasbasbag61
(g77
g63
NtRp1683
(dp1684
g66
(dp1685
sg75
g826
sg68
(lp1686
g61
(g82
g63
NtRp1687
(dp1688
g66
(dp1689
g86
g87
ssg75
g1683
sg68
(lp1690
S'wsgi_version'
p1691
asbag61
(g82
g63
NtRp1692
(dp1693
g66
(dp1694
g93
g94
ssg75
g1683
sg68
(lp1695
S':'
asbag61
(g82
g63
NtRp1696
(dp1697
g66
(dp1698
sg75
g1683
sg68
(lp1699
g61
(g62
g63
NtRp1700
(dp1701
g66
(dp1702
g74
I4
ssg75
g1696
sg68
(lp1703
g61
(g70
g63
NtRp1704
(dp1705
g66
(dp1706
g74
I3
ssg75
Nsg68
(lp1707
g61
(g77
g63
NtRp1708
(dp1709
g66
(dp1710
sg75
g1704
sg68
(lp1711
g61
(g82
g63
NtRp1712
(dp1713
g66
(dp1714
sg75
g1708
sg68
(lp1715
g61
(g62
g63
NtRp1716
(dp1717
g66
(dp1718
g74
I3
ssg75
g1712
sg68
(lp1719
S'1'
asbasbasbag61
(g77
g63
NtRp1720
(dp1721
g66
(dp1722
sg75
g1704
sg68
(lp1723
g61
(g82
g63
NtRp1724
(dp1725
g66
(dp1726
sg75
g1720
sg68
(lp1727
g61
(g62
g63
NtRp1728
(dp1729
g66
(dp1730
g74
I3
ssg75
g1724
sg68
(lp1731
S'0'
asbasbasbasbasbasbasbasbasbasbasbag61
(g77
g63
NtRp1732
(dp1733
g66
(dp1734
sg75
g71
sg68
(lp1735
g61
(g82
g63
NtRp1736
(dp1737
g66
(dp1738
g86
g87
ssg75
g1732
sg68
(lp1739
S'extension'
p1740
asbag61
(g82
g63
NtRp1741
(dp1742
g66
(dp1743
g93
g94
ssg75
g1732
sg68
(lp1744
S':'
asbag61
(g82
g63
NtRp1745
(dp1746
g66
(dp1747
sg75
g1732
sg68
(lp1748
g61
(g62
g63
NtRp1749
(dp1750
g66
(dp1751
g74
I5
ssg75
g1745
sg68
(lp1752
S'html'
p1753
asbasbasbag61
(g77
g63
NtRp1754
(dp1755
g66
(dp1756
sg75
g71
sg68
(lp1757
g61
(g82
g63
NtRp1758
(dp1759
g66
(dp1760
g86
g87
ssg75
g1754
sg68
(lp1761
S'folder'
p1762
asbag61
(g82
g63
NtRp1763
(dp1764
g66
(dp1765
g93
g94
ssg75
g1754
sg68
(lp1766
S':'
asbag61
(g82
g63
NtRp1767
(dp1768
g66
(dp1769
sg75
g1754
sg68
(lp1770
g61
(g62
g63
NtRp1771
(dp1772
g66
(dp1773
g74
I5
ssg75
g1767
sg68
(lp1774
S'/home/pooja/web2py/applications/newsapp/'
p1775
asbasbasbag61
(g77
g63
NtRp1776
(dp1777
g66
(dp1778
sg75
g71
sg68
(lp1779
g61
(g82
g63
NtRp1780
(dp1781
g66
(dp1782
g86
g87
ssg75
g1776
sg68
(lp1783
S'function'
p1784
asbag61
(g82
g63
NtRp1785
(dp1786
g66
(dp1787
g93
g94
ssg75
g1776
sg68
(lp1788
S':'
asbag61
(g82
g63
NtRp1789
(dp1790
g66
(dp1791
sg75
g1776
sg68
(lp1792
g61
(g62
g63
NtRp1793
(dp1794
g66
(dp1795
g74
I5
ssg75
g1789
sg68
(lp1796
S'permission'
p1797
asbasbasbag61
(g77
g63
NtRp1798
(dp1799
g66
(dp1800
sg75
g71
sg68
(lp1801
g61
(g82
g63
NtRp1802
(dp1803
g66
(dp1804
g86
g87
ssg75
g1798
sg68
(lp1805
S'get_vars'
p1806
asbag61
(g82
g63
NtRp1807
(dp1808
g66
(dp1809
g93
g94
ssg75
g1798
sg68
(lp1810
S':'
asbag61
(g82
g63
NtRp1811
(dp1812
g66
(dp1813
sg75
g1798
sg68
(lp1814
g61
(g62
g63
NtRp1815
(dp1816
g66
(dp1817
g74
I5
ssg75
g1811
sg68
(lp1818
g61
(g70
g63
NtRp1819
(dp1820
g66
(dp1821
g74
I4
ssg75
Nsg68
(lp1822
g61
(g77
g63
NtRp1823
(dp1824
g66
(dp1825
sg75
g1819
sg68
(lp1826
g61
(g82
g63
NtRp1827
(dp1828
g66
(dp1829
g86
g87
ssg75
g1823
sg68
(lp1830
S'oauth_token'
p1831
asbag61
(g82
g63
NtRp1832
(dp1833
g66
(dp1834
g93
g94
ssg75
g1823
sg68
(lp1835
S':'
asbag61
(g82
g63
NtRp1836
(dp1837
g66
(dp1838
sg75
g1823
sg68
(lp1839
g61
(g62
g63
NtRp1840
(dp1841
g66
(dp1842
g74
I4
ssg75
g1836
sg68
(lp1843
S'STEK7eC4EtnG0BizWtI9WOHdBGEa36kc'
p1844
asbasbasbag61
(g77
g63
NtRp1845
(dp1846
g66
(dp1847
sg75
g1819
sg68
(lp1848
g61
(g82
g63
NtRp1849
(dp1850
g66
(dp1851
g86
g87
ssg75
g1845
sg68
(lp1852
S'oauth_verifier'
p1853
asbag61
(g82
g63
NtRp1854
(dp1855
g66
(dp1856
g93
g94
ssg75
g1845
sg68
(lp1857
S':'
asbag61
(g82
g63
NtRp1858
(dp1859
g66
(dp1860
sg75
g1845
sg68
(lp1861
g61
(g62
g63
NtRp1862
(dp1863
g66
(dp1864
g74
I4
ssg75
g1858
sg68
(lp1865
S'ec9TDAcMtPwZMs593ANiud8Rje2lOJka'
p1866
asbasbasbasbasbasbasbag61
(g77
g63
NtRp1867
(dp1868
g66
(dp1869
sg75
g71
sg68
(lp1870
g61
(g82
g63
NtRp1871
(dp1872
g66
(dp1873
g86
g87
ssg75
g1867
sg68
(lp1874
S'global_settings'
p1875
asbag61
(g82
g63
NtRp1876
(dp1877
g66
(dp1878
g93
g94
ssg75
g1867
sg68
(lp1879
S':'
asbag61
(g82
g63
NtRp1880
(dp1881
g66
(dp1882
sg75
g1867
sg68
(lp1883
g61
(g62
g63
NtRp1884
(dp1885
g66
(dp1886
g74
I5
ssg75
g1880
sg68
(lp1887
g61
(g70
g63
NtRp1888
(dp1889
g66
(dp1890
g74
I4
ssg75
Nsg68
(lp1891
g61
(g77
g63
NtRp1892
(dp1893
g66
(dp1894
sg75
g1888
sg68
(lp1895
g61
(g82
g63
NtRp1896
(dp1897
g66
(dp1898
g86
g87
ssg75
g1892
sg68
(lp1899
g838
asbag61
(g82
g63
NtRp1900
(dp1901
g66
(dp1902
g93
g94
ssg75
g1892
sg68
(lp1903
S':'
asbag61
(g82
g63
NtRp1904
(dp1905
g66
(dp1906
sg75
g1892
sg68
(lp1907
g61
(g62
g63
NtRp1908
(dp1909
g66
(dp1910
g74
I4
ssg75
g1904
sg68
(lp1911
S"set(['/home/pooja/web2py/applications/admin/', '/home/pooja/web2py/applications/newsapp/', '/home/pooja/web2py/applications/welcome/'])"
p1912
asbasbasbag61
(g77
g63
NtRp1913
(dp1914
g66
(dp1915
sg75
g1888
sg68
(lp1916
g61
(g82
g63
NtRp1917
(dp1918
g66
(dp1919
g86
g87
ssg75
g1913
sg68
(lp1920
g860
asbag61
(g82
g63
NtRp1921
(dp1922
g66
(dp1923
g93
g94
ssg75
g1913
sg68
(lp1924
S':'
asbag61
(g82
g63
NtRp1925
(dp1926
g66
(dp1927
sg75
g1913
sg68
(lp1928
g61
(g62
g63
NtRp1929
(dp1930
g66
(dp1931
g74
I4
ssg75
g1925
sg68
(lp1932
g873
asbasbasbag61
(g77
g63
NtRp1933
(dp1934
g66
(dp1935
sg75
g1888
sg68
(lp1936
g61
(g82
g63
NtRp1937
(dp1938
g66
(dp1939
g86
g87
ssg75
g1933
sg68
(lp1940
g882
asbag61
(g82
g63
NtRp1941
(dp1942
g66
(dp1943
g93
g94
ssg75
g1933
sg68
(lp1944
S':'
asbag61
(g82
g63
NtRp1945
(dp1946
g66
(dp1947
sg75
g1933
sg68
(lp1948
g61
(g62
g63
NtRp1949
(dp1950
g66
(dp1951
g74
I4
ssg75
g1945
sg68
(lp1952
g61
(g70
g63
NtRp1953
(dp1954
g66
(dp1955
g74
I3
ssg75
Nsg68
(lp1956
sbasbasbasbag61
(g77
g63
NtRp1957
(dp1958
g66
(dp1959
sg75
g1888
sg68
(lp1960
g61
(g82
g63
NtRp1961
(dp1962
g66
(dp1963
g86
g87
ssg75
g1957
sg68
(lp1964
g907
asbag61
(g82
g63
NtRp1965
(dp1966
g66
(dp1967
g93
g94
ssg75
g1957
sg68
(lp1968
S':'
asbag61
(g82
g63
NtRp1969
(dp1970
g66
(dp1971
sg75
g1957
sg68
(lp1972
g61
(g62
g63
NtRp1973
(dp1974
g66
(dp1975
g74
I4
ssg75
g1969
sg68
(lp1976
S"<Values at 0x7f77019dce18: {'verbose': False, 'ip': '127.0.0.1', 'shutdown_timeout': 5, 'taskbar': False, 'nocron': False, 'pid_filename': 'httpserver.pid', 'maxthreads': None, 'softcron': False, 'server_name': 'pooja-HP-15-Notebook-PC', 'bpython': False, 'nogui': False, 'port': 8000, 'extcron': False, 'debuglevel': 30, 'test': None, 'folder': '/home/pooja/web2py', 'config': '', 'import_models': False, 'winservice': '', 'shell': None, 'run': '', 'log_filename': 'httpserver.log', 'args': [''], 'socket_timeout': 5, 'ssl_ca_certificate': None, 'scheduler': None, 'profiler_filename': None, 'ssl_private_key': '', 'password': '<ask>', 'request_queue_size': 5, 'ssl_certificate': '', 'cronjob': False, 'numthreads': None, 'quiet': False, 'interfaces': None, 'minthreads': None, 'timeout': 10, 'plain': False, 'nobanner': False}>"
p1977
asbasbasbag61
(g77
g63
NtRp1978
(dp1979
g66
(dp1980
sg75
g1888
sg68
(lp1981
g61
(g82
g63
NtRp1982
(dp1983
g66
(dp1984
g86
g87
ssg75
g1978
sg68
(lp1985
g929
asbag61
(g82
g63
NtRp1986
(dp1987
g66
(dp1988
g93
g94
ssg75
g1978
sg68
(lp1989
S':'
asbag61
(g82
g63
NtRp1990
(dp1991
g66
(dp1992
sg75
g1978
sg68
(lp1993
g61
(g62
g63
NtRp1994
(dp1995
g66
(dp1996
g74
I4
ssg75
g1990
sg68
(lp1997
S'set([])'
p1998
asbasbasbag61
(g77
g63
NtRp1999
(dp2000
g66
(dp2001
sg75
g1888
sg68
(lp2002
g61
(g82
g63
NtRp2003
(dp2004
g66
(dp2005
g86
g87
ssg75
g1999
sg68
(lp2006
g951
asbag61
(g82
g63
NtRp2007
(dp2008
g66
(dp2009
g93
g94
ssg75
g1999
sg68
(lp2010
S':'
asbag61
(g82
g63
NtRp2011
(dp2012
g66
(dp2013
sg75
g1999
sg68
(lp2014
g61
(g62
g63
NtRp2015
(dp2016
g66
(dp2017
g74
I4
ssg75
g2011
sg68
(lp2018
g104
asbasbasbag61
(g77
g63
NtRp2019
(dp2020
g66
(dp2021
sg75
g1888
sg68
(lp2022
g61
(g82
g63
NtRp2023
(dp2024
g66
(dp2025
g86
g87
ssg75
g2019
sg68
(lp2026
g972
asbag61
(g82
g63
NtRp2027
(dp2028
g66
(dp2029
g93
g94
ssg75
g2019
sg68
(lp2030
S':'
asbag61
(g82
g63
NtRp2031
(dp2032
g66
(dp2033
sg75
g2019
sg68
(lp2034
g61
(g62
g63
NtRp2035
(dp2036
g66
(dp2037
g74
I4
ssg75
g2031
sg68
(lp2038
g985
asbasbasbag61
(g77
g63
NtRp2039
(dp2040
g66
(dp2041
sg75
g1888
sg68
(lp2042
g61
(g82
g63
NtRp2043
(dp2044
g66
(dp2045
g86
g87
ssg75
g2039
sg68
(lp2046
g1148
asbag61
(g82
g63
NtRp2047
(dp2048
g66
(dp2049
g93
g94
ssg75
g2039
sg68
(lp2050
S':'
asbag61
(g82
g63
NtRp2051
(dp2052
g66
(dp2053
sg75
g2039
sg68
(lp2054
g61
(g62
g63
NtRp2055
(dp2056
g66
(dp2057
g74
I4
ssg75
g2051
sg68
(lp2058
g104
asbasbasbag61
(g77
g63
NtRp2059
(dp2060
g66
(dp2061
sg75
g1888
sg68
(lp2062
g61
(g82
g63
NtRp2063
(dp2064
g66
(dp2065
g86
g87
ssg75
g2059
sg68
(lp2066
g1169
asbag61
(g82
g63
NtRp2067
(dp2068
g66
(dp2069
g93
g94
ssg75
g2059
sg68
(lp2070
S':'
asbag61
(g82
g63
NtRp2071
(dp2072
g66
(dp2073
sg75
g2059
sg68
(lp2074
g61
(g62
g63
NtRp2075
(dp2076
g66
(dp2077
g74
I4
ssg75
g2071
sg68
(lp2078
g104
asbasbasbag61
(g77
g63
NtRp2079
(dp2080
g66
(dp2081
sg75
g1888
sg68
(lp2082
g61
(g82
g63
NtRp2083
(dp2084
g66
(dp2085
g86
g87
ssg75
g2079
sg68
(lp2086
g1408
asbag61
(g82
g63
NtRp2087
(dp2088
g66
(dp2089
g93
g94
ssg75
g2079
sg68
(lp2090
S':'
asbag61
(g82
g63
NtRp2091
(dp2092
g66
(dp2093
sg75
g2079
sg68
(lp2094
g61
(g62
g63
NtRp2095
(dp2096
g66
(dp2097
g74
I4
ssg75
g2091
sg68
(lp2098
g1421
asbasbasbag61
(g77
g63
NtRp2099
(dp2100
g66
(dp2101
sg75
g1888
sg68
(lp2102
g61
(g82
g63
NtRp2103
(dp2104
g66
(dp2105
g86
g87
ssg75
g2099
sg68
(lp2106
g1451
asbag61
(g82
g63
NtRp2107
(dp2108
g66
(dp2109
g93
g94
ssg75
g2099
sg68
(lp2110
S':'
asbag61
(g82
g63
NtRp2111
(dp2112
g66
(dp2113
sg75
g2099
sg68
(lp2114
g61
(g62
g63
NtRp2115
(dp2116
g66
(dp2117
g74
I4
ssg75
g2111
sg68
(lp2118
g61
(g70
g63
NtRp2119
(dp2120
g66
(dp2121
g74
I3
ssg75
Nsg68
(lp2122
g61
(g77
g63
NtRp2123
(dp2124
g66
(dp2125
sg75
g2119
sg68
(lp2126
g61
(g82
g63
NtRp2127
(dp2128
g66
(dp2129
sg75
g2123
sg68
(lp2130
g61
(g62
g63
NtRp2131
(dp2132
g66
(dp2133
g74
I3
ssg75
g2127
sg68
(lp2134
S'1'
asbasbasbag61
(g77
g63
NtRp2135
(dp2136
g66
(dp2137
sg75
g2119
sg68
(lp2138
g61
(g82
g63
NtRp2139
(dp2140
g66
(dp2141
sg75
g2135
sg68
(lp2142
g61
(g62
g63
NtRp2143
(dp2144
g66
(dp2145
g74
I3
ssg75
g2139
sg68
(lp2146
S'99'
p2147
asbasbasbag61
(g77
g63
NtRp2148
(dp2149
g66
(dp2150
sg75
g2119
sg68
(lp2151
g61
(g82
g63
NtRp2152
(dp2153
g66
(dp2154
sg75
g2148
sg68
(lp2155
g61
(g62
g63
NtRp2156
(dp2157
g66
(dp2158
g74
I3
ssg75
g2152
sg68
(lp2159
S'7'
asbasbasbag61
(g77
g63
NtRp2160
(dp2161
g66
(dp2162
sg75
g2119
sg68
(lp2163
g61
(g82
g63
NtRp2164
(dp2165
g66
(dp2166
sg75
g2160
sg68
(lp2167
g61
(g62
g63
NtRp2168
(dp2169
g66
(dp2170
g74
I3
ssg75
g2164
sg68
(lp2171
S'datetime.datetime(2012, 3, 4, 22, 12, 8)'
p2172
asbasbasbag61
(g77
g63
NtRp2173
(dp2174
g66
(dp2175
sg75
g2119
sg68
(lp2176
g61
(g82
g63
NtRp2177
(dp2178
g66
(dp2179
sg75
g2173
sg68
(lp2180
g61
(g62
g63
NtRp2181
(dp2182
g66
(dp2183
g74
I3
ssg75
g2177
sg68
(lp2184
g1530
asbasbasbasbasbasbasbasbasbasbasbag61
(g77
g63
NtRp2185
(dp2186
g66
(dp2187
sg75
g71
sg68
(lp2188
g61
(g82
g63
NtRp2189
(dp2190
g66
(dp2191
g86
g87
ssg75
g2185
sg68
(lp2192
S'is_https'
p2193
asbag61
(g82
g63
NtRp2194
(dp2195
g66
(dp2196
g93
g94
ssg75
g2185
sg68
(lp2197
S':'
asbag61
(g82
g63
NtRp2198
(dp2199
g66
(dp2200
sg75
g2185
sg68
(lp2201
g61
(g62
g63
NtRp2202
(dp2203
g66
(dp2204
g74
I5
ssg75
g2198
sg68
(lp2205
g104
asbasbasbag61
(g77
g63
NtRp2206
(dp2207
g66
(dp2208
sg75
g71
sg68
(lp2209
g61
(g82
g63
NtRp2210
(dp2211
g66
(dp2212
g86
g87
ssg75
g2206
sg68
(lp2213
S'is_local'
p2214
asbag61
(g82
g63
NtRp2215
(dp2216
g66
(dp2217
g93
g94
ssg75
g2206
sg68
(lp2218
S':'
asbag61
(g82
g63
NtRp2219
(dp2220
g66
(dp2221
sg75
g2206
sg68
(lp2222
g61
(g62
g63
NtRp2223
(dp2224
g66
(dp2225
g74
I5
ssg75
g2219
sg68
(lp2226
g1639
asbasbasbag61
(g77
g63
NtRp2227
(dp2228
g66
(dp2229
sg75
g71
sg68
(lp2230
g61
(g82
g63
NtRp2231
(dp2232
g66
(dp2233
g86
g87
ssg75
g2227
sg68
(lp2234
S'is_restful'
p2235
asbag61
(g82
g63
NtRp2236
(dp2237
g66
(dp2238
g93
g94
ssg75
g2227
sg68
(lp2239
S':'
asbag61
(g82
g63
NtRp2240
(dp2241
g66
(dp2242
sg75
g2227
sg68
(lp2243
g61
(g62
g63
NtRp2244
(dp2245
g66
(dp2246
g74
I5
ssg75
g2240
sg68
(lp2247
g104
asbasbasbag61
(g77
g63
NtRp2248
(dp2249
g66
(dp2250
sg75
g71
sg68
(lp2251
g61
(g82
g63
NtRp2252
(dp2253
g66
(dp2254
g86
g87
ssg75
g2248
sg68
(lp2255
S'now'
p2256
asbag61
(g82
g63
NtRp2257
(dp2258
g66
(dp2259
g93
g94
ssg75
g2248
sg68
(lp2260
S':'
asbag61
(g82
g63
NtRp2261
(dp2262
g66
(dp2263
sg75
g2248
sg68
(lp2264
g61
(g62
g63
NtRp2265
(dp2266
g66
(dp2267
g74
I5
ssg75
g2261
sg68
(lp2268
S'datetime.datetime(2015, 5, 9, 18, 27, 9, 556714)'
p2269
asbasbasbag61
(g77
g63
NtRp2270
(dp2271
g66
(dp2272
sg75
g71
sg68
(lp2273
g61
(g82
g63
NtRp2274
(dp2275
g66
(dp2276
g86
g87
ssg75
g2270
sg68
(lp2277
S'post_vars'
p2278
asbag61
(g82
g63
NtRp2279
(dp2280
g66
(dp2281
g93
g94
ssg75
g2270
sg68
(lp2282
S':'
asbag61
(g82
g63
NtRp2283
(dp2284
g66
(dp2285
sg75
g2270
sg68
(lp2286
g61
(g62
g63
NtRp2287
(dp2288
g66
(dp2289
g74
I5
ssg75
g2283
sg68
(lp2290
g61
(g70
g63
NtRp2291
(dp2292
g66
(dp2293
g74
I4
ssg75
Nsg68
(lp2294
sbasbasbasbag61
(g77
g63
NtRp2295
(dp2296
g66
(dp2297
sg75
g71
sg68
(lp2298
g61
(g82
g63
NtRp2299
(dp2300
g66
(dp2301
g86
g87
ssg75
g2295
sg68
(lp2302
S'url'
p2303
asbag61
(g82
g63
NtRp2304
(dp2305
g66
(dp2306
g93
g94
ssg75
g2295
sg68
(lp2307
S':'
asbag61
(g82
g63
NtRp2308
(dp2309
g66
(dp2310
sg75
g2295
sg68
(lp2311
g61
(g62
g63
NtRp2312
(dp2313
g66
(dp2314
g74
I5
ssg75
g2308
sg68
(lp2315
S'/newsapp/default/permission'
p2316
asbasbasbag61
(g77
g63
NtRp2317
(dp2318
g66
(dp2319
sg75
g71
sg68
(lp2320
g61
(g82
g63
NtRp2321
(dp2322
g66
(dp2323
g86
g87
ssg75
g2317
sg68
(lp2324
S'utcnow'
p2325
asbag61
(g82
g63
NtRp2326
(dp2327
g66
(dp2328
g93
g94
ssg75
g2317
sg68
(lp2329
S':'
asbag61
(g82
g63
NtRp2330
(dp2331
g66
(dp2332
sg75
g2317
sg68
(lp2333
g61
(g62
g63
NtRp2334
(dp2335
g66
(dp2336
g74
I5
ssg75
g2330
sg68
(lp2337
S'datetime.datetime(2015, 5, 9, 12, 57, 9, 556742)'
p2338
asbasbasbag61
(g77
g63
NtRp2339
(dp2340
g66
(dp2341
sg75
g71
sg68
(lp2342
g61
(g82
g63
NtRp2343
(dp2344
g66
(dp2345
g86
g87
ssg75
g2339
sg68
(lp2346
S'uuid'
p2347
asbag61
(g82
g63
NtRp2348
(dp2349
g66
(dp2350
g93
g94
ssg75
g2339
sg68
(lp2351
S':'
asbag61
(g82
g63
NtRp2352
(dp2353
g66
(dp2354
sg75
g2339
sg68
(lp2355
g61
(g62
g63
NtRp2356
(dp2357
g66
(dp2358
g74
I5
ssg75
g2352
sg68
(lp2359
S'newsapp/127.0.0.1.2015-05-09.18-27-09.49210247-bde8-4eba-8fb6-e66174fcbe7c'
p2360
asbasbasbag61
(g77
g63
NtRp2361
(dp2362
g66
(dp2363
sg75
g71
sg68
(lp2364
g61
(g82
g63
NtRp2365
(dp2366
g66
(dp2367
g86
g87
ssg75
g2361
sg68
(lp2368
S'vars'
p2369
asbag61
(g82
g63
NtRp2370
(dp2371
g66
(dp2372
g93
g94
ssg75
g2361
sg68
(lp2373
S':'
asbag61
(g82
g63
NtRp2374
(dp2375
g66
(dp2376
sg75
g2361
sg68
(lp2377
g61
(g62
g63
NtRp2378
(dp2379
g66
(dp2380
g74
I5
ssg75
g2374
sg68
(lp2381
g61
(g70
g63
NtRp2382
(dp2383
g66
(dp2384
g74
I4
ssg75
Nsg68
(lp2385
g61
(g77
g63
NtRp2386
(dp2387
g66
(dp2388
sg75
g2382
sg68
(lp2389
g61
(g82
g63
NtRp2390
(dp2391
g66
(dp2392
g86
g87
ssg75
g2386
sg68
(lp2393
g1831
asbag61
(g82
g63
NtRp2394
(dp2395
g66
(dp2396
g93
g94
ssg75
g2386
sg68
(lp2397
S':'
asbag61
(g82
g63
NtRp2398
(dp2399
g66
(dp2400
sg75
g2386
sg68
(lp2401
g61
(g62
g63
NtRp2402
(dp2403
g66
(dp2404
g74
I4
ssg75
g2398
sg68
(lp2405
g1844
asbasbasbag61
(g77
g63
NtRp2406
(dp2407
g66
(dp2408
sg75
g2382
sg68
(lp2409
g61
(g82
g63
NtRp2410
(dp2411
g66
(dp2412
g86
g87
ssg75
g2406
sg68
(lp2413
g1853
asbag61
(g82
g63
NtRp2414
(dp2415
g66
(dp2416
g93
g94
ssg75
g2406
sg68
(lp2417
S':'
asbag61
(g82
g63
NtRp2418
(dp2419
g66
(dp2420
sg75
g2406
sg68
(lp2421
g61
(g62
g63
NtRp2422
(dp2423
g66
(dp2424
g74
I4
ssg75
g2418
sg68
(lp2425
g1866
asbasbasbasbasbasbasbag61
(g77
g63
NtRp2426
(dp2427
g66
(dp2428
sg75
g71
sg68
(lp2429
g61
(g82
g63
NtRp2430
(dp2431
g66
(dp2432
g86
g87
ssg75
g2426
sg68
(lp2433
S'wsgi'
p2434
asbag61
(g82
g63
NtRp2435
(dp2436
g66
(dp2437
g93
g94
ssg75
g2426
sg68
(lp2438
S':'
asbag61
(g82
g63
NtRp2439
(dp2440
g66
(dp2441
sg75
g2426
sg68
(lp2442
g61
(g62
g63
NtRp2443
(dp2444
g66
(dp2445
g74
I5
ssg75
g2439
sg68
(lp2446
g61
(g70
g63
NtRp2447
(dp2448
g66
(dp2449
g74
I4
ssg75
Nsg68
(lp2450
g61
(g77
g63
NtRp2451
(dp2452
g66
(dp2453
sg75
g2447
sg68
(lp2454
g61
(g82
g63
NtRp2455
(dp2456
g66
(dp2457
g86
g87
ssg75
g2451
sg68
(lp2458
S'environ'
p2459
asbag61
(g82
g63
NtRp2460
(dp2461
g66
(dp2462
g93
g94
ssg75
g2451
sg68
(lp2463
S':'
asbag61
(g82
g63
NtRp2464
(dp2465
g66
(dp2466
sg75
g2451
sg68
(lp2467
g61
(g62
g63
NtRp2468
(dp2469
g66
(dp2470
g74
I4
ssg75
g2464
sg68
(lp2471
g61
(g70
g63
NtRp2472
(dp2473
g66
(dp2474
g74
I3
ssg75
Nsg68
(lp2475
g61
(g77
g63
NtRp2476
(dp2477
g66
(dp2478
sg75
g2472
sg68
(lp2479
g61
(g82
g63
NtRp2480
(dp2481
g66
(dp2482
g86
g87
ssg75
g2476
sg68
(lp2483
S'HTTP_ACCEPT'
p2484
asbag61
(g82
g63
NtRp2485
(dp2486
g66
(dp2487
g93
g94
ssg75
g2476
sg68
(lp2488
S':'
asbag61
(g82
g63
NtRp2489
(dp2490
g66
(dp2491
sg75
g2476
sg68
(lp2492
g61
(g62
g63
NtRp2493
(dp2494
g66
(dp2495
g74
I3
ssg75
g2489
sg68
(lp2496
g1007
asbasbasbag61
(g77
g63
NtRp2497
(dp2498
g66
(dp2499
sg75
g2472
sg68
(lp2500
g61
(g82
g63
NtRp2501
(dp2502
g66
(dp2503
g86
g87
ssg75
g2497
sg68
(lp2504
S'HTTP_ACCEPT_ENCODING'
p2505
asbag61
(g82
g63
NtRp2506
(dp2507
g66
(dp2508
g93
g94
ssg75
g2497
sg68
(lp2509
S':'
asbag61
(g82
g63
NtRp2510
(dp2511
g66
(dp2512
sg75
g2497
sg68
(lp2513
g61
(g62
g63
NtRp2514
(dp2515
g66
(dp2516
g74
I3
ssg75
g2510
sg68
(lp2517
g1029
asbasbasbag61
(g77
g63
NtRp2518
(dp2519
g66
(dp2520
sg75
g2472
sg68
(lp2521
g61
(g82
g63
NtRp2522
(dp2523
g66
(dp2524
g86
g87
ssg75
g2518
sg68
(lp2525
S'HTTP_ACCEPT_LANGUAGE'
p2526
asbag61
(g82
g63
NtRp2527
(dp2528
g66
(dp2529
g93
g94
ssg75
g2518
sg68
(lp2530
S':'
asbag61
(g82
g63
NtRp2531
(dp2532
g66
(dp2533
sg75
g2518
sg68
(lp2534
g61
(g62
g63
NtRp2535
(dp2536
g66
(dp2537
g74
I3
ssg75
g2531
sg68
(lp2538
g1051
asbasbasbag61
(g77
g63
NtRp2539
(dp2540
g66
(dp2541
sg75
g2472
sg68
(lp2542
g61
(g82
g63
NtRp2543
(dp2544
g66
(dp2545
g86
g87
ssg75
g2539
sg68
(lp2546
S'HTTP_CONNECTION'
p2547
asbag61
(g82
g63
NtRp2548
(dp2549
g66
(dp2550
g93
g94
ssg75
g2539
sg68
(lp2551
S':'
asbag61
(g82
g63
NtRp2552
(dp2553
g66
(dp2554
sg75
g2539
sg68
(lp2555
g61
(g62
g63
NtRp2556
(dp2557
g66
(dp2558
g74
I3
ssg75
g2552
sg68
(lp2559
g1073
asbasbasbag61
(g77
g63
NtRp2560
(dp2561
g66
(dp2562
sg75
g2472
sg68
(lp2563
g61
(g82
g63
NtRp2564
(dp2565
g66
(dp2566
g86
g87
ssg75
g2560
sg68
(lp2567
S'HTTP_COOKIE'
p2568
asbag61
(g82
g63
NtRp2569
(dp2570
g66
(dp2571
g93
g94
ssg75
g2560
sg68
(lp2572
S':'
asbag61
(g82
g63
NtRp2573
(dp2574
g66
(dp2575
sg75
g2560
sg68
(lp2576
g61
(g62
g63
NtRp2577
(dp2578
g66
(dp2579
g74
I3
ssg75
g2573
sg68
(lp2580
g1095
asbasbasbag61
(g77
g63
NtRp2581
(dp2582
g66
(dp2583
sg75
g2472
sg68
(lp2584
g61
(g82
g63
NtRp2585
(dp2586
g66
(dp2587
g86
g87
ssg75
g2581
sg68
(lp2588
S'HTTP_HOST'
p2589
asbag61
(g82
g63
NtRp2590
(dp2591
g66
(dp2592
g93
g94
ssg75
g2581
sg68
(lp2593
S':'
asbag61
(g82
g63
NtRp2594
(dp2595
g66
(dp2596
sg75
g2581
sg68
(lp2597
g61
(g62
g63
NtRp2598
(dp2599
g66
(dp2600
g74
I3
ssg75
g2594
sg68
(lp2601
g1117
asbasbasbag61
(g77
g63
NtRp2602
(dp2603
g66
(dp2604
sg75
g2472
sg68
(lp2605
g61
(g82
g63
NtRp2606
(dp2607
g66
(dp2608
g86
g87
ssg75
g2602
sg68
(lp2609
S'HTTP_USER_AGENT'
p2610
asbag61
(g82
g63
NtRp2611
(dp2612
g66
(dp2613
g93
g94
ssg75
g2602
sg68
(lp2614
S':'
asbag61
(g82
g63
NtRp2615
(dp2616
g66
(dp2617
sg75
g2602
sg68
(lp2618
g61
(g62
g63
NtRp2619
(dp2620
g66
(dp2621
g74
I3
ssg75
g2615
sg68
(lp2622
g1139
asbasbasbag61
(g77
g63
NtRp2623
(dp2624
g66
(dp2625
sg75
g2472
sg68
(lp2626
g61
(g82
g63
NtRp2627
(dp2628
g66
(dp2629
g86
g87
ssg75
g2623
sg68
(lp2630
S'PATH_INFO'
p2631
asbag61
(g82
g63
NtRp2632
(dp2633
g66
(dp2634
g93
g94
ssg75
g2623
sg68
(lp2635
S':'
asbag61
(g82
g63
NtRp2636
(dp2637
g66
(dp2638
sg75
g2623
sg68
(lp2639
g61
(g62
g63
NtRp2640
(dp2641
g66
(dp2642
g74
I3
ssg75
g2636
sg68
(lp2643
g1203
asbasbasbag61
(g77
g63
NtRp2644
(dp2645
g66
(dp2646
sg75
g2472
sg68
(lp2647
g61
(g82
g63
NtRp2648
(dp2649
g66
(dp2650
g86
g87
ssg75
g2644
sg68
(lp2651
S'QUERY_STRING'
p2652
asbag61
(g82
g63
NtRp2653
(dp2654
g66
(dp2655
g93
g94
ssg75
g2644
sg68
(lp2656
S':'
asbag61
(g82
g63
NtRp2657
(dp2658
g66
(dp2659
sg75
g2644
sg68
(lp2660
g61
(g62
g63
NtRp2661
(dp2662
g66
(dp2663
g74
I3
ssg75
g2657
sg68
(lp2664
g1225
asbasbasbag61
(g77
g63
NtRp2665
(dp2666
g66
(dp2667
sg75
g2472
sg68
(lp2668
g61
(g82
g63
NtRp2669
(dp2670
g66
(dp2671
g86
g87
ssg75
g2665
sg68
(lp2672
S'REMOTE_ADDR'
p2673
asbag61
(g82
g63
NtRp2674
(dp2675
g66
(dp2676
g93
g94
ssg75
g2665
sg68
(lp2677
S':'
asbag61
(g82
g63
NtRp2678
(dp2679
g66
(dp2680
sg75
g2665
sg68
(lp2681
g61
(g62
g63
NtRp2682
(dp2683
g66
(dp2684
g74
I3
ssg75
g2678
sg68
(lp2685
g194
asbasbasbag61
(g77
g63
NtRp2686
(dp2687
g66
(dp2688
sg75
g2472
sg68
(lp2689
g61
(g82
g63
NtRp2690
(dp2691
g66
(dp2692
g86
g87
ssg75
g2686
sg68
(lp2693
S'REMOTE_PORT'
p2694
asbag61
(g82
g63
NtRp2695
(dp2696
g66
(dp2697
g93
g94
ssg75
g2686
sg68
(lp2698
S':'
asbag61
(g82
g63
NtRp2699
(dp2700
g66
(dp2701
sg75
g2686
sg68
(lp2702
g61
(g62
g63
NtRp2703
(dp2704
g66
(dp2705
g74
I3
ssg75
g2699
sg68
(lp2706
g1268
asbasbasbag61
(g77
g63
NtRp2707
(dp2708
g66
(dp2709
sg75
g2472
sg68
(lp2710
g61
(g82
g63
NtRp2711
(dp2712
g66
(dp2713
g86
g87
ssg75
g2707
sg68
(lp2714
S'REQUEST_METHOD'
p2715
asbag61
(g82
g63
NtRp2716
(dp2717
g66
(dp2718
g93
g94
ssg75
g2707
sg68
(lp2719
S':'
asbag61
(g82
g63
NtRp2720
(dp2721
g66
(dp2722
sg75
g2707
sg68
(lp2723
g61
(g62
g63
NtRp2724
(dp2725
g66
(dp2726
g74
I3
ssg75
g2720
sg68
(lp2727
g1290
asbasbasbag61
(g77
g63
NtRp2728
(dp2729
g66
(dp2730
sg75
g2472
sg68
(lp2731
g61
(g82
g63
NtRp2732
(dp2733
g66
(dp2734
g86
g87
ssg75
g2728
sg68
(lp2735
S'SCRIPT_NAME'
p2736
asbag61
(g82
g63
NtRp2737
(dp2738
g66
(dp2739
g93
g94
ssg75
g2728
sg68
(lp2740
S':'
asbag61
(g82
g63
NtRp2741
(dp2742
g66
(dp2743
sg75
g2728
sg68
(lp2744
g61
(g62
g63
NtRp2745
(dp2746
g66
(dp2747
g74
I3
ssg75
g2741
sg68
(lp2748
S''
asbasbasbag61
(g77
g63
NtRp2749
(dp2750
g66
(dp2751
sg75
g2472
sg68
(lp2752
g61
(g82
g63
NtRp2753
(dp2754
g66
(dp2755
g86
g87
ssg75
g2749
sg68
(lp2756
S'SERVER_NAME'
p2757
asbag61
(g82
g63
NtRp2758
(dp2759
g66
(dp2760
g93
g94
ssg75
g2749
sg68
(lp2761
S':'
asbag61
(g82
g63
NtRp2762
(dp2763
g66
(dp2764
sg75
g2749
sg68
(lp2765
g61
(g62
g63
NtRp2766
(dp2767
g66
(dp2768
g74
I3
ssg75
g2762
sg68
(lp2769
g1333
asbasbasbag61
(g77
g63
NtRp2770
(dp2771
g66
(dp2772
sg75
g2472
sg68
(lp2773
g61
(g82
g63
NtRp2774
(dp2775
g66
(dp2776
g86
g87
ssg75
g2770
sg68
(lp2777
S'SERVER_PORT'
p2778
asbag61
(g82
g63
NtRp2779
(dp2780
g66
(dp2781
g93
g94
ssg75
g2770
sg68
(lp2782
S':'
asbag61
(g82
g63
NtRp2783
(dp2784
g66
(dp2785
sg75
g2770
sg68
(lp2786
g61
(g62
g63
NtRp2787
(dp2788
g66
(dp2789
g74
I3
ssg75
g2783
sg68
(lp2790
g1355
asbasbasbag61
(g77
g63
NtRp2791
(dp2792
g66
(dp2793
sg75
g2472
sg68
(lp2794
g61
(g82
g63
NtRp2795
(dp2796
g66
(dp2797
g86
g87
ssg75
g2791
sg68
(lp2798
S'SERVER_PROTOCOL'
p2799
asbag61
(g82
g63
NtRp2800
(dp2801
g66
(dp2802
g93
g94
ssg75
g2791
sg68
(lp2803
S':'
asbag61
(g82
g63
NtRp2804
(dp2805
g66
(dp2806
sg75
g2791
sg68
(lp2807
g61
(g62
g63
NtRp2808
(dp2809
g66
(dp2810
g74
I3
ssg75
g2804
sg68
(lp2811
g1377
asbasbasbag61
(g77
g63
NtRp2812
(dp2813
g66
(dp2814
sg75
g2472
sg68
(lp2815
g61
(g82
g63
NtRp2816
(dp2817
g66
(dp2818
g86
g87
ssg75
g2812
sg68
(lp2819
S'SERVER_SOFTWARE'
p2820
asbag61
(g82
g63
NtRp2821
(dp2822
g66
(dp2823
g93
g94
ssg75
g2812
sg68
(lp2824
S':'
asbag61
(g82
g63
NtRp2825
(dp2826
g66
(dp2827
sg75
g2812
sg68
(lp2828
g61
(g62
g63
NtRp2829
(dp2830
g66
(dp2831
g74
I3
ssg75
g2825
sg68
(lp2832
g1399
asbasbasbag61
(g77
g63
NtRp2833
(dp2834
g66
(dp2835
sg75
g2472
sg68
(lp2836
g61
(g82
g63
NtRp2837
(dp2838
g66
(dp2839
g86
g87
ssg75
g2833
sg68
(lp2840
S'wsgi.errors'
p2841
asbag61
(g82
g63
NtRp2842
(dp2843
g66
(dp2844
g93
g94
ssg75
g2833
sg68
(lp2845
S':'
asbag61
(g82
g63
NtRp2846
(dp2847
g66
(dp2848
sg75
g2833
sg68
(lp2849
g61
(g62
g63
NtRp2850
(dp2851
g66
(dp2852
g74
I3
ssg75
g2846
sg68
(lp2853
S"<open file '<stderr>', mode 'w' at 0x7f77071f91e0>"
p2854
asbasbasbag61
(g77
g63
NtRp2855
(dp2856
g66
(dp2857
sg75
g2472
sg68
(lp2858
g61
(g82
g63
NtRp2859
(dp2860
g66
(dp2861
g86
g87
ssg75
g2855
sg68
(lp2862
S'wsgi.file_wrapper'
p2863
asbag61
(g82
g63
NtRp2864
(dp2865
g66
(dp2866
g93
g94
ssg75
g2855
sg68
(lp2867
S':'
asbag61
(g82
g63
NtRp2868
(dp2869
g66
(dp2870
sg75
g2855
sg68
(lp2871
g61
(g62
g63
NtRp2872
(dp2873
g66
(dp2874
g74
I3
ssg75
g2868
sg68
(lp2875
S'<class wsgiref.util.FileWrapper at 0x7f7703156e88>'
p2876
asbasbasbag61
(g77
g63
NtRp2877
(dp2878
g66
(dp2879
sg75
g2472
sg68
(lp2880
g61
(g82
g63
NtRp2881
(dp2882
g66
(dp2883
g86
g87
ssg75
g2877
sg68
(lp2884
S'wsgi.input'
p2885
asbag61
(g82
g63
NtRp2886
(dp2887
g66
(dp2888
g93
g94
ssg75
g2877
sg68
(lp2889
S':'
asbag61
(g82
g63
NtRp2890
(dp2891
g66
(dp2892
sg75
g2877
sg68
(lp2893
g61
(g62
g63
NtRp2894
(dp2895
g66
(dp2896
g74
I3
ssg75
g2890
sg68
(lp2897
S'<cStringIO.StringO object at 0x7f76b8ce6110>'
p2898
asbasbasbag61
(g77
g63
NtRp2899
(dp2900
g66
(dp2901
sg75
g2472
sg68
(lp2902
g61
(g82
g63
NtRp2903
(dp2904
g66
(dp2905
g86
g87
ssg75
g2899
sg68
(lp2906
S'wsgi.multiprocess'
p2907
asbag61
(g82
g63
NtRp2908
(dp2909
g66
(dp2910
g93
g94
ssg75
g2899
sg68
(lp2911
S':'
asbag61
(g82
g63
NtRp2912
(dp2913
g66
(dp2914
sg75
g2899
sg68
(lp2915
g61
(g62
g63
NtRp2916
(dp2917
g66
(dp2918
g74
I3
ssg75
g2912
sg68
(lp2919
g104
asbasbasbag61
(g77
g63
NtRp2920
(dp2921
g66
(dp2922
sg75
g2472
sg68
(lp2923
g61
(g82
g63
NtRp2924
(dp2925
g66
(dp2926
g86
g87
ssg75
g2920
sg68
(lp2927
S'wsgi.multithread'
p2928
asbag61
(g82
g63
NtRp2929
(dp2930
g66
(dp2931
g93
g94
ssg75
g2920
sg68
(lp2932
S':'
asbag61
(g82
g63
NtRp2933
(dp2934
g66
(dp2935
sg75
g2920
sg68
(lp2936
g61
(g62
g63
NtRp2937
(dp2938
g66
(dp2939
g74
I3
ssg75
g2933
sg68
(lp2940
g1639
asbasbasbag61
(g77
g63
NtRp2941
(dp2942
g66
(dp2943
sg75
g2472
sg68
(lp2944
g61
(g82
g63
NtRp2945
(dp2946
g66
(dp2947
g86
g87
ssg75
g2941
sg68
(lp2948
S'wsgi.run_once'
p2949
asbag61
(g82
g63
NtRp2950
(dp2951
g66
(dp2952
g93
g94
ssg75
g2941
sg68
(lp2953
S':'
asbag61
(g82
g63
NtRp2954
(dp2955
g66
(dp2956
sg75
g2941
sg68
(lp2957
g61
(g62
g63
NtRp2958
(dp2959
g66
(dp2960
g74
I3
ssg75
g2954
sg68
(lp2961
g104
asbasbasbag61
(g77
g63
NtRp2962
(dp2963
g66
(dp2964
sg75
g2472
sg68
(lp2965
g61
(g82
g63
NtRp2966
(dp2967
g66
(dp2968
g86
g87
ssg75
g2962
sg68
(lp2969
S'wsgi.url_scheme'
p2970
asbag61
(g82
g63
NtRp2971
(dp2972
g66
(dp2973
g93
g94
ssg75
g2962
sg68
(lp2974
S':'
asbag61
(g82
g63
NtRp2975
(dp2976
g66
(dp2977
sg75
g2962
sg68
(lp2978
g61
(g62
g63
NtRp2979
(dp2980
g66
(dp2981
g74
I3
ssg75
g2975
sg68
(lp2982
g1682
asbasbasbag61
(g77
g63
NtRp2983
(dp2984
g66
(dp2985
sg75
g2472
sg68
(lp2986
g61
(g82
g63
NtRp2987
(dp2988
g66
(dp2989
g86
g87
ssg75
g2983
sg68
(lp2990
S'wsgi.version'
p2991
asbag61
(g82
g63
NtRp2992
(dp2993
g66
(dp2994
g93
g94
ssg75
g2983
sg68
(lp2995
S':'
asbag61
(g82
g63
NtRp2996
(dp2997
g66
(dp2998
sg75
g2983
sg68
(lp2999
g61
(g62
g63
NtRp3000
(dp3001
g66
(dp3002
g74
I3
ssg75
g2996
sg68
(lp3003
S'1'
asbasbasbasbasbasbasbasbasbasbasbasbasbsS'frames'
p3004
(lp3005
(dp3006
S'file'
p3007
S'/usr/lib/pymodules/python2.7/gluon/restricted.py'
p3008
sS'dump'
p3009
(dp3010
S'environment'
p3011
S"{'A': <class 'gluon.html.A'>, 'Auth': <class 'gluon.tools.Auth'>, 'B': <class 'gluon.html.B'>, 'BEAUTIFY': <class 'gluon.html.BEAUTIFY'>, 'BODY': <class 'gluon.html.BODY'>, 'BR': <class 'gluon.html.BR'>, 'BUTTON': <class 'gluon.html.BUTTON'>, 'CAT': <class 'gluon.html.CAT'>, 'CENTER': <class 'gluon.html.CENTER'>, 'CLEANUP': <class 'gluon.validators.CLEANUP'>, ...}"
p3012
sS'ccode'
p3013
S'<code object <module> at 0x7f76b874f130, file "/...ications/newsapp/controllers/default.py", line 1>'
p3014
ssS'lnum'
p3015
I205
sS'lines'
p3016
(dp3017
I200
S'    try:'
p3018
sI201
S'        if type(code) == types.CodeType:'
p3019
sI202
S'            ccode = code'
p3020
sI203
S'        else:'
p3021
sI204
S'            ccode = compile2(code,layer)'
p3022
sI205
S'        exec ccode in environment'
p3023
sI206
S'    except HTTP:'
p3024
sI207
S'        raise'
p3025
sI208
S'    except RestrictedError:'
p3026
sI209
S'        # do not encapsulate (obfuscate) the original RestrictedError'
p3027
ssS'call'
p3028
S"(code='import urllib,urllib2\\nfrom urlparse import *\\nimp...t()\\n\\nresponse._vars=response._caller(permission)\\n', environment={'A': <class 'gluon.html.A'>, 'Auth': <class 'gluon.tools.Auth'>, 'B': <class 'gluon.html.B'>, 'BEAUTIFY': <class 'gluon.html.BEAUTIFY'>, 'BODY': <class 'gluon.html.BODY'>, 'BR': <class 'gluon.html.BR'>, 'BUTTON': <class 'gluon.html.BUTTON'>, 'CAT': <class 'gluon.html.CAT'>, 'CENTER': <class 'gluon.html.CENTER'>, 'CLEANUP': <class 'gluon.validators.CLEANUP'>, ...}, layer='/home/pooja/web2py/applications/newsapp/controllers/default.py')"
p3029
sS'func'
p3030
S'restricted'
p3031
sa(dp3032
g3007
S'/home/pooja/web2py/applications/newsapp/controllers/default.py'
p3033
sg3009
(dp3034
sg3015
I100
sg3016
(dp3035
I96
S'    expires = interm[2]'
p3036
sI97
S'    fb_status = db.executesql("""INSERT IGNORE INTO  fb_details(name,email_id,fb_id,access_token,expiry) VALUES (%s,%s,%s,%s,%s);""",(name,email_id,session.fb_id,extended_token,expires))'
p3037
sI98
S'    return dict()'
p3038
sI89
S'    url += "&fb_exchange_token=%s"%(token)'
p3039
sI90
S''
sI91
S'    data = urllib2.urlopen(url)'
p3040
sI92
S'    interm = data.read().split("=")'
p3041
sI93
S'    token = interm[1].split("&")'
p3042
sI94
S'    extended_token = token[0]'
p3043
sI95
S'    session.extended_token = extended_token'
p3044
ssg3028
S'()'
p3045
sg3030
S'<module>'
p3046
sa(dp3047
g3007
S'/usr/lib/pymodules/python2.7/gluon/globals.py'
p3048
sg3009
(dp3049
S'self'
p3050
S'undefined'
p3051
sS'f'
S'<function permission>'
p3052
ssg3015
I173
sg3016
(dp3053
I168
S'        self.menu = []             # used by the default view layout'
p3054
sI169
S'        self.files = []            # used by web2py_ajax.html'
p3055
sI170
S'        self.generic_patterns = [] # patterns to allow generic views'
p3056
sI171
S"        self.delimiters = ('{{','}}')"
p3057
sI172
S'        self._vars = None'
p3058
sI173
S'        self._caller = lambda f: f()'
p3059
sI174
S'        self._view_environment = None'
p3060
sI175
S'        self._custom_commit = None'
p3061
sI176
S'        self._custom_rollback = None'
p3062
sI177
S''
ssg3028
S'(f=<function permission>)'
p3063
sg3030
S'<lambda>'
p3064
sa(dp3065
g3007
S'/home/pooja/web2py/applications/newsapp/controllers/default.py'
p3066
sg3009
(dp3067
S'global db'
p3068
S"<DAL {'auth_event': <Table {'origin': <gluon.dal...': <gluon.dal.Field object at 0x7f76b8ccbd90>}>}>"
p3069
sS'db.executesql'
p3070
S"<bound method DAL.executesql of <DAL {'auth_even...: <gluon.dal.Field object at 0x7f76b8ccbd90>}>}>>"
p3071
sS'tw_status_query'
p3072
S'"\\n            INSERT IGNORE INTO  tw_details(scre...=\'cnW26x6ID9yebEJLhTH50Xm36dr3anNuR4mFzzh14AMYr\';"'
p3073
sS'tw_status'
p3074
g3051
ssg3015
I46
sg3016
(dp3075
I41
S"        user_id = int(access_token['user_id'])"
p3076
sI42
S"        name =(access_token['screen_name'])"
p3077
sI43
S'        tw_status_query = """'
p3078
sI44
S"            INSERT IGNORE INTO  tw_details(screen_name,user_id,tw_token,tw_token_secret) VALUES ('%s','%s','%s','%s')"
p3079
sI45
S'    ON DUPLICATE KEY UPDATE tw_token=\'%s\',tw_token_secret=\'%s\';"""%(name,user_id,session.access_token[\'oauth_token\'],session.access_token[\'oauth_token_secret\'],session.access_token[\'oauth_token\'],session.access_token[\'oauth_token_secret\'])'
p3080
sI46
S'    tw_status = db.executesql(tw_status_query)'
p3081
sI47
S'    return dict()'
p3082
sI48
S''
sI49
S'def get_extented_token():'
p3083
sI50
S'    token = request.vars.token'
p3084
ssg3028
S'()'
p3085
sg3030
S'permission'
p3086
sa(dp3087
g3007
S'/usr/lib/pymodules/python2.7/gluon/dal.py'
p3088
sg3009
(dp3089
S'query'
p3090
S'"\\n            INSERT IGNORE INTO  tw_details(scre...=\'cnW26x6ID9yebEJLhTH50Xm36dr3anNuR4mFzzh14AMYr\';"'
p3091
sS'self'
p3092
S"<DAL {'auth_event': <Table {'origin': <gluon.dal...': <gluon.dal.Field object at 0x7f76b8ccbd90>}>}>"
p3093
sS'self._adapter'
p3094
S'<gluon.dal.SQLiteAdapter object>'
p3095
sS'self._adapter.execute'
p3096
S'<bound method SQLiteAdapter.execute of <gluon.dal.SQLiteAdapter object>>'
p3097
ssg3015
I6394
sg3016
(dp3098
I6389
S'        --bmeredyk'
p3099
sI6390
S'        """'
p3100
sI6391
S'        if placeholders:'
p3101
sI6392
S'            self._adapter.execute(query, placeholders)'
p3102
sI6393
S'        else:'
p3103
sI6394
S'            self._adapter.execute(query)'
p3104
sI6395
S'        if as_dict:'
p3105
sI6396
S"            if not hasattr(self._adapter.cursor,'description'):"
p3106
sI6397
S'                raise RuntimeError, "database does not support executesql(...,as_dict=True)"'
p3107
sI6398
S'            # Non-DAL legacy db query, converts cursor results to dict.'
p3108
ssg3028
S'(self=<DAL {\'auth_event\': <Table {\'origin\': <gluon.dal...\': <gluon.dal.Field object at 0x7f76b8ccbd90>}>}>, query="\\n            INSERT IGNORE INTO  tw_details(scre...=\'cnW26x6ID9yebEJLhTH50Xm36dr3anNuR4mFzzh14AMYr\';", placeholders=None, as_dict=False)'
p3109
sg3030
S'executesql'
p3110
sa(dp3111
g3007
S'/usr/lib/pymodules/python2.7/gluon/dal.py'
p3112
sg3009
(dp3113
S'a'
S'("\\n            INSERT IGNORE INTO  tw_details(scre...=\'cnW26x6ID9yebEJLhTH50Xm36dr3anNuR4mFzzh14AMYr\';",)'
p3114
sS'self'
p3115
S'<gluon.dal.SQLiteAdapter object>'
p3116
sS'b'
g21
sS'self.log_execute'
p3117
S'<bound method SQLiteAdapter.log_execute of <gluon.dal.SQLiteAdapter object>>'
p3118
ssg3015
I1392
sg3016
(dp3119
I1387
S'        self.db._timings.append((a[0],time.time()-t0))'
p3120
sI1388
S'        del self.db._timings[:-TIMINGSSIZE]'
p3121
sI1389
S'        return ret'
p3122
sI1390
S''
sI1391
S'    def execute(self, *a, **b):'
p3123
sI1392
S'        return self.log_execute(*a, **b)'
p3124
sI1393
S''
sI1394
S'    def represent(self, obj, fieldtype):'
p3125
sI1395
S'        if isinstance(obj, CALLABLETYPES):'
p3126
sI1396
S'            obj = obj()'
p3127
ssg3028
S'(self=<gluon.dal.SQLiteAdapter object>, *a=("\\n            INSERT IGNORE INTO  tw_details(scre...=\'cnW26x6ID9yebEJLhTH50Xm36dr3anNuR4mFzzh14AMYr\';",), **b={})'
p3128
sg3030
S'execute'
p3129
sa(dp3130
g3007
S'/usr/lib/pymodules/python2.7/gluon/dal.py'
p3131
sg3009
(dp3132
S'a'
S'("\\n            INSERT IGNORE INTO  tw_details(scre...=\'cnW26x6ID9yebEJLhTH50Xm36dr3anNuR4mFzzh14AMYr\';",)'
p3133
sS'b'
g21
sS'self'
p3134
S'<gluon.dal.SQLiteAdapter object>'
p3135
sS'ret'
p3136
g3051
sS'self.cursor'
p3137
S'<pysqlite2.dbapi2.Cursor object>'
p3138
sS'self.cursor.execute'
p3139
S'<built-in method execute of pysqlite2.dbapi2.Cursor object>'
p3140
ssg3015
I1386
sg3016
(dp3141
I1381
S'        self.execute(query)'
p3142
sI1382
S''
sI1383
S'    def log_execute(self, *a, **b):'
p3143
sI1384
S'        self.db._lastsql = a[0]'
p3144
sI1385
S'        t0 = time.time()'
p3145
sI1386
S'        ret = self.cursor.execute(*a, **b)'
p3146
sI1387
S'        self.db._timings.append((a[0],time.time()-t0))'
p3147
sI1388
S'        del self.db._timings[:-TIMINGSSIZE]'
p3148
sI1389
S'        return ret'
p3149
sI1390
S''
ssg3028
S'(self=<gluon.dal.SQLiteAdapter object>, *a=("\\n            INSERT IGNORE INTO  tw_details(scre...=\'cnW26x6ID9yebEJLhTH50Xm36dr3anNuR4mFzzh14AMYr\';",), **b={})'
p3150
sg3030
S'log_execute'
p3151
sasS'pyver'
p3152
S'Python 2.7.6: /usr/bin/python'
p3153
sS'session'
p3154
g61
(g62
g63
NtRp3155
(dp3156
g66
(dp3157
sg68
(lp3158
g61
(g70
g63
NtRp3159
(dp3160
g66
(dp3161
g74
I5
ssg75
Nsg68
(lp3162
g61
(g77
g63
NtRp3163
(dp3164
g66
(dp3165
sg75
g3159
sg68
(lp3166
g61
(g82
g63
NtRp3167
(dp3168
g66
(dp3169
g86
g87
ssg75
g3163
sg68
(lp3170
S'access_token'
p3171
asbag61
(g82
g63
NtRp3172
(dp3173
g66
(dp3174
g93
g94
ssg75
g3163
sg68
(lp3175
S':'
asbag61
(g82
g63
NtRp3176
(dp3177
g66
(dp3178
sg75
g3163
sg68
(lp3179
g61
(g62
g63
NtRp3180
(dp3181
g66
(dp3182
g74
I5
ssg75
g3176
sg68
(lp3183
g61
(g70
g63
NtRp3184
(dp3185
g66
(dp3186
g74
I4
ssg75
Nsg68
(lp3187
g61
(g77
g63
NtRp3188
(dp3189
g66
(dp3190
sg75
g3184
sg68
(lp3191
g61
(g82
g63
NtRp3192
(dp3193
g66
(dp3194
g86
g87
ssg75
g3188
sg68
(lp3195
S'oauth_token'
p3196
asbag61
(g82
g63
NtRp3197
(dp3198
g66
(dp3199
g93
g94
ssg75
g3188
sg68
(lp3200
S':'
asbag61
(g82
g63
NtRp3201
(dp3202
g66
(dp3203
sg75
g3188
sg68
(lp3204
g61
(g62
g63
NtRp3205
(dp3206
g66
(dp3207
g74
I4
ssg75
g3201
sg68
(lp3208
S'269256901-Tms0dXy6Yd3ymJZJbGEgKf4EbijtLdKTABJCXd0L'
p3209
asbasbasbag61
(g77
g63
NtRp3210
(dp3211
g66
(dp3212
sg75
g3184
sg68
(lp3213
g61
(g82
g63
NtRp3214
(dp3215
g66
(dp3216
g86
g87
ssg75
g3210
sg68
(lp3217
S'oauth_token_secret'
p3218
asbag61
(g82
g63
NtRp3219
(dp3220
g66
(dp3221
g93
g94
ssg75
g3210
sg68
(lp3222
S':'
asbag61
(g82
g63
NtRp3223
(dp3224
g66
(dp3225
sg75
g3210
sg68
(lp3226
g61
(g62
g63
NtRp3227
(dp3228
g66
(dp3229
g74
I4
ssg75
g3223
sg68
(lp3230
S'cnW26x6ID9yebEJLhTH50Xm36dr3anNuR4mFzzh14AMYr'
p3231
asbasbasbag61
(g77
g63
NtRp3232
(dp3233
g66
(dp3234
sg75
g3184
sg68
(lp3235
g61
(g82
g63
NtRp3236
(dp3237
g66
(dp3238
g86
g87
ssg75
g3232
sg68
(lp3239
S'screen_name'
p3240
asbag61
(g82
g63
NtRp3241
(dp3242
g66
(dp3243
g93
g94
ssg75
g3232
sg68
(lp3244
S':'
asbag61
(g82
g63
NtRp3245
(dp3246
g66
(dp3247
sg75
g3232
sg68
(lp3248
g61
(g62
g63
NtRp3249
(dp3250
g66
(dp3251
g74
I4
ssg75
g3245
sg68
(lp3252
S'poojakvj'
p3253
asbasbasbag61
(g77
g63
NtRp3254
(dp3255
g66
(dp3256
sg75
g3184
sg68
(lp3257
g61
(g82
g63
NtRp3258
(dp3259
g66
(dp3260
g86
g87
ssg75
g3254
sg68
(lp3261
S'user_id'
p3262
asbag61
(g82
g63
NtRp3263
(dp3264
g66
(dp3265
g93
g94
ssg75
g3254
sg68
(lp3266
S':'
asbag61
(g82
g63
NtRp3267
(dp3268
g66
(dp3269
sg75
g3254
sg68
(lp3270
g61
(g62
g63
NtRp3271
(dp3272
g66
(dp3273
g74
I4
ssg75
g3267
sg68
(lp3274
S'269256901'
p3275
asbasbasbasbasbasbasbag61
(g77
g63
NtRp3276
(dp3277
g66
(dp3278
sg75
g3159
sg68
(lp3279
g61
(g82
g63
NtRp3280
(dp3281
g66
(dp3282
g86
g87
ssg75
g3276
sg68
(lp3283
S'request_token'
p3284
asbag61
(g82
g63
NtRp3285
(dp3286
g66
(dp3287
g93
g94
ssg75
g3276
sg68
(lp3288
S':'
asbag61
(g82
g63
NtRp3289
(dp3290
g66
(dp3291
sg75
g3276
sg68
(lp3292
g61
(g62
g63
NtRp3293
(dp3294
g66
(dp3295
g74
I5
ssg75
g3289
sg68
(lp3296
g61
(g70
g63
NtRp3297
(dp3298
g66
(dp3299
g74
I4
ssg75
Nsg68
(lp3300
g61
(g77
g63
NtRp3301
(dp3302
g66
(dp3303
sg75
g3297
sg68
(lp3304
g61
(g82
g63
NtRp3305
(dp3306
g66
(dp3307
g86
g87
ssg75
g3301
sg68
(lp3308
S'oauth_callback_confirmed'
p3309
asbag61
(g82
g63
NtRp3310
(dp3311
g66
(dp3312
g93
g94
ssg75
g3301
sg68
(lp3313
S':'
asbag61
(g82
g63
NtRp3314
(dp3315
g66
(dp3316
sg75
g3301
sg68
(lp3317
g61
(g62
g63
NtRp3318
(dp3319
g66
(dp3320
g74
I4
ssg75
g3314
sg68
(lp3321
S'true'
p3322
asbasbasbag61
(g77
g63
NtRp3323
(dp3324
g66
(dp3325
sg75
g3297
sg68
(lp3326
g61
(g82
g63
NtRp3327
(dp3328
g66
(dp3329
g86
g87
ssg75
g3323
sg68
(lp3330
S'oauth_token'
p3331
asbag61
(g82
g63
NtRp3332
(dp3333
g66
(dp3334
g93
g94
ssg75
g3323
sg68
(lp3335
S':'
asbag61
(g82
g63
NtRp3336
(dp3337
g66
(dp3338
sg75
g3323
sg68
(lp3339
g61
(g62
g63
NtRp3340
(dp3341
g66
(dp3342
g74
I4
ssg75
g3336
sg68
(lp3343
S'STEK7eC4EtnG0BizWtI9WOHdBGEa36kc'
p3344
asbasbasbag61
(g77
g63
NtRp3345
(dp3346
g66
(dp3347
sg75
g3297
sg68
(lp3348
g61
(g82
g63
NtRp3349
(dp3350
g66
(dp3351
g86
g87
ssg75
g3345
sg68
(lp3352
S'oauth_token_secret'
p3353
asbag61
(g82
g63
NtRp3354
(dp3355
g66
(dp3356
g93
g94
ssg75
g3345
sg68
(lp3357
S':'
asbag61
(g82
g63
NtRp3358
(dp3359
g66
(dp3360
sg75
g3345
sg68
(lp3361
g61
(g62
g63
NtRp3362
(dp3363
g66
(dp3364
g74
I4
ssg75
g3358
sg68
(lp3365
S'O24WT0HzSfxecz7A9dMfbl5UFHH4PpLp'
p3366
asbasbasbasbasbasbasbasbasbsS'etype'
p3367
S"<class 'pysqlite2.dbapi2.OperationalError'>"
p3368
sS'date'
p3369
S'Sat May  9 18:27:10 2015'
p3370
sS'response'
p3371
g61
(g62
g63
NtRp3372
(dp3373
g66
(dp3374
sg68
(lp3375
g61
(g70
g63
NtRp3376
(dp3377
g66
(dp3378
g74
I5
ssg75
Nsg68
(lp3379
g61
(g77
g63
NtRp3380
(dp3381
g66
(dp3382
sg75
g3376
sg68
(lp3383
g61
(g82
g63
NtRp3384
(dp3385
g66
(dp3386
g86
g87
ssg75
g3380
sg68
(lp3387
g159
asbag61
(g82
g63
NtRp3388
(dp3389
g66
(dp3390
g93
g94
ssg75
g3380
sg68
(lp3391
S':'
asbag61
(g82
g63
NtRp3392
(dp3393
g66
(dp3394
sg75
g3380
sg68
(lp3395
g61
(g62
g63
NtRp3396
(dp3397
g66
(dp3398
g74
I5
ssg75
g3392
sg68
(lp3399
S'<cStringIO.StringO object at 0x7f76b8cd4df8>'
p3400
asbasbasbag61
(g77
g63
NtRp3401
(dp3402
g66
(dp3403
sg75
g3376
sg68
(lp3404
g61
(g82
g63
NtRp3405
(dp3406
g66
(dp3407
g86
g87
ssg75
g3401
sg68
(lp3408
g225
asbag61
(g82
g63
NtRp3409
(dp3410
g66
(dp3411
g93
g94
ssg75
g3401
sg68
(lp3412
S':'
asbag61
(g82
g63
NtRp3413
(dp3414
g66
(dp3415
sg75
g3401
sg68
(lp3416
g61
(g62
g63
NtRp3417
(dp3418
g66
(dp3419
g74
I5
ssg75
g3413
sg68
(lp3420
g61
(g70
g63
NtRp3421
(dp3422
g66
(dp3423
g74
I4
ssg75
Nsg68
(lp3424
g61
(g77
g63
NtRp3425
(dp3426
g66
(dp3427
sg75
g3421
sg68
(lp3428
g61
(g82
g63
NtRp3429
(dp3430
g66
(dp3431
g86
g87
ssg75
g3425
sg68
(lp3432
S'session_id_newsapp'
p3433
asbag61
(g82
g63
NtRp3434
(dp3435
g66
(dp3436
g93
g94
ssg75
g3425
sg68
(lp3437
S':'
asbag61
(g82
g63
NtRp3438
(dp3439
g66
(dp3440
sg75
g3425
sg68
(lp3441
g61
(g62
g63
NtRp3442
(dp3443
g66
(dp3444
g74
I4
ssg75
g3438
sg68
(lp3445
g61
(g70
g63
NtRp3446
(dp3447
g66
(dp3448
g74
I3
ssg75
Nsg68
(lp3449
g61
(g77
g63
NtRp3450
(dp3451
g66
(dp3452
sg75
g3446
sg68
(lp3453
g61
(g82
g63
NtRp3454
(dp3455
g66
(dp3456
g86
g87
ssg75
g3450
sg68
(lp3457
g275
asbag61
(g82
g63
NtRp3458
(dp3459
g66
(dp3460
g93
g94
ssg75
g3450
sg68
(lp3461
S':'
asbag61
(g82
g63
NtRp3462
(dp3463
g66
(dp3464
sg75
g3450
sg68
(lp3465
g61
(g62
g63
NtRp3466
(dp3467
g66
(dp3468
g74
I3
ssg75
g3462
sg68
(lp3469
S''
asbasbasbag61
(g77
g63
NtRp3470
(dp3471
g66
(dp3472
sg75
g3446
sg68
(lp3473
g61
(g82
g63
NtRp3474
(dp3475
g66
(dp3476
g86
g87
ssg75
g3470
sg68
(lp3477
g296
asbag61
(g82
g63
NtRp3478
(dp3479
g66
(dp3480
g93
g94
ssg75
g3470
sg68
(lp3481
S':'
asbag61
(g82
g63
NtRp3482
(dp3483
g66
(dp3484
sg75
g3470
sg68
(lp3485
g61
(g62
g63
NtRp3486
(dp3487
g66
(dp3488
g74
I3
ssg75
g3482
sg68
(lp3489
S''
asbasbasbag61
(g77
g63
NtRp3490
(dp3491
g66
(dp3492
sg75
g3446
sg68
(lp3493
g61
(g82
g63
NtRp3494
(dp3495
g66
(dp3496
g86
g87
ssg75
g3490
sg68
(lp3497
g317
asbag61
(g82
g63
NtRp3498
(dp3499
g66
(dp3500
g93
g94
ssg75
g3490
sg68
(lp3501
S':'
asbag61
(g82
g63
NtRp3502
(dp3503
g66
(dp3504
sg75
g3490
sg68
(lp3505
g61
(g62
g63
NtRp3506
(dp3507
g66
(dp3508
g74
I3
ssg75
g3502
sg68
(lp3509
S''
asbasbasbag61
(g77
g63
NtRp3510
(dp3511
g66
(dp3512
sg75
g3446
sg68
(lp3513
g61
(g82
g63
NtRp3514
(dp3515
g66
(dp3516
g86
g87
ssg75
g3510
sg68
(lp3517
g338
asbag61
(g82
g63
NtRp3518
(dp3519
g66
(dp3520
g93
g94
ssg75
g3510
sg68
(lp3521
S':'
asbag61
(g82
g63
NtRp3522
(dp3523
g66
(dp3524
sg75
g3510
sg68
(lp3525
g61
(g62
g63
NtRp3526
(dp3527
g66
(dp3528
g74
I3
ssg75
g3522
sg68
(lp3529
S''
asbasbasbag61
(g77
g63
NtRp3530
(dp3531
g66
(dp3532
sg75
g3446
sg68
(lp3533
g61
(g82
g63
NtRp3534
(dp3535
g66
(dp3536
g86
g87
ssg75
g3530
sg68
(lp3537
g359
asbag61
(g82
g63
NtRp3538
(dp3539
g66
(dp3540
g93
g94
ssg75
g3530
sg68
(lp3541
S':'
asbag61
(g82
g63
NtRp3542
(dp3543
g66
(dp3544
sg75
g3530
sg68
(lp3545
g61
(g62
g63
NtRp3546
(dp3547
g66
(dp3548
g74
I3
ssg75
g3542
sg68
(lp3549
S''
asbasbasbag61
(g77
g63
NtRp3550
(dp3551
g66
(dp3552
sg75
g3446
sg68
(lp3553
g61
(g82
g63
NtRp3554
(dp3555
g66
(dp3556
g86
g87
ssg75
g3550
sg68
(lp3557
g380
asbag61
(g82
g63
NtRp3558
(dp3559
g66
(dp3560
g93
g94
ssg75
g3550
sg68
(lp3561
S':'
asbag61
(g82
g63
NtRp3562
(dp3563
g66
(dp3564
sg75
g3550
sg68
(lp3565
g61
(g62
g63
NtRp3566
(dp3567
g66
(dp3568
g74
I3
ssg75
g3562
sg68
(lp3569
S'/'
asbasbasbag61
(g77
g63
NtRp3570
(dp3571
g66
(dp3572
sg75
g3446
sg68
(lp3573
g61
(g82
g63
NtRp3574
(dp3575
g66
(dp3576
g86
g87
ssg75
g3570
sg68
(lp3577
g401
asbag61
(g82
g63
NtRp3578
(dp3579
g66
(dp3580
g93
g94
ssg75
g3570
sg68
(lp3581
S':'
asbag61
(g82
g63
NtRp3582
(dp3583
g66
(dp3584
sg75
g3570
sg68
(lp3585
g61
(g62
g63
NtRp3586
(dp3587
g66
(dp3588
g74
I3
ssg75
g3582
sg68
(lp3589
S''
asbasbasbag61
(g77
g63
NtRp3590
(dp3591
g66
(dp3592
sg75
g3446
sg68
(lp3593
g61
(g82
g63
NtRp3594
(dp3595
g66
(dp3596
g86
g87
ssg75
g3590
sg68
(lp3597
g422
asbag61
(g82
g63
NtRp3598
(dp3599
g66
(dp3600
g93
g94
ssg75
g3590
sg68
(lp3601
S':'
asbag61
(g82
g63
NtRp3602
(dp3603
g66
(dp3604
sg75
g3590
sg68
(lp3605
g61
(g62
g63
NtRp3606
(dp3607
g66
(dp3608
g74
I3
ssg75
g3602
sg68
(lp3609
S''
asbasbasbasbasbasbasbasbasbasbasbag61
(g77
g63
NtRp3610
(dp3611
g66
(dp3612
sg75
g3376
sg68
(lp3613
g61
(g82
g63
NtRp3614
(dp3615
g66
(dp3616
g86
g87
ssg75
g3610
sg68
(lp3617
S'delimiters'
p3618
asbag61
(g82
g63
NtRp3619
(dp3620
g66
(dp3621
g93
g94
ssg75
g3610
sg68
(lp3622
S':'
asbag61
(g82
g63
NtRp3623
(dp3624
g66
(dp3625
sg75
g3610
sg68
(lp3626
g61
(g62
g63
NtRp3627
(dp3628
g66
(dp3629
g74
I5
ssg75
g3623
sg68
(lp3630
g61
(g70
g63
NtRp3631
(dp3632
g66
(dp3633
g74
I4
ssg75
Nsg68
(lp3634
g61
(g77
g63
NtRp3635
(dp3636
g66
(dp3637
sg75
g3631
sg68
(lp3638
g61
(g82
g63
NtRp3639
(dp3640
g66
(dp3641
sg75
g3635
sg68
(lp3642
g61
(g62
g63
NtRp3643
(dp3644
g66
(dp3645
g74
I4
ssg75
g3639
sg68
(lp3646
S'{{'
p3647
asbasbasbag61
(g77
g63
NtRp3648
(dp3649
g66
(dp3650
sg75
g3631
sg68
(lp3651
g61
(g82
g63
NtRp3652
(dp3653
g66
(dp3654
sg75
g3648
sg68
(lp3655
g61
(g62
g63
NtRp3656
(dp3657
g66
(dp3658
g74
I4
ssg75
g3652
sg68
(lp3659
S'}}'
p3660
asbasbasbasbasbasbasbag61
(g77
g63
NtRp3661
(dp3662
g66
(dp3663
sg75
g3376
sg68
(lp3664
g61
(g82
g63
NtRp3665
(dp3666
g66
(dp3667
g86
g87
ssg75
g3661
sg68
(lp3668
S'files'
p3669
asbag61
(g82
g63
NtRp3670
(dp3671
g66
(dp3672
g93
g94
ssg75
g3661
sg68
(lp3673
S':'
asbag61
(g82
g63
NtRp3674
(dp3675
g66
(dp3676
sg75
g3661
sg68
(lp3677
g61
(g62
g63
NtRp3678
(dp3679
g66
(dp3680
g74
I5
ssg75
g3674
sg68
(lp3681
g61
(g70
g63
NtRp3682
(dp3683
g66
(dp3684
g74
I4
ssg75
Nsg68
(lp3685
sbasbasbasbag61
(g77
g63
NtRp3686
(dp3687
g66
(dp3688
sg75
g3376
sg68
(lp3689
g61
(g82
g63
NtRp3690
(dp3691
g66
(dp3692
g86
g87
ssg75
g3686
sg68
(lp3693
S'flash'
p3694
asbag61
(g82
g63
NtRp3695
(dp3696
g66
(dp3697
g93
g94
ssg75
g3686
sg68
(lp3698
S':'
asbag61
(g82
g63
NtRp3699
(dp3700
g66
(dp3701
sg75
g3686
sg68
(lp3702
g61
(g62
g63
NtRp3703
(dp3704
g66
(dp3705
g74
I5
ssg75
g3699
sg68
(lp3706
S''
asbasbasbag61
(g77
g63
NtRp3707
(dp3708
g66
(dp3709
sg75
g3376
sg68
(lp3710
g61
(g82
g63
NtRp3711
(dp3712
g66
(dp3713
g86
g87
ssg75
g3707
sg68
(lp3714
S'generic_patterns'
p3715
asbag61
(g82
g63
NtRp3716
(dp3717
g66
(dp3718
g93
g94
ssg75
g3707
sg68
(lp3719
S':'
asbag61
(g82
g63
NtRp3720
(dp3721
g66
(dp3722
sg75
g3707
sg68
(lp3723
g61
(g62
g63
NtRp3724
(dp3725
g66
(dp3726
g74
I5
ssg75
g3720
sg68
(lp3727
g61
(g70
g63
NtRp3728
(dp3729
g66
(dp3730
g74
I4
ssg75
Nsg68
(lp3731
g61
(g77
g63
NtRp3732
(dp3733
g66
(dp3734
sg75
g3728
sg68
(lp3735
g61
(g82
g63
NtRp3736
(dp3737
g66
(dp3738
sg75
g3732
sg68
(lp3739
g61
(g62
g63
NtRp3740
(dp3741
g66
(dp3742
g74
I4
ssg75
g3736
sg68
(lp3743
S'*'
asbasbasbasbasbasbasbag61
(g77
g63
NtRp3744
(dp3745
g66
(dp3746
sg75
g3376
sg68
(lp3747
g61
(g82
g63
NtRp3748
(dp3749
g66
(dp3750
g86
g87
ssg75
g3744
sg68
(lp3751
S'headers'
p3752
asbag61
(g82
g63
NtRp3753
(dp3754
g66
(dp3755
g93
g94
ssg75
g3744
sg68
(lp3756
S':'
asbag61
(g82
g63
NtRp3757
(dp3758
g66
(dp3759
sg75
g3744
sg68
(lp3760
g61
(g62
g63
NtRp3761
(dp3762
g66
(dp3763
g74
I5
ssg75
g3757
sg68
(lp3764
g61
(g70
g63
NtRp3765
(dp3766
g66
(dp3767
g74
I4
ssg75
Nsg68
(lp3768
g61
(g77
g63
NtRp3769
(dp3770
g66
(dp3771
sg75
g3765
sg68
(lp3772
g61
(g82
g63
NtRp3773
(dp3774
g66
(dp3775
g86
g87
ssg75
g3769
sg68
(lp3776
S'Cache-Control'
p3777
asbag61
(g82
g63
NtRp3778
(dp3779
g66
(dp3780
g93
g94
ssg75
g3769
sg68
(lp3781
S':'
asbag61
(g82
g63
NtRp3782
(dp3783
g66
(dp3784
sg75
g3769
sg68
(lp3785
g61
(g62
g63
NtRp3786
(dp3787
g66
(dp3788
g74
I4
ssg75
g3782
sg68
(lp3789
S'no-store, no-cache, must-revalidate, post-check=0, pre-check=0'
p3790
asbasbasbag61
(g77
g63
NtRp3791
(dp3792
g66
(dp3793
sg75
g3765
sg68
(lp3794
g61
(g82
g63
NtRp3795
(dp3796
g66
(dp3797
g86
g87
ssg75
g3791
sg68
(lp3798
S'Content-Type'
p3799
asbag61
(g82
g63
NtRp3800
(dp3801
g66
(dp3802
g93
g94
ssg75
g3791
sg68
(lp3803
S':'
asbag61
(g82
g63
NtRp3804
(dp3805
g66
(dp3806
sg75
g3791
sg68
(lp3807
g61
(g62
g63
NtRp3808
(dp3809
g66
(dp3810
g74
I4
ssg75
g3804
sg68
(lp3811
S'text/html; charset=utf-8'
p3812
asbasbasbag61
(g77
g63
NtRp3813
(dp3814
g66
(dp3815
sg75
g3765
sg68
(lp3816
g61
(g82
g63
NtRp3817
(dp3818
g66
(dp3819
g86
g87
ssg75
g3813
sg68
(lp3820
S'Expires'
p3821
asbag61
(g82
g63
NtRp3822
(dp3823
g66
(dp3824
g93
g94
ssg75
g3813
sg68
(lp3825
S':'
asbag61
(g82
g63
NtRp3826
(dp3827
g66
(dp3828
sg75
g3813
sg68
(lp3829
g61
(g62
g63
NtRp3830
(dp3831
g66
(dp3832
g74
I4
ssg75
g3826
sg68
(lp3833
S'Sat, 09 May 2015 12:57:09 GMT'
p3834
asbasbasbag61
(g77
g63
NtRp3835
(dp3836
g66
(dp3837
sg75
g3765
sg68
(lp3838
g61
(g82
g63
NtRp3839
(dp3840
g66
(dp3841
g86
g87
ssg75
g3835
sg68
(lp3842
S'Pragma'
p3843
asbag61
(g82
g63
NtRp3844
(dp3845
g66
(dp3846
g93
g94
ssg75
g3835
sg68
(lp3847
S':'
asbag61
(g82
g63
NtRp3848
(dp3849
g66
(dp3850
sg75
g3835
sg68
(lp3851
g61
(g62
g63
NtRp3852
(dp3853
g66
(dp3854
g74
I4
ssg75
g3848
sg68
(lp3855
S'no-cache'
p3856
asbasbasbag61
(g77
g63
NtRp3857
(dp3858
g66
(dp3859
sg75
g3765
sg68
(lp3860
g61
(g82
g63
NtRp3861
(dp3862
g66
(dp3863
g86
g87
ssg75
g3857
sg68
(lp3864
S'X-Powered-By'
p3865
asbag61
(g82
g63
NtRp3866
(dp3867
g66
(dp3868
g93
g94
ssg75
g3857
sg68
(lp3869
S':'
asbag61
(g82
g63
NtRp3870
(dp3871
g66
(dp3872
sg75
g3857
sg68
(lp3873
g61
(g62
g63
NtRp3874
(dp3875
g66
(dp3876
g74
I4
ssg75
g3870
sg68
(lp3877
S'web2py'
p3878
asbasbasbasbasbasbasbag61
(g77
g63
NtRp3879
(dp3880
g66
(dp3881
sg75
g3376
sg68
(lp3882
g61
(g82
g63
NtRp3883
(dp3884
g66
(dp3885
g86
g87
ssg75
g3879
sg68
(lp3886
S'menu'
p3887
asbag61
(g82
g63
NtRp3888
(dp3889
g66
(dp3890
g93
g94
ssg75
g3879
sg68
(lp3891
S':'
asbag61
(g82
g63
NtRp3892
(dp3893
g66
(dp3894
sg75
g3879
sg68
(lp3895
g61
(g62
g63
NtRp3896
(dp3897
g66
(dp3898
g74
I5
ssg75
g3892
sg68
(lp3899
g61
(g70
g63
NtRp3900
(dp3901
g66
(dp3902
g74
I4
ssg75
Nsg68
(lp3903
g61
(g77
g63
NtRp3904
(dp3905
g66
(dp3906
sg75
g3900
sg68
(lp3907
g61
(g82
g63
NtRp3908
(dp3909
g66
(dp3910
sg75
g3904
sg68
(lp3911
g61
(g62
g63
NtRp3912
(dp3913
g66
(dp3914
g74
I4
ssg75
g3908
sg68
(lp3915
g61
(g70
g63
NtRp3916
(dp3917
g66
(dp3918
g74
I3
ssg75
Nsg68
(lp3919
g61
(g77
g63
NtRp3920
(dp3921
g66
(dp3922
sg75
g3916
sg68
(lp3923
g61
(g82
g63
NtRp3924
(dp3925
g66
(dp3926
sg75
g3920
sg68
(lp3927
g61
(g62
g63
NtRp3928
(dp3929
g66
(dp3930
g74
I3
ssg75
g3924
sg68
(lp3931
cgluon.languages
lazyT_unpickle
p3932
(S't\x04\x00\x00\x00Home'
tRp3933
asbasbasbag61
(g77
g63
NtRp3934
(dp3935
g66
(dp3936
sg75
g3916
sg68
(lp3937
g61
(g82
g63
NtRp3938
(dp3939
g66
(dp3940
sg75
g3934
sg68
(lp3941
g61
(g62
g63
NtRp3942
(dp3943
g66
(dp3944
g74
I3
ssg75
g3938
sg68
(lp3945
g104
asbasbasbag61
(g77
g63
NtRp3946
(dp3947
g66
(dp3948
sg75
g3916
sg68
(lp3949
g61
(g82
g63
NtRp3950
(dp3951
g66
(dp3952
sg75
g3946
sg68
(lp3953
g61
(g62
g63
NtRp3954
(dp3955
g66
(dp3956
g74
I3
ssg75
g3950
sg68
(lp3957
S'/newsapp/default/index'
p3958
asbasbasbag61
(g77
g63
NtRp3959
(dp3960
g66
(dp3961
sg75
g3916
sg68
(lp3962
g61
(g82
g63
NtRp3963
(dp3964
g66
(dp3965
sg75
g3959
sg68
(lp3966
g61
(g62
g63
NtRp3967
(dp3968
g66
(dp3969
g74
I3
ssg75
g3963
sg68
(lp3970
g61
(g70
g63
NtRp3971
(dp3972
g66
(dp3973
g74
I2
ssg75
Nsg68
(lp3974
sbasbasbasbasbasbasbasbag61
(g77
g63
NtRp3975
(dp3976
g66
(dp3977
sg75
g3900
sg68
(lp3978
g61
(g82
g63
NtRp3979
(dp3980
g66
(dp3981
sg75
g3975
sg68
(lp3982
g61
(g62
g63
NtRp3983
(dp3984
g66
(dp3985
g74
I4
ssg75
g3979
sg68
(lp3986
g61
(g70
g63
NtRp3987
(dp3988
g66
(dp3989
g74
I3
ssg75
Nsg68
(lp3990
g61
(g77
g63
NtRp3991
(dp3992
g66
(dp3993
sg75
g3987
sg68
(lp3994
g61
(g82
g63
NtRp3995
(dp3996
g66
(dp3997
sg75
g3991
sg68
(lp3998
g61
(g62
g63
NtRp3999
(dp4000
g66
(dp4001
g74
I3
ssg75
g3995
sg68
(lp4002
g61
(cgluon.html
SPAN
p4003
g63
NtRp4004
(dp4005
g66
(dp4006
g86
S'color:yellow'
p4007
ssg75
Nsg68
(lp4008
g3878
asbasbasbasbag61
(g77
g63
NtRp4009
(dp4010
g66
(dp4011
sg75
g3987
sg68
(lp4012
g61
(g82
g63
NtRp4013
(dp4014
g66
(dp4015
sg75
g4009
sg68
(lp4016
g61
(g62
g63
NtRp4017
(dp4018
g66
(dp4019
g74
I3
ssg75
g4013
sg68
(lp4020
g104
asbasbasbag61
(g77
g63
NtRp4021
(dp4022
g66
(dp4023
sg75
g3987
sg68
(lp4024
g61
(g82
g63
NtRp4025
(dp4026
g66
(dp4027
sg75
g4021
sg68
(lp4028
g61
(g62
g63
NtRp4029
(dp4030
g66
(dp4031
g74
I3
ssg75
g4025
sg68
(lp4032
S'None'
p4033
asbasbasbag61
(g77
g63
NtRp4034
(dp4035
g66
(dp4036
sg75
g3987
sg68
(lp4037
g61
(g82
g63
NtRp4038
(dp4039
g66
(dp4040
sg75
g4034
sg68
(lp4041
g61
(g62
g63
NtRp4042
(dp4043
g66
(dp4044
g74
I3
ssg75
g4038
sg68
(lp4045
g61
(g70
g63
NtRp4046
(dp4047
g66
(dp4048
g74
I2
ssg75
Nsg68
(lp4049
g61
(g77
g63
NtRp4050
(dp4051
g66
(dp4052
sg75
g4046
sg68
(lp4053
g61
(g82
g63
NtRp4054
(dp4055
g66
(dp4056
sg75
g4050
sg68
(lp4057
g61
(g62
g63
NtRp4058
(dp4059
g66
(dp4060
g74
I2
ssg75
g4054
sg68
(lp4061
g61
(g70
g63
NtRp4062
(dp4063
g66
(dp4064
g74
I1
ssg75
Nsg68
(lp4065
g61
(g77
g63
NtRp4066
(dp4067
g66
(dp4068
sg75
g4062
sg68
(lp4069
g61
(g82
g63
NtRp4070
(dp4071
g66
(dp4072
sg75
g4066
sg68
(lp4073
g61
(g62
g63
NtRp4074
(dp4075
g66
(dp4076
g74
I1
ssg75
g4070
sg68
(lp4077
g3932
(S's\x08\x00\x00\x00My Sites'
tRp4078
asbasbasbag61
(g77
g63
NtRp4079
(dp4080
g66
(dp4081
sg75
g4062
sg68
(lp4082
g61
(g82
g63
NtRp4083
(dp4084
g66
(dp4085
sg75
g4079
sg68
(lp4086
g61
(g62
g63
NtRp4087
(dp4088
g66
(dp4089
g74
I1
ssg75
g4083
sg68
(lp4090
I00
asbasbasbag61
(g77
g63
NtRp4091
(dp4092
g66
(dp4093
sg75
g4062
sg68
(lp4094
g61
(g82
g63
NtRp4095
(dp4096
g66
(dp4097
sg75
g4091
sg68
(lp4098
g61
(g62
g63
NtRp4099
(dp4100
g66
(dp4101
g74
I1
ssg75
g4095
sg68
(lp4102
S'/admin/default/site'
p4103
asbasbasbasbasbasbasbag61
(g77
g63
NtRp4104
(dp4105
g66
(dp4106
sg75
g4046
sg68
(lp4107
g61
(g82
g63
NtRp4108
(dp4109
g66
(dp4110
sg75
g4104
sg68
(lp4111
g61
(g62
g63
NtRp4112
(dp4113
g66
(dp4114
g74
I2
ssg75
g4108
sg68
(lp4115
g61
(g70
g63
NtRp4116
(dp4117
g66
(dp4118
g74
I1
ssg75
Nsg68
(lp4119
g61
(g77
g63
NtRp4120
(dp4121
g66
(dp4122
sg75
g4116
sg68
(lp4123
g61
(g82
g63
NtRp4124
(dp4125
g66
(dp4126
sg75
g4120
sg68
(lp4127
g61
(g62
g63
NtRp4128
(dp4129
g66
(dp4130
g74
I1
ssg75
g4124
sg68
(lp4131
g3932
(S's\x08\x00\x00\x00This App'
tRp4132
asbasbasbag61
(g77
g63
NtRp4133
(dp4134
g66
(dp4135
sg75
g4116
sg68
(lp4136
g61
(g82
g63
NtRp4137
(dp4138
g66
(dp4139
sg75
g4133
sg68
(lp4140
g61
(g62
g63
NtRp4141
(dp4142
g66
(dp4143
g74
I1
ssg75
g4137
sg68
(lp4144
I00
asbasbasbag61
(g77
g63
NtRp4145
(dp4146
g66
(dp4147
sg75
g4116
sg68
(lp4148
g61
(g82
g63
NtRp4149
(dp4150
g66
(dp4151
sg75
g4145
sg68
(lp4152
g61
(g62
g63
NtRp4153
(dp4154
g66
(dp4155
g74
I1
ssg75
g4149
sg68
(lp4156
S'/admin/default/design/newsapp'
p4157
asbasbasbag61
(g77
g63
NtRp4158
(dp4159
g66
(dp4160
sg75
g4116
sg68
(lp4161
g61
(g82
g63
NtRp4162
(dp4163
g66
(dp4164
sg75
g4158
sg68
(lp4165
g61
(g62
g63
NtRp4166
(dp4167
g66
(dp4168
g74
I1
ssg75
g4162
sg68
(lp4169
(lp4170
(g3932
(S't\n\x00\x00\x00Controller'
tRp4171
I00
S'/admin/default/edit/newsapp/controllers/default.py'
tp4172
a(g3932
(S't\x04\x00\x00\x00View'
tRp4173
I00
S'/admin/default/edit/newsapp/views/default/permission.html'
tp4174
a(g3932
(S't\x06\x00\x00\x00Layout'
tRp4175
I00
S'/admin/default/edit/newsapp/views/layout.html'
tp4176
a(g3932
(S't\n\x00\x00\x00Stylesheet'
tRp4177
I00
S'/admin/default/edit/newsapp/static/css/web2py.css'
tp4178
a(g3932
(S's\x08\x00\x00\x00DB Model'
tRp4179
I00
S'/admin/default/edit/newsapp/models/db.py'
tp4180
a(g3932
(S's\n\x00\x00\x00Menu Model'
tRp4181
I00
S'/admin/default/edit/newsapp/models/menu.py'
tp4182
a(g3932
(S't\x08\x00\x00\x00Database'
tRp4183
I00
S'/newsapp/appadmin/index'
tp4184
a(g3932
(S't\x06\x00\x00\x00Errors'
tRp4185
I00
S'/admin/default/errors/newsapp'
tp4186
a(g3932
(S't\x05\x00\x00\x00About'
tRp4187
I00
S'/admin/default/about/newsapp'
tp4188
aasbasbasbasbasbasbasbag61
(g77
g63
NtRp4189
(dp4190
g66
(dp4191
sg75
g4046
sg68
(lp4192
g61
(g82
g63
NtRp4193
(dp4194
g66
(dp4195
sg75
g4189
sg68
(lp4196
g61
(g62
g63
NtRp4197
(dp4198
g66
(dp4199
g74
I2
ssg75
g4193
sg68
(lp4200
g61
(g70
g63
NtRp4201
(dp4202
g66
(dp4203
g74
I1
ssg75
Nsg68
(lp4204
g61
(g77
g63
NtRp4205
(dp4206
g66
(dp4207
sg75
g4201
sg68
(lp4208
g61
(g82
g63
NtRp4209
(dp4210
g66
(dp4211
sg75
g4205
sg68
(lp4212
g61
(g62
g63
NtRp4213
(dp4214
g66
(dp4215
g74
I1
ssg75
g4209
sg68
(lp4216
S'web2py.com'
p4217
asbasbasbag61
(g77
g63
NtRp4218
(dp4219
g66
(dp4220
sg75
g4201
sg68
(lp4221
g61
(g82
g63
NtRp4222
(dp4223
g66
(dp4224
sg75
g4218
sg68
(lp4225
g61
(g62
g63
NtRp4226
(dp4227
g66
(dp4228
g74
I1
ssg75
g4222
sg68
(lp4229
I00
asbasbasbag61
(g77
g63
NtRp4230
(dp4231
g66
(dp4232
sg75
g4201
sg68
(lp4233
g61
(g82
g63
NtRp4234
(dp4235
g66
(dp4236
sg75
g4230
sg68
(lp4237
g61
(g62
g63
NtRp4238
(dp4239
g66
(dp4240
g74
I1
ssg75
g4234
sg68
(lp4241
S'http://www.web2py.com'
p4242
asbasbasbag61
(g77
g63
NtRp4243
(dp4244
g66
(dp4245
sg75
g4201
sg68
(lp4246
g61
(g82
g63
NtRp4247
(dp4248
g66
(dp4249
sg75
g4243
sg68
(lp4250
g61
(g62
g63
NtRp4251
(dp4252
g66
(dp4253
g74
I1
ssg75
g4247
sg68
(lp4254
(lp4255
(g3932
(S't\x08\x00\x00\x00Download'
tRp4256
I00
S'http://www.web2py.com/examples/default/download'
p4257
tp4258
a(g3932
(S't\x07\x00\x00\x00Support'
tRp4259
I00
S'http://www.web2py.com/examples/default/support'
p4260
tp4261
a(g3932
(S't\x04\x00\x00\x00Demo'
tRp4262
I00
S'http://web2py.com/demo_admin'
p4263
tp4264
a(g3932
(S's\x0e\x00\x00\x00Quick Examples'
tRp4265
I00
S'http://web2py.com/examples/default/examples'
p4266
tp4267
a(g3932
(S't\x03\x00\x00\x00FAQ'
tRp4268
I00
S'http://web2py.com/AlterEgo'
p4269
tp4270
a(g3932
(S't\x06\x00\x00\x00Videos'
tRp4271
I00
S'http://www.web2py.com/examples/default/videos/'
p4272
tp4273
a(g3932
(S's\x11\x00\x00\x00Free Applications'
tRp4274
I00
S'http://web2py.com/appliances'
p4275
tp4276
a(g3932
(S't\x07\x00\x00\x00Plugins'
tRp4277
I00
S'http://web2py.com/plugins'
p4278
tp4279
a(g3932
(S't\x07\x00\x00\x00Layouts'
tRp4280
I00
S'http://web2py.com/layouts'
p4281
tp4282
a(g3932
(S't\x07\x00\x00\x00Recipes'
tRp4283
I00
S'http://web2pyslices.com/'
p4284
tp4285
a(g3932
(S't\x08\x00\x00\x00Semantic'
tRp4286
I00
S'http://web2py.com/semantic'
p4287
tp4288
aasbasbasbasbasbasbasbag61
(g77
g63
NtRp4289
(dp4290
g66
(dp4291
sg75
g4046
sg68
(lp4292
g61
(g82
g63
NtRp4293
(dp4294
g66
(dp4295
sg75
g4289
sg68
(lp4296
g61
(g62
g63
NtRp4297
(dp4298
g66
(dp4299
g74
I2
ssg75
g4293
sg68
(lp4300
g61
(g70
g63
NtRp4301
(dp4302
g66
(dp4303
g74
I1
ssg75
Nsg68
(lp4304
g61
(g77
g63
NtRp4305
(dp4306
g66
(dp4307
sg75
g4301
sg68
(lp4308
g61
(g82
g63
NtRp4309
(dp4310
g66
(dp4311
sg75
g4305
sg68
(lp4312
g61
(g62
g63
NtRp4313
(dp4314
g66
(dp4315
g74
I1
ssg75
g4309
sg68
(lp4316
g3932
(S't\r\x00\x00\x00Documentation'
tRp4317
asbasbasbag61
(g77
g63
NtRp4318
(dp4319
g66
(dp4320
sg75
g4301
sg68
(lp4321
g61
(g82
g63
NtRp4322
(dp4323
g66
(dp4324
sg75
g4318
sg68
(lp4325
g61
(g62
g63
NtRp4326
(dp4327
g66
(dp4328
g74
I1
ssg75
g4322
sg68
(lp4329
I00
asbasbasbag61
(g77
g63
NtRp4330
(dp4331
g66
(dp4332
sg75
g4301
sg68
(lp4333
g61
(g82
g63
NtRp4334
(dp4335
g66
(dp4336
sg75
g4330
sg68
(lp4337
g61
(g62
g63
NtRp4338
(dp4339
g66
(dp4340
g74
I1
ssg75
g4334
sg68
(lp4341
S'http://www.web2py.com/book'
p4342
asbasbasbag61
(g77
g63
NtRp4343
(dp4344
g66
(dp4345
sg75
g4301
sg68
(lp4346
g61
(g82
g63
NtRp4347
(dp4348
g66
(dp4349
sg75
g4343
sg68
(lp4350
g61
(g62
g63
NtRp4351
(dp4352
g66
(dp4353
g74
I1
ssg75
g4347
sg68
(lp4354
(lp4355
(g3932
(S't\x07\x00\x00\x00Preface'
tRp4356
I00
S'http://www.web2py.com/book/default/chapter/00'
p4357
tp4358
a(g3932
(S't\x0c\x00\x00\x00Introduction'
tRp4359
I00
S'http://www.web2py.com/book/default/chapter/01'
p4360
tp4361
a(g3932
(S't\x06\x00\x00\x00Python'
tRp4362
I00
S'http://www.web2py.com/book/default/chapter/02'
p4363
tp4364
a(g3932
(S't\x08\x00\x00\x00Overview'
tRp4365
I00
S'http://www.web2py.com/book/default/chapter/03'
p4366
tp4367
a(g3932
(S's\x08\x00\x00\x00The Core'
tRp4368
I00
S'http://www.web2py.com/book/default/chapter/04'
p4369
tp4370
a(g3932
(S's\t\x00\x00\x00The Views'
tRp4371
I00
S'http://www.web2py.com/book/default/chapter/05'
p4372
tp4373
a(g3932
(S't\x08\x00\x00\x00Database'
tRp4374
I00
S'http://www.web2py.com/book/default/chapter/06'
p4375
tp4376
a(g3932
(S's\x14\x00\x00\x00Forms and Validators'
tRp4377
I00
S'http://www.web2py.com/book/default/chapter/07'
p4378
tp4379
a(g3932
(S's\r\x00\x00\x00Email and SMS'
tRp4380
I00
S'http://www.web2py.com/book/default/chapter/08'
p4381
tp4382
a(g3932
(S's\x0e\x00\x00\x00Access Control'
tRp4383
I00
S'http://www.web2py.com/book/default/chapter/09'
p4384
tp4385
a(g3932
(S't\x08\x00\x00\x00Services'
tRp4386
I00
S'http://www.web2py.com/book/default/chapter/10'
p4387
tp4388
a(g3932
(S's\x0c\x00\x00\x00Ajax Recipes'
tRp4389
I00
S'http://www.web2py.com/book/default/chapter/11'
p4390
tp4391
a(g3932
(S's\x16\x00\x00\x00Components and Plugins'
tRp4392
I00
S'http://www.web2py.com/book/default/chapter/12'
p4393
tp4394
a(g3932
(S's\x12\x00\x00\x00Deployment Recipes'
tRp4395
I00
S'http://www.web2py.com/book/default/chapter/13'
p4396
tp4397
a(g3932
(S's\r\x00\x00\x00Other Recipes'
tRp4398
I00
S'http://www.web2py.com/book/default/chapter/14'
p4399
tp4400
a(g3932
(S's\r\x00\x00\x00Buy this book'
tRp4401
I00
S'http://stores.lulu.com/web2py'
p4402
tp4403
aasbasbasbasbasbasbasbag61
(g77
g63
NtRp4404
(dp4405
g66
(dp4406
sg75
g4046
sg68
(lp4407
g61
(g82
g63
NtRp4408
(dp4409
g66
(dp4410
sg75
g4404
sg68
(lp4411
g61
(g62
g63
NtRp4412
(dp4413
g66
(dp4414
g74
I2
ssg75
g4408
sg68
(lp4415
g61
(g70
g63
NtRp4416
(dp4417
g66
(dp4418
g74
I1
ssg75
Nsg68
(lp4419
g61
(g77
g63
NtRp4420
(dp4421
g66
(dp4422
sg75
g4416
sg68
(lp4423
g61
(g82
g63
NtRp4424
(dp4425
g66
(dp4426
sg75
g4420
sg68
(lp4427
g61
(g62
g63
NtRp4428
(dp4429
g66
(dp4430
g74
I1
ssg75
g4424
sg68
(lp4431
g3932
(S't\t\x00\x00\x00Community'
tRp4432
asbasbasbag61
(g77
g63
NtRp4433
(dp4434
g66
(dp4435
sg75
g4416
sg68
(lp4436
g61
(g82
g63
NtRp4437
(dp4438
g66
(dp4439
sg75
g4433
sg68
(lp4440
g61
(g62
g63
NtRp4441
(dp4442
g66
(dp4443
g74
I1
ssg75
g4437
sg68
(lp4444
I00
asbasbasbag61
(g77
g63
NtRp4445
(dp4446
g66
(dp4447
sg75
g4416
sg68
(lp4448
g61
(g82
g63
NtRp4449
(dp4450
g66
(dp4451
sg75
g4445
sg68
(lp4452
g61
(g62
g63
NtRp4453
(dp4454
g66
(dp4455
g74
I1
ssg75
g4449
sg68
(lp4456
Nasbasbasbag61
(g77
g63
NtRp4457
(dp4458
g66
(dp4459
sg75
g4416
sg68
(lp4460
g61
(g82
g63
NtRp4461
(dp4462
g66
(dp4463
sg75
g4457
sg68
(lp4464
g61
(g62
g63
NtRp4465
(dp4466
g66
(dp4467
g74
I1
ssg75
g4461
sg68
(lp4468
(lp4469
(g3932
(S't\x06\x00\x00\x00Groups'
tRp4470
I00
S'http://www.web2py.com/examples/default/usergroups'
p4471
tp4472
a(g3932
(S't\x07\x00\x00\x00Twitter'
tRp4473
I00
S'http://twitter.com/web2py'
p4474
tp4475
a(g3932
(S's\t\x00\x00\x00Live Chat'
tRp4476
I00
S'http://webchat.freenode.net/?channels=web2py'
p4477
tp4478
aasbasbasbasbasbasbasbag61
(g77
g63
NtRp4479
(dp4480
g66
(dp4481
sg75
g4046
sg68
(lp4482
g61
(g82
g63
NtRp4483
(dp4484
g66
(dp4485
sg75
g4479
sg68
(lp4486
g61
(g62
g63
NtRp4487
(dp4488
g66
(dp4489
g74
I2
ssg75
g4483
sg68
(lp4490
g61
(g70
g63
NtRp4491
(dp4492
g66
(dp4493
g74
I1
ssg75
Nsg68
(lp4494
g61
(g77
g63
NtRp4495
(dp4496
g66
(dp4497
sg75
g4491
sg68
(lp4498
g61
(g82
g63
NtRp4499
(dp4500
g66
(dp4501
sg75
g4495
sg68
(lp4502
g61
(g62
g63
NtRp4503
(dp4504
g66
(dp4505
g74
I1
ssg75
g4499
sg68
(lp4506
g3932
(S't\x07\x00\x00\x00Plugins'
tRp4507
asbasbasbag61
(g77
g63
NtRp4508
(dp4509
g66
(dp4510
sg75
g4491
sg68
(lp4511
g61
(g82
g63
NtRp4512
(dp4513
g66
(dp4514
sg75
g4508
sg68
(lp4515
g61
(g62
g63
NtRp4516
(dp4517
g66
(dp4518
g74
I1
ssg75
g4512
sg68
(lp4519
I00
asbasbasbag61
(g77
g63
NtRp4520
(dp4521
g66
(dp4522
sg75
g4491
sg68
(lp4523
g61
(g82
g63
NtRp4524
(dp4525
g66
(dp4526
sg75
g4520
sg68
(lp4527
g61
(g62
g63
NtRp4528
(dp4529
g66
(dp4530
g74
I1
ssg75
g4524
sg68
(lp4531
Nasbasbasbag61
(g77
g63
NtRp4532
(dp4533
g66
(dp4534
sg75
g4491
sg68
(lp4535
g61
(g82
g63
NtRp4536
(dp4537
g66
(dp4538
sg75
g4532
sg68
(lp4539
g61
(g62
g63
NtRp4540
(dp4541
g66
(dp4542
g74
I1
ssg75
g4536
sg68
(lp4543
(lp4544
(S'plugin_wiki'
p4545
I00
S'http://web2py.com/examples/default/download'
p4546
tp4547
a(g3932
(S's\r\x00\x00\x00Other Plugins'
tRp4548
I00
g4278
tp4549
a(g3932
(S's\x0e\x00\x00\x00Layout Plugins'
tRp4550
I00
g4281
tp4551
aasbasbasbasbasbasbasbasbasbasbasbasbasbasbasbasbasbasbasbag61
(g77
g63
NtRp4552
(dp4553
g66
(dp4554
sg75
g3376
sg68
(lp4555
g61
(g82
g63
NtRp4556
(dp4557
g66
(dp4558
g86
g87
ssg75
g4552
sg68
(lp4559
S'meta'
p4560
asbag61
(g82
g63
NtRp4561
(dp4562
g66
(dp4563
g93
g94
ssg75
g4552
sg68
(lp4564
S':'
asbag61
(g82
g63
NtRp4565
(dp4566
g66
(dp4567
sg75
g4552
sg68
(lp4568
g61
(g62
g63
NtRp4569
(dp4570
g66
(dp4571
g74
I5
ssg75
g4565
sg68
(lp4572
g61
(g70
g63
NtRp4573
(dp4574
g66
(dp4575
g74
I4
ssg75
Nsg68
(lp4576
g61
(g77
g63
NtRp4577
(dp4578
g66
(dp4579
sg75
g4573
sg68
(lp4580
g61
(g82
g63
NtRp4581
(dp4582
g66
(dp4583
g86
g87
ssg75
g4577
sg68
(lp4584
S'author'
p4585
asbag61
(g82
g63
NtRp4586
(dp4587
g66
(dp4588
g93
g94
ssg75
g4577
sg68
(lp4589
S':'
asbag61
(g82
g63
NtRp4590
(dp4591
g66
(dp4592
sg75
g4577
sg68
(lp4593
g61
(g62
g63
NtRp4594
(dp4595
g66
(dp4596
g74
I4
ssg75
g4590
sg68
(lp4597
S'Your Name <you@example.com>'
p4598
asbasbasbag61
(g77
g63
NtRp4599
(dp4600
g66
(dp4601
sg75
g4573
sg68
(lp4602
g61
(g82
g63
NtRp4603
(dp4604
g66
(dp4605
g86
g87
ssg75
g4599
sg68
(lp4606
S'copyright'
p4607
asbag61
(g82
g63
NtRp4608
(dp4609
g66
(dp4610
g93
g94
ssg75
g4599
sg68
(lp4611
S':'
asbag61
(g82
g63
NtRp4612
(dp4613
g66
(dp4614
sg75
g4599
sg68
(lp4615
g61
(g62
g63
NtRp4616
(dp4617
g66
(dp4618
g74
I4
ssg75
g4612
sg68
(lp4619
S'Copyright 2011'
p4620
asbasbasbag61
(g77
g63
NtRp4621
(dp4622
g66
(dp4623
sg75
g4573
sg68
(lp4624
g61
(g82
g63
NtRp4625
(dp4626
g66
(dp4627
g86
g87
ssg75
g4621
sg68
(lp4628
S'description'
p4629
asbag61
(g82
g63
NtRp4630
(dp4631
g66
(dp4632
g93
g94
ssg75
g4621
sg68
(lp4633
S':'
asbag61
(g82
g63
NtRp4634
(dp4635
g66
(dp4636
sg75
g4621
sg68
(lp4637
g61
(g62
g63
NtRp4638
(dp4639
g66
(dp4640
g74
I4
ssg75
g4634
sg68
(lp4641
S'a cool new app'
p4642
asbasbasbag61
(g77
g63
NtRp4643
(dp4644
g66
(dp4645
sg75
g4573
sg68
(lp4646
g61
(g82
g63
NtRp4647
(dp4648
g66
(dp4649
g86
g87
ssg75
g4643
sg68
(lp4650
S'generator'
p4651
asbag61
(g82
g63
NtRp4652
(dp4653
g66
(dp4654
g93
g94
ssg75
g4643
sg68
(lp4655
S':'
asbag61
(g82
g63
NtRp4656
(dp4657
g66
(dp4658
sg75
g4643
sg68
(lp4659
g61
(g62
g63
NtRp4660
(dp4661
g66
(dp4662
g74
I4
ssg75
g4656
sg68
(lp4663
S'Web2py Web Framework'
p4664
asbasbasbag61
(g77
g63
NtRp4665
(dp4666
g66
(dp4667
sg75
g4573
sg68
(lp4668
g61
(g82
g63
NtRp4669
(dp4670
g66
(dp4671
g86
g87
ssg75
g4665
sg68
(lp4672
S'keywords'
p4673
asbag61
(g82
g63
NtRp4674
(dp4675
g66
(dp4676
g93
g94
ssg75
g4665
sg68
(lp4677
S':'
asbag61
(g82
g63
NtRp4678
(dp4679
g66
(dp4680
sg75
g4665
sg68
(lp4681
g61
(g62
g63
NtRp4682
(dp4683
g66
(dp4684
g74
I4
ssg75
g4678
sg68
(lp4685
S'web2py, python, framework'
p4686
asbasbasbasbasbasbasbag61
(g77
g63
NtRp4687
(dp4688
g66
(dp4689
sg75
g3376
sg68
(lp4690
g61
(g82
g63
NtRp4691
(dp4692
g66
(dp4693
g86
g87
ssg75
g4687
sg68
(lp4694
S'postprocessing'
p4695
asbag61
(g82
g63
NtRp4696
(dp4697
g66
(dp4698
g93
g94
ssg75
g4687
sg68
(lp4699
S':'
asbag61
(g82
g63
NtRp4700
(dp4701
g66
(dp4702
sg75
g4687
sg68
(lp4703
g61
(g62
g63
NtRp4704
(dp4705
g66
(dp4706
g74
I5
ssg75
g4700
sg68
(lp4707
g61
(g70
g63
NtRp4708
(dp4709
g66
(dp4710
g74
I4
ssg75
Nsg68
(lp4711
sbasbasbasbag61
(g77
g63
NtRp4712
(dp4713
g66
(dp4714
sg75
g3376
sg68
(lp4715
g61
(g82
g63
NtRp4716
(dp4717
g66
(dp4718
g86
g87
ssg75
g4712
sg68
(lp4719
S'session_file'
p4720
asbag61
(g82
g63
NtRp4721
(dp4722
g66
(dp4723
g93
g94
ssg75
g4712
sg68
(lp4724
S':'
asbag61
(g82
g63
NtRp4725
(dp4726
g66
(dp4727
sg75
g4712
sg68
(lp4728
g61
(g62
g63
NtRp4729
(dp4730
g66
(dp4731
g74
I5
ssg75
g4725
sg68
(lp4732
S"<open file '/home/pooja/web2py/applications/newsapp/sessions/127.0.0.1-f56ccde5-80db-47cc-80e8-bbcc8cc05a92', mode 'rb+' at 0x7f76b8cdd270>"
p4733
asbasbasbag61
(g77
g63
NtRp4734
(dp4735
g66
(dp4736
sg75
g3376
sg68
(lp4737
g61
(g82
g63
NtRp4738
(dp4739
g66
(dp4740
g86
g87
ssg75
g4734
sg68
(lp4741
S'session_filename'
p4742
asbag61
(g82
g63
NtRp4743
(dp4744
g66
(dp4745
g93
g94
ssg75
g4734
sg68
(lp4746
S':'
asbag61
(g82
g63
NtRp4747
(dp4748
g66
(dp4749
sg75
g4734
sg68
(lp4750
g61
(g62
g63
NtRp4751
(dp4752
g66
(dp4753
g74
I5
ssg75
g4747
sg68
(lp4754
S'/home/pooja/web2py/applications/newsapp/sessions/127.0.0.1-f56ccde5-80db-47cc-80e8-bbcc8cc05a92'
p4755
asbasbasbag61
(g77
g63
NtRp4756
(dp4757
g66
(dp4758
sg75
g3376
sg68
(lp4759
g61
(g82
g63
NtRp4760
(dp4761
g66
(dp4762
g86
g87
ssg75
g4756
sg68
(lp4763
S'session_id'
p4764
asbag61
(g82
g63
NtRp4765
(dp4766
g66
(dp4767
g93
g94
ssg75
g4756
sg68
(lp4768
S':'
asbag61
(g82
g63
NtRp4769
(dp4770
g66
(dp4771
sg75
g4756
sg68
(lp4772
g61
(g62
g63
NtRp4773
(dp4774
g66
(dp4775
g74
I5
ssg75
g4769
sg68
(lp4776
S'127.0.0.1-f56ccde5-80db-47cc-80e8-bbcc8cc05a92'
p4777
asbasbasbag61
(g77
g63
NtRp4778
(dp4779
g66
(dp4780
sg75
g3376
sg68
(lp4781
g61
(g82
g63
NtRp4782
(dp4783
g66
(dp4784
g86
g87
ssg75
g4778
sg68
(lp4785
S'session_id_name'
p4786
asbag61
(g82
g63
NtRp4787
(dp4788
g66
(dp4789
g93
g94
ssg75
g4778
sg68
(lp4790
S':'
asbag61
(g82
g63
NtRp4791
(dp4792
g66
(dp4793
sg75
g4778
sg68
(lp4794
g61
(g62
g63
NtRp4795
(dp4796
g66
(dp4797
g74
I5
ssg75
g4791
sg68
(lp4798
g3433
asbasbasbag61
(g77
g63
NtRp4799
(dp4800
g66
(dp4801
sg75
g3376
sg68
(lp4802
g61
(g82
g63
NtRp4803
(dp4804
g66
(dp4805
g86
g87
ssg75
g4799
sg68
(lp4806
S'session_locked'
p4807
asbag61
(g82
g63
NtRp4808
(dp4809
g66
(dp4810
g93
g94
ssg75
g4799
sg68
(lp4811
S':'
asbag61
(g82
g63
NtRp4812
(dp4813
g66
(dp4814
sg75
g4799
sg68
(lp4815
g61
(g62
g63
NtRp4816
(dp4817
g66
(dp4818
g74
I5
ssg75
g4812
sg68
(lp4819
g1639
asbasbasbag61
(g77
g63
NtRp4820
(dp4821
g66
(dp4822
sg75
g3376
sg68
(lp4823
g61
(g82
g63
NtRp4824
(dp4825
g66
(dp4826
g86
g87
ssg75
g4820
sg68
(lp4827
S'session_new'
p4828
asbag61
(g82
g63
NtRp4829
(dp4830
g66
(dp4831
g93
g94
ssg75
g4820
sg68
(lp4832
S':'
asbag61
(g82
g63
NtRp4833
(dp4834
g66
(dp4835
sg75
g4820
sg68
(lp4836
g61
(g62
g63
NtRp4837
(dp4838
g66
(dp4839
g74
I5
ssg75
g4833
sg68
(lp4840
g104
asbasbasbag61
(g77
g63
NtRp4841
(dp4842
g66
(dp4843
sg75
g3376
sg68
(lp4844
g61
(g82
g63
NtRp4845
(dp4846
g66
(dp4847
g86
g87
ssg75
g4841
sg68
(lp4848
S'status'
p4849
asbag61
(g82
g63
NtRp4850
(dp4851
g66
(dp4852
g93
g94
ssg75
g4841
sg68
(lp4853
S':'
asbag61
(g82
g63
NtRp4854
(dp4855
g66
(dp4856
sg75
g4841
sg68
(lp4857
g61
(g62
g63
NtRp4858
(dp4859
g66
(dp4860
g74
I5
ssg75
g4854
sg68
(lp4861
S'200'
p4862
asbasbasbag61
(g77
g63
NtRp4863
(dp4864
g66
(dp4865
sg75
g3376
sg68
(lp4866
g61
(g82
g63
NtRp4867
(dp4868
g66
(dp4869
g86
g87
ssg75
g4863
sg68
(lp4870
S'subtitle'
p4871
asbag61
(g82
g63
NtRp4872
(dp4873
g66
(dp4874
g93
g94
ssg75
g4863
sg68
(lp4875
S':'
asbag61
(g82
g63
NtRp4876
(dp4877
g66
(dp4878
sg75
g4863
sg68
(lp4879
g61
(g62
g63
NtRp4880
(dp4881
g66
(dp4882
g74
I5
ssg75
g4876
sg68
(lp4883
g3932
(S's\r\x00\x00\x00customize me!'
tRp4884
asbasbasbag61
(g77
g63
NtRp4885
(dp4886
g66
(dp4887
sg75
g3376
sg68
(lp4888
g61
(g82
g63
NtRp4889
(dp4890
g66
(dp4891
g86
g87
ssg75
g4885
sg68
(lp4892
S'title'
p4893
asbag61
(g82
g63
NtRp4894
(dp4895
g66
(dp4896
g93
g94
ssg75
g4885
sg68
(lp4897
S':'
asbag61
(g82
g63
NtRp4898
(dp4899
g66
(dp4900
sg75
g4885
sg68
(lp4901
g61
(g62
g63
NtRp4902
(dp4903
g66
(dp4904
g74
I5
ssg75
g4898
sg68
(lp4905
S'Newsapp'
p4906
asbasbasbag61
(g77
g63
NtRp4907
(dp4908
g66
(dp4909
sg75
g3376
sg68
(lp4910
g61
(g82
g63
NtRp4911
(dp4912
g66
(dp4913
g86
g87
ssg75
g4907
sg68
(lp4914
g2347
asbag61
(g82
g63
NtRp4915
(dp4916
g66
(dp4917
g93
g94
ssg75
g4907
sg68
(lp4918
S':'
asbag61
(g82
g63
NtRp4919
(dp4920
g66
(dp4921
sg75
g4907
sg68
(lp4922
g61
(g62
g63
NtRp4923
(dp4924
g66
(dp4925
g74
I5
ssg75
g4919
sg68
(lp4926
g2360
asbasbasbag61
(g77
g63
NtRp4927
(dp4928
g66
(dp4929
sg75
g3376
sg68
(lp4930
g61
(g82
g63
NtRp4931
(dp4932
g66
(dp4933
g86
g87
ssg75
g4927
sg68
(lp4934
S'view'
p4935
asbag61
(g82
g63
NtRp4936
(dp4937
g66
(dp4938
g93
g94
ssg75
g4927
sg68
(lp4939
S':'
asbag61
(g82
g63
NtRp4940
(dp4941
g66
(dp4942
sg75
g4927
sg68
(lp4943
g61
(g62
g63
NtRp4944
(dp4945
g66
(dp4946
g74
I5
ssg75
g4940
sg68
(lp4947
S'default/permission.html'
p4948
asbasbasbasbasbsS'locals'
p4949
(dp4950
S'a'
S'("\\n            INSERT IGNORE INTO  tw_details(scre...=\'cnW26x6ID9yebEJLhTH50Xm36dr3anNuR4mFzzh14AMYr\';",)'
p4951
sS'self'
p4952
S'<gluon.dal.SQLiteAdapter object>'
p4953
sS'b'
g21
sS't0'
p4954
S'1431176230.346134'
p4955
sssS'traceback'
p4956
S'Traceback (most recent call last):\n  File "/usr/lib/pymodules/python2.7/gluon/restricted.py", line 205, in restricted\n    exec ccode in environment\n  File "/home/pooja/web2py/applications/newsapp/controllers/default.py", line 100, in <module>\n  File "/usr/lib/pymodules/python2.7/gluon/globals.py", line 173, in <lambda>\n    self._caller = lambda f: f()\n  File "/home/pooja/web2py/applications/newsapp/controllers/default.py", line 46, in permission\n    tw_status = db.executesql(tw_status_query)\n  File "/usr/lib/pymodules/python2.7/gluon/dal.py", line 6394, in executesql\n    self._adapter.execute(query)\n  File "/usr/lib/pymodules/python2.7/gluon/dal.py", line 1392, in execute\n    return self.log_execute(*a, **b)\n  File "/usr/lib/pymodules/python2.7/gluon/dal.py", line 1386, in log_execute\n    ret = self.cursor.execute(*a, **b)\nOperationalError: near "IGNORE": syntax error\n'
p4957
s.