(dp1
S'output'
p2
S"<class 'urllib2.HTTPError'> HTTP Error 400: Bad Request"
p3
sS'layer'
p4
S'/home/pooja/web2py/applications/newsapp/controllers/default.py'
p5
sS'code'
p6
S'import urllib,urllib2\nfrom urlparse import *\nimport json\nimport sys\nimport os\n#from oauth2 import *\nimport oauth2 as oauth\n\ndef index():\n    return dict()\n\ndef tw_signin():\n    app = oauth.Consumer(key= "dJvGhNEaw6ivlQGals8g1mMu9", secret= "n5qBLoWVO77KHLfAUB1Z5wTYtO7ed62XmNbq52bmYjEFYdJNQi")\n    client = oauth.Client(app)\n    response, content = client.request(\'https://twitter.com/oauth/request_token\', "GET")\n    if response[\'status\'] != \'200\':\n        raise HTTP(response[\'status\']),str(content)\n    request_token = dict(parse_qsl(content))\n    session.request_token = request_token\n    redirect_location = "%s?oauth_token=%s" % (\'https://twitter.com/oauth/authenticate\', request_token[\'oauth_token\'])\n    redirect(redirect_location)\n    return\n\ndef permission():\n    if not(session.request_token is None):\n        consumer = oauth.Consumer(key=twconfig.app_key, secret= twconfig.app_secret)\n        token = None\n        try:\n            token = Token(session.request_token[\'oauth_token\'],session.request_token[\'oauth_token_secret\'])\n        except:\n            redirect(URL(r=request,c=\'default\', f=\'index\'))\n        token.set_verifier(request.vars[\'oauth_verifier\'])\n        client = oauth.Client(consumer, token)\n        response, content = client.request(\'https://twitter.com/oauth/access_token\', "POST")\n        if response[\'status\'] == \'401\':\n            BEAUTIFY("you have denied the request")\n            redirect(URL(r=request,c=\'default\', f=\'index\'))\n        if response[\'status\'] != \'200\':\n            return response[\'status\'],str(content)\n        access_token = dict(parse_qsl(content))\n        session.access_token = access_token\n        user_id = int(access_token[\'user_id\'])\n        name =(access_token[\'screen_name\'])\n        tw_status_query = """\n            INSERT IGNORE INTO  tw_details(screen_name,user_id,tw_token,tw_token_secret) VALUES (\'%s\',\'%s\',\'%s\',\'%s\')\n    ON DUPLICATE KEY UPDATE tw_token=\'%s\',tw_token_secret=\'%s\';"""%(name,user_id,session.access_token[\'oauth_token\'],session.access_token[\'oauth_token_secret\'],session.access_token[\'oauth_token\'],session.access_token[\'oauth_token_secret\'])\n    tw_status = db.executesql(tw_status_query)\n    return dict()\n\ndef get_extented_token():\n    token = request.vars.token\n    url1 = "https://graph.facebook.com/"\n    url1 += \'me?access_token=%s\'%(token)\n    details = urllib2.urlopen(url1)\n    dict_response = json.loads(details.read())\n    name = dict_response[\'name\']\n    email_id = dict_response[\'email\']\n    fb_id = dict_response[\'id\']\n    session.email_id = email_id\n    session.fb_id = fb_id\n    url = "https://graph.facebook.com/"\n    url += "oauth/access_token?client_id="+fbconfig.app_id+"&client_secret="+fbconfig.app_secret\n    url += "&grant_type=fb_exchange_token"\n    url += "&fb_exchange_token=%s"%(token)\n\n    data = urllib2.urlopen(url)\n\n    interm = data.read().split("=")\n    token = interm[1].split("&")\n    extended_token = token[0]\n    session.extended_token = extended_token\n    expires = interm[2]\n\ndef fbuser():\n    token = request.vars.token\n    url1 = "https://graph.facebook.com/"\n    url1 += \'me?access_token=%s\'%(token)\n    details = urllib2.urlopen(url1)\n    dict_response = json.loads(details.read())\n    name = dict_response[\'name\']\n    email_id = ""\n    try:\n        email_id = dict_response[\'email\']\n    except:\n        pass\n    fb_id = dict_response[\'id\']\n    url = "https://graph.facebook.com/"\n    url += "oauth/access_token?client_id="+fbconfig.app_id+"&client_secret="+fbconfig.app_secret\n    url += "&grant_type=fb_exchange_token"\n    url += "&fb_exchange_token=%s"%(token)\n\n    data = urllib2.urlopen(url)\n    interm = data.read().split("=")\n    token = interm[1].split("&")\n    extended_token = token[0]\n    session.extended_token = extended_token\n    expires = interm[2]\n    fb_status = db.executesql("""INSERT IGNORE INTO  fb_details(name,email_id,fb_id,access_token,expiry) VALUES (%s,%s,%s,%s,%s);""",(name,email_id,session.fb_id,extended_token,expires))\n    return dict()\n\nresponse._vars=response._caller(fbuser)\n'
p7
sS'snapshot'
p8
(dp9
S'exception'
p10
(dp11
S'__module__'
p12
S"'urllib2'"
p13
sg6
S'400'
p14
sS'__getslice__'
p15
S"<method-wrapper '__getslice__' of HTTPError object>"
p16
sS'__str__'
p17
S'<bound method HTTPError.__str__ of HTTPError()>'
p18
sS'__reduce__'
p19
S'<built-in method __reduce__ of HTTPError object>'
p20
sS'strerror'
p21
S'None'
p22
sS'__dict__'
p23
S"{'__iter__': <bound method _fileobject.__iter__ of <socket._fileobject object>>, 'code': 400, 'fileno': <bound method _fileobject.fileno of <socket._fileobject object>>, 'fp': <addinfourl at 140250882927504 whose fp = <socket._fileobject object>>, 'hdrs': <httplib.HTTPMessage instance>, 'headers': <httplib.HTTPMessage instance>, 'msg': 'Bad Request', 'next': <bound method _fileobject.next of <socket._fileobject object>>, 'read': <bound method _fileobject.read of <socket._fileobject object>>, 'readline': <bound method _fileobject.readline of <socket._fileobject object>>, ...}"
p24
sS'close'
p25
S'<bound method HTTPError.close of HTTPError()>'
p26
sS'__sizeof__'
p27
S'<built-in method __sizeof__ of HTTPError object>'
p28
sS'next'
p29
S'<bound method _fileobject.next of <socket._fileobject object>>'
p30
sS'__weakref__'
p31
S'None'
p32
sS'__init__'
p33
S'<bound method HTTPError.__init__ of HTTPError()>'
p34
sS'__setattr__'
p35
S"<method-wrapper '__setattr__' of HTTPError object>"
p36
sS'__reduce_ex__'
p37
S'<built-in method __reduce_ex__ of HTTPError object>'
p38
sS'__new__'
p39
S'<built-in method __new__ of type object>'
p40
sS'headers'
p41
S'<httplib.HTTPMessage instance>'
p42
sS'errno'
p43
S'None'
p44
sS'readlines'
p45
S'<bound method _fileobject.readlines of <socket._fileobject object>>'
p46
sS'__format__'
p47
S'<built-in method __format__ of HTTPError object>'
p48
sS'__class__'
p49
S"<class 'urllib2.HTTPError'>"
p50
sS'filename'
p51
S"'https://graph.facebook.com/me?access_token=None'"
p52
sS'_HTTPError__super_init'
p53
S'<bound method HTTPError.__init__ of HTTPError()>'
p54
sS'msg'
p55
S"'Bad Request'"
p56
sS'__doc__'
p57
S"'Raised when HTTP error occurs, but also acts like non-error return'"
p58
sS'fp'
p59
S'<addinfourl at 140250882927504 whose fp = <socket._fileobject object>>'
p60
sS'hdrs'
p61
S'<httplib.HTTPMessage instance>'
p62
sS'__getitem__'
p63
S"<method-wrapper '__getitem__' of HTTPError object>"
p64
sS'__setstate__'
p65
S'<built-in method __setstate__ of HTTPError object>'
p66
sS'read'
p67
S'<bound method _fileobject.read of <socket._fileobject object>>'
p68
sS'__getattribute__'
p69
S"<method-wrapper '__getattribute__' of HTTPError object>"
p70
sS'args'
p71
S'()'
p72
sS'__iter__'
p73
S'<bound method _fileobject.__iter__ of <socket._fileobject object>>'
p74
sS'__subclasshook__'
p75
S'<built-in method __subclasshook__ of type object>'
p76
sS'readline'
p77
S'<bound method _fileobject.readline of <socket._fileobject object>>'
p78
sS'__unicode__'
p79
S'<built-in method __unicode__ of HTTPError object>'
p80
sS'info'
p81
S'<bound method HTTPError.info of HTTPError()>'
p82
sS'fileno'
p83
S'<bound method _fileobject.fileno of <socket._fileobject object>>'
p84
sS'getcode'
p85
S'<bound method HTTPError.getcode of HTTPError()>'
p86
sS'url'
p87
S"'https://graph.facebook.com/me?access_token=None'"
p88
sS'reason'
p89
S"'Bad Request'"
p90
sS'geturl'
p91
S'<bound method HTTPError.geturl of HTTPError()>'
p92
sS'__delattr__'
p93
S"<method-wrapper '__delattr__' of HTTPError object>"
p94
sS'__repr__'
p95
S"<method-wrapper '__repr__' of HTTPError object>"
p96
sS'__hash__'
p97
S"<method-wrapper '__hash__' of HTTPError object>"
p98
ssS'evalue'
p99
S'HTTP Error 400: Bad Request'
p100
sS'request'
p101
ccopy_reg
_reconstructor
p102
(cgluon.html
BEAUTIFY
p103
c__builtin__
object
p104
NtRp105
(dp106
S'attributes'
p107
(dp108
sS'components'
p109
(lp110
g102
(cgluon.html
TABLE
p111
g104
NtRp112
(dp113
g107
(dp114
S'level'
p115
I5
ssS'parent'
p116
Nsg109
(lp117
g102
(cgluon.html
TR
p118
g104
NtRp119
(dp120
g107
(dp121
sg116
g112
sg109
(lp122
g102
(cgluon.html
TD
p123
g104
NtRp124
(dp125
g107
(dp126
S'_style'
p127
S'font-weight:bold;vertical-align:top'
p128
ssg116
g119
sg109
(lp129
S'ajax'
p130
asbag102
(g123
g104
NtRp131
(dp132
g107
(dp133
S'_valign'
p134
S'top'
p135
ssg116
g119
sg109
(lp136
S':'
asbag102
(g123
g104
NtRp137
(dp138
g107
(dp139
sg116
g119
sg109
(lp140
g102
(g103
g104
NtRp141
(dp142
g107
(dp143
g115
I5
ssg116
g137
sg109
(lp144
S'False'
p145
asbasbasbag102
(g118
g104
NtRp146
(dp147
g107
(dp148
sg116
g112
sg109
(lp149
g102
(g123
g104
NtRp150
(dp151
g107
(dp152
g127
g128
ssg116
g146
sg109
(lp153
S'application'
p154
asbag102
(g123
g104
NtRp155
(dp156
g107
(dp157
g134
g135
ssg116
g146
sg109
(lp158
S':'
asbag102
(g123
g104
NtRp159
(dp160
g107
(dp161
sg116
g146
sg109
(lp162
g102
(g103
g104
NtRp163
(dp164
g107
(dp165
g115
I5
ssg116
g159
sg109
(lp166
S'newsapp'
p167
asbasbasbag102
(g118
g104
NtRp168
(dp169
g107
(dp170
sg116
g112
sg109
(lp171
g102
(g123
g104
NtRp172
(dp173
g107
(dp174
g127
g128
ssg116
g168
sg109
(lp175
g71
asbag102
(g123
g104
NtRp176
(dp177
g107
(dp178
g134
g135
ssg116
g168
sg109
(lp179
S':'
asbag102
(g123
g104
NtRp180
(dp181
g107
(dp182
sg116
g168
sg109
(lp183
g102
(g103
g104
NtRp184
(dp185
g107
(dp186
g115
I5
ssg116
g180
sg109
(lp187
g102
(g111
g104
NtRp188
(dp189
g107
(dp190
g115
I4
ssg116
Nsg109
(lp191
sbasbasbasbag102
(g118
g104
NtRp192
(dp193
g107
(dp194
sg116
g112
sg109
(lp195
g102
(g123
g104
NtRp196
(dp197
g107
(dp198
g127
g128
ssg116
g192
sg109
(lp199
S'body'
p200
asbag102
(g123
g104
NtRp201
(dp202
g107
(dp203
g134
g135
ssg116
g192
sg109
(lp204
S':'
asbag102
(g123
g104
NtRp205
(dp206
g107
(dp207
sg116
g192
sg109
(lp208
g102
(g103
g104
NtRp209
(dp210
g107
(dp211
g115
I5
ssg116
g205
sg109
(lp212
S'<cStringIO.StringO object at 0x7f8e844c6068>'
p213
asbasbasbag102
(g118
g104
NtRp214
(dp215
g107
(dp216
sg116
g112
sg109
(lp217
g102
(g123
g104
NtRp218
(dp219
g107
(dp220
g127
g128
ssg116
g214
sg109
(lp221
S'client'
p222
asbag102
(g123
g104
NtRp223
(dp224
g107
(dp225
g134
g135
ssg116
g214
sg109
(lp226
S':'
asbag102
(g123
g104
NtRp227
(dp228
g107
(dp229
sg116
g214
sg109
(lp230
g102
(g103
g104
NtRp231
(dp232
g107
(dp233
g115
I5
ssg116
g227
sg109
(lp234
S'127.0.0.1'
p235
asbasbasbag102
(g118
g104
NtRp236
(dp237
g107
(dp238
sg116
g112
sg109
(lp239
g102
(g123
g104
NtRp240
(dp241
g107
(dp242
g127
g128
ssg116
g236
sg109
(lp243
S'controller'
p244
asbag102
(g123
g104
NtRp245
(dp246
g107
(dp247
g134
g135
ssg116
g236
sg109
(lp248
S':'
asbag102
(g123
g104
NtRp249
(dp250
g107
(dp251
sg116
g236
sg109
(lp252
g102
(g103
g104
NtRp253
(dp254
g107
(dp255
g115
I5
ssg116
g249
sg109
(lp256
S'default'
p257
asbasbasbag102
(g118
g104
NtRp258
(dp259
g107
(dp260
sg116
g112
sg109
(lp261
g102
(g123
g104
NtRp262
(dp263
g107
(dp264
g127
g128
ssg116
g258
sg109
(lp265
S'cookies'
p266
asbag102
(g123
g104
NtRp267
(dp268
g107
(dp269
g134
g135
ssg116
g258
sg109
(lp270
S':'
asbag102
(g123
g104
NtRp271
(dp272
g107
(dp273
sg116
g258
sg109
(lp274
g102
(g103
g104
NtRp275
(dp276
g107
(dp277
g115
I5
ssg116
g271
sg109
(lp278
g102
(g111
g104
NtRp279
(dp280
g107
(dp281
g115
I4
ssg116
Nsg109
(lp282
g102
(g118
g104
NtRp283
(dp284
g107
(dp285
sg116
g279
sg109
(lp286
g102
(g123
g104
NtRp287
(dp288
g107
(dp289
g127
g128
ssg116
g283
sg109
(lp290
S'session_id_newsapp'
p291
asbag102
(g123
g104
NtRp292
(dp293
g107
(dp294
g134
g135
ssg116
g283
sg109
(lp295
S':'
asbag102
(g123
g104
NtRp296
(dp297
g107
(dp298
sg116
g283
sg109
(lp299
g102
(g103
g104
NtRp300
(dp301
g107
(dp302
g115
I4
ssg116
g296
sg109
(lp303
g102
(g111
g104
NtRp304
(dp305
g107
(dp306
g115
I3
ssg116
Nsg109
(lp307
g102
(g118
g104
NtRp308
(dp309
g107
(dp310
sg116
g304
sg109
(lp311
g102
(g123
g104
NtRp312
(dp313
g107
(dp314
g127
g128
ssg116
g308
sg109
(lp315
S'comment'
p316
asbag102
(g123
g104
NtRp317
(dp318
g107
(dp319
g134
g135
ssg116
g308
sg109
(lp320
S':'
asbag102
(g123
g104
NtRp321
(dp322
g107
(dp323
sg116
g308
sg109
(lp324
g102
(g103
g104
NtRp325
(dp326
g107
(dp327
g115
I3
ssg116
g321
sg109
(lp328
S''
asbasbasbag102
(g118
g104
NtRp329
(dp330
g107
(dp331
sg116
g304
sg109
(lp332
g102
(g123
g104
NtRp333
(dp334
g107
(dp335
g127
g128
ssg116
g329
sg109
(lp336
S'domain'
p337
asbag102
(g123
g104
NtRp338
(dp339
g107
(dp340
g134
g135
ssg116
g329
sg109
(lp341
S':'
asbag102
(g123
g104
NtRp342
(dp343
g107
(dp344
sg116
g329
sg109
(lp345
g102
(g103
g104
NtRp346
(dp347
g107
(dp348
g115
I3
ssg116
g342
sg109
(lp349
S''
asbasbasbag102
(g118
g104
NtRp350
(dp351
g107
(dp352
sg116
g304
sg109
(lp353
g102
(g123
g104
NtRp354
(dp355
g107
(dp356
g127
g128
ssg116
g350
sg109
(lp357
S'expires'
p358
asbag102
(g123
g104
NtRp359
(dp360
g107
(dp361
g134
g135
ssg116
g350
sg109
(lp362
S':'
asbag102
(g123
g104
NtRp363
(dp364
g107
(dp365
sg116
g350
sg109
(lp366
g102
(g103
g104
NtRp367
(dp368
g107
(dp369
g115
I3
ssg116
g363
sg109
(lp370
S''
asbasbasbag102
(g118
g104
NtRp371
(dp372
g107
(dp373
sg116
g304
sg109
(lp374
g102
(g123
g104
NtRp375
(dp376
g107
(dp377
g127
g128
ssg116
g371
sg109
(lp378
S'httponly'
p379
asbag102
(g123
g104
NtRp380
(dp381
g107
(dp382
g134
g135
ssg116
g371
sg109
(lp383
S':'
asbag102
(g123
g104
NtRp384
(dp385
g107
(dp386
sg116
g371
sg109
(lp387
g102
(g103
g104
NtRp388
(dp389
g107
(dp390
g115
I3
ssg116
g384
sg109
(lp391
S''
asbasbasbag102
(g118
g104
NtRp392
(dp393
g107
(dp394
sg116
g304
sg109
(lp395
g102
(g123
g104
NtRp396
(dp397
g107
(dp398
g127
g128
ssg116
g392
sg109
(lp399
S'max-age'
p400
asbag102
(g123
g104
NtRp401
(dp402
g107
(dp403
g134
g135
ssg116
g392
sg109
(lp404
S':'
asbag102
(g123
g104
NtRp405
(dp406
g107
(dp407
sg116
g392
sg109
(lp408
g102
(g103
g104
NtRp409
(dp410
g107
(dp411
g115
I3
ssg116
g405
sg109
(lp412
S''
asbasbasbag102
(g118
g104
NtRp413
(dp414
g107
(dp415
sg116
g304
sg109
(lp416
g102
(g123
g104
NtRp417
(dp418
g107
(dp419
g127
g128
ssg116
g413
sg109
(lp420
S'path'
p421
asbag102
(g123
g104
NtRp422
(dp423
g107
(dp424
g134
g135
ssg116
g413
sg109
(lp425
S':'
asbag102
(g123
g104
NtRp426
(dp427
g107
(dp428
sg116
g413
sg109
(lp429
g102
(g103
g104
NtRp430
(dp431
g107
(dp432
g115
I3
ssg116
g426
sg109
(lp433
S''
asbasbasbag102
(g118
g104
NtRp434
(dp435
g107
(dp436
sg116
g304
sg109
(lp437
g102
(g123
g104
NtRp438
(dp439
g107
(dp440
g127
g128
ssg116
g434
sg109
(lp441
S'secure'
p442
asbag102
(g123
g104
NtRp443
(dp444
g107
(dp445
g134
g135
ssg116
g434
sg109
(lp446
S':'
asbag102
(g123
g104
NtRp447
(dp448
g107
(dp449
sg116
g434
sg109
(lp450
g102
(g103
g104
NtRp451
(dp452
g107
(dp453
g115
I3
ssg116
g447
sg109
(lp454
S''
asbasbasbag102
(g118
g104
NtRp455
(dp456
g107
(dp457
sg116
g304
sg109
(lp458
g102
(g123
g104
NtRp459
(dp460
g107
(dp461
g127
g128
ssg116
g455
sg109
(lp462
S'version'
p463
asbag102
(g123
g104
NtRp464
(dp465
g107
(dp466
g134
g135
ssg116
g455
sg109
(lp467
S':'
asbag102
(g123
g104
NtRp468
(dp469
g107
(dp470
sg116
g455
sg109
(lp471
g102
(g103
g104
NtRp472
(dp473
g107
(dp474
g115
I3
ssg116
g468
sg109
(lp475
S''
asbasbasbasbasbasbasbasbasbasbasbag102
(g118
g104
NtRp476
(dp477
g107
(dp478
sg116
g112
sg109
(lp479
g102
(g123
g104
NtRp480
(dp481
g107
(dp482
g127
g128
ssg116
g476
sg109
(lp483
S'env'
p484
asbag102
(g123
g104
NtRp485
(dp486
g107
(dp487
g134
g135
ssg116
g476
sg109
(lp488
S':'
asbag102
(g123
g104
NtRp489
(dp490
g107
(dp491
sg116
g476
sg109
(lp492
g102
(g103
g104
NtRp493
(dp494
g107
(dp495
g115
I5
ssg116
g489
sg109
(lp496
g102
(g111
g104
NtRp497
(dp498
g107
(dp499
g115
I4
ssg116
Nsg109
(lp500
g102
(g118
g104
NtRp501
(dp502
g107
(dp503
sg116
g497
sg109
(lp504
g102
(g123
g104
NtRp505
(dp506
g107
(dp507
g127
g128
ssg116
g501
sg109
(lp508
S'app_folders'
p509
asbag102
(g123
g104
NtRp510
(dp511
g107
(dp512
g134
g135
ssg116
g501
sg109
(lp513
S':'
asbag102
(g123
g104
NtRp514
(dp515
g107
(dp516
sg116
g501
sg109
(lp517
g102
(g103
g104
NtRp518
(dp519
g107
(dp520
g115
I4
ssg116
g514
sg109
(lp521
S"set(['/home/pooja/web2py/applications/admin/', '/home/pooja/web2py/applications/newsapp/', '/home/pooja/web2py/applications/welcome/'])"
p522
asbasbasbag102
(g118
g104
NtRp523
(dp524
g107
(dp525
sg116
g497
sg109
(lp526
g102
(g123
g104
NtRp527
(dp528
g107
(dp529
g127
g128
ssg116
g523
sg109
(lp530
S'applications_parent'
p531
asbag102
(g123
g104
NtRp532
(dp533
g107
(dp534
g134
g135
ssg116
g523
sg109
(lp535
S':'
asbag102
(g123
g104
NtRp536
(dp537
g107
(dp538
sg116
g523
sg109
(lp539
g102
(g103
g104
NtRp540
(dp541
g107
(dp542
g115
I4
ssg116
g536
sg109
(lp543
S'/home/pooja/web2py'
p544
asbasbasbag102
(g118
g104
NtRp545
(dp546
g107
(dp547
sg116
g497
sg109
(lp548
g102
(g123
g104
NtRp549
(dp550
g107
(dp551
g127
g128
ssg116
g545
sg109
(lp552
S'cmd_args'
p553
asbag102
(g123
g104
NtRp554
(dp555
g107
(dp556
g134
g135
ssg116
g545
sg109
(lp557
S':'
asbag102
(g123
g104
NtRp558
(dp559
g107
(dp560
sg116
g545
sg109
(lp561
g102
(g103
g104
NtRp562
(dp563
g107
(dp564
g115
I4
ssg116
g558
sg109
(lp565
g102
(g111
g104
NtRp566
(dp567
g107
(dp568
g115
I3
ssg116
Nsg109
(lp569
sbasbasbasbag102
(g118
g104
NtRp570
(dp571
g107
(dp572
sg116
g497
sg109
(lp573
g102
(g123
g104
NtRp574
(dp575
g107
(dp576
g127
g128
ssg116
g570
sg109
(lp577
S'cmd_options'
p578
asbag102
(g123
g104
NtRp579
(dp580
g107
(dp581
g134
g135
ssg116
g570
sg109
(lp582
S':'
asbag102
(g123
g104
NtRp583
(dp584
g107
(dp585
sg116
g570
sg109
(lp586
g102
(g103
g104
NtRp587
(dp588
g107
(dp589
g115
I4
ssg116
g583
sg109
(lp590
S"<Values at 0x7f8ec06a5908: {'verbose': False, 'ip': '127.0.0.1', 'shutdown_timeout': 5, 'taskbar': False, 'nocron': False, 'pid_filename': 'httpserver.pid', 'maxthreads': None, 'softcron': False, 'server_name': 'pooja-HP-15-Notebook-PC', 'bpython': False, 'nogui': False, 'port': 8000, 'extcron': False, 'debuglevel': 30, 'test': None, 'folder': '/home/pooja/web2py', 'config': '', 'import_models': False, 'winservice': '', 'shell': None, 'run': '', 'log_filename': 'httpserver.log', 'args': [''], 'socket_timeout': 5, 'ssl_ca_certificate': None, 'scheduler': None, 'profiler_filename': None, 'ssl_private_key': '', 'password': '<ask>', 'request_queue_size': 5, 'ssl_certificate': '', 'cronjob': False, 'numthreads': None, 'quiet': False, 'interfaces': None, 'minthreads': None, 'timeout': 10, 'plain': False, 'nobanner': False}>"
p591
asbasbasbag102
(g118
g104
NtRp592
(dp593
g107
(dp594
sg116
g497
sg109
(lp595
g102
(g123
g104
NtRp596
(dp597
g107
(dp598
g127
g128
ssg116
g592
sg109
(lp599
S'db_sessions'
p600
asbag102
(g123
g104
NtRp601
(dp602
g107
(dp603
g134
g135
ssg116
g592
sg109
(lp604
S':'
asbag102
(g123
g104
NtRp605
(dp606
g107
(dp607
sg116
g592
sg109
(lp608
g102
(g103
g104
NtRp609
(dp610
g107
(dp611
g115
I4
ssg116
g605
sg109
(lp612
S'set([])'
p613
asbasbasbag102
(g118
g104
NtRp614
(dp615
g107
(dp616
sg116
g497
sg109
(lp617
g102
(g123
g104
NtRp618
(dp619
g107
(dp620
g127
g128
ssg116
g614
sg109
(lp621
S'debugging'
p622
asbag102
(g123
g104
NtRp623
(dp624
g107
(dp625
g134
g135
ssg116
g614
sg109
(lp626
S':'
asbag102
(g123
g104
NtRp627
(dp628
g107
(dp629
sg116
g614
sg109
(lp630
g102
(g103
g104
NtRp631
(dp632
g107
(dp633
g115
I4
ssg116
g627
sg109
(lp634
g145
asbasbasbag102
(g118
g104
NtRp635
(dp636
g107
(dp637
sg116
g497
sg109
(lp638
g102
(g123
g104
NtRp639
(dp640
g107
(dp641
g127
g128
ssg116
g635
sg109
(lp642
S'gluon_parent'
p643
asbag102
(g123
g104
NtRp644
(dp645
g107
(dp646
g134
g135
ssg116
g635
sg109
(lp647
S':'
asbag102
(g123
g104
NtRp648
(dp649
g107
(dp650
sg116
g635
sg109
(lp651
g102
(g103
g104
NtRp652
(dp653
g107
(dp654
g115
I4
ssg116
g648
sg109
(lp655
S'/usr/share/web2py'
p656
asbasbasbag102
(g118
g104
NtRp657
(dp658
g107
(dp659
sg116
g497
sg109
(lp660
g102
(g123
g104
NtRp661
(dp662
g107
(dp663
g127
g128
ssg116
g657
sg109
(lp664
S'http_accept'
p665
asbag102
(g123
g104
NtRp666
(dp667
g107
(dp668
g134
g135
ssg116
g657
sg109
(lp669
S':'
asbag102
(g123
g104
NtRp670
(dp671
g107
(dp672
sg116
g657
sg109
(lp673
g102
(g103
g104
NtRp674
(dp675
g107
(dp676
g115
I4
ssg116
g670
sg109
(lp677
S'text/html,application/xhtml+xml,application/xml;q=0.9,image/webp,*/*;q=0.8'
p678
asbasbasbag102
(g118
g104
NtRp679
(dp680
g107
(dp681
sg116
g497
sg109
(lp682
g102
(g123
g104
NtRp683
(dp684
g107
(dp685
g127
g128
ssg116
g679
sg109
(lp686
S'http_accept_encoding'
p687
asbag102
(g123
g104
NtRp688
(dp689
g107
(dp690
g134
g135
ssg116
g679
sg109
(lp691
S':'
asbag102
(g123
g104
NtRp692
(dp693
g107
(dp694
sg116
g679
sg109
(lp695
g102
(g103
g104
NtRp696
(dp697
g107
(dp698
g115
I4
ssg116
g692
sg109
(lp699
S'gzip, deflate, sdch'
p700
asbasbasbag102
(g118
g104
NtRp701
(dp702
g107
(dp703
sg116
g497
sg109
(lp704
g102
(g123
g104
NtRp705
(dp706
g107
(dp707
g127
g128
ssg116
g701
sg109
(lp708
S'http_accept_language'
p709
asbag102
(g123
g104
NtRp710
(dp711
g107
(dp712
g134
g135
ssg116
g701
sg109
(lp713
S':'
asbag102
(g123
g104
NtRp714
(dp715
g107
(dp716
sg116
g701
sg109
(lp717
g102
(g103
g104
NtRp718
(dp719
g107
(dp720
g115
I4
ssg116
g714
sg109
(lp721
S'en-US,en;q=0.8'
p722
asbasbasbag102
(g118
g104
NtRp723
(dp724
g107
(dp725
sg116
g497
sg109
(lp726
g102
(g123
g104
NtRp727
(dp728
g107
(dp729
g127
g128
ssg116
g723
sg109
(lp730
S'http_connection'
p731
asbag102
(g123
g104
NtRp732
(dp733
g107
(dp734
g134
g135
ssg116
g723
sg109
(lp735
S':'
asbag102
(g123
g104
NtRp736
(dp737
g107
(dp738
sg116
g723
sg109
(lp739
g102
(g103
g104
NtRp740
(dp741
g107
(dp742
g115
I4
ssg116
g736
sg109
(lp743
S'keep-alive'
p744
asbasbasbag102
(g118
g104
NtRp745
(dp746
g107
(dp747
sg116
g497
sg109
(lp748
g102
(g123
g104
NtRp749
(dp750
g107
(dp751
g127
g128
ssg116
g745
sg109
(lp752
S'http_cookie'
p753
asbag102
(g123
g104
NtRp754
(dp755
g107
(dp756
g134
g135
ssg116
g745
sg109
(lp757
S':'
asbag102
(g123
g104
NtRp758
(dp759
g107
(dp760
sg116
g745
sg109
(lp761
g102
(g103
g104
NtRp762
(dp763
g107
(dp764
g115
I4
ssg116
g758
sg109
(lp765
S'session_id_newsapp=127.0.0.1-f4641e8e-dec3-448b-b488-f8292029f466'
p766
asbasbasbag102
(g118
g104
NtRp767
(dp768
g107
(dp769
sg116
g497
sg109
(lp770
g102
(g123
g104
NtRp771
(dp772
g107
(dp773
g127
g128
ssg116
g767
sg109
(lp774
S'http_host'
p775
asbag102
(g123
g104
NtRp776
(dp777
g107
(dp778
g134
g135
ssg116
g767
sg109
(lp779
S':'
asbag102
(g123
g104
NtRp780
(dp781
g107
(dp782
sg116
g767
sg109
(lp783
g102
(g103
g104
NtRp784
(dp785
g107
(dp786
g115
I4
ssg116
g780
sg109
(lp787
S'localhost:8000'
p788
asbasbasbag102
(g118
g104
NtRp789
(dp790
g107
(dp791
sg116
g497
sg109
(lp792
g102
(g123
g104
NtRp793
(dp794
g107
(dp795
g127
g128
ssg116
g789
sg109
(lp796
S'http_referer'
p797
asbag102
(g123
g104
NtRp798
(dp799
g107
(dp800
g134
g135
ssg116
g789
sg109
(lp801
S':'
asbag102
(g123
g104
NtRp802
(dp803
g107
(dp804
sg116
g789
sg109
(lp805
g102
(g103
g104
NtRp806
(dp807
g107
(dp808
g115
I4
ssg116
g802
sg109
(lp809
S'http://localhost:8000/newsapp/default'
p810
asbasbasbag102
(g118
g104
NtRp811
(dp812
g107
(dp813
sg116
g497
sg109
(lp814
g102
(g123
g104
NtRp815
(dp816
g107
(dp817
g127
g128
ssg116
g811
sg109
(lp818
S'http_user_agent'
p819
asbag102
(g123
g104
NtRp820
(dp821
g107
(dp822
g134
g135
ssg116
g811
sg109
(lp823
S':'
asbag102
(g123
g104
NtRp824
(dp825
g107
(dp826
sg116
g811
sg109
(lp827
g102
(g103
g104
NtRp828
(dp829
g107
(dp830
g115
I4
ssg116
g824
sg109
(lp831
S'Mozilla/5.0 (X11; Linux x86_64) AppleWebKit/537.36 (KHTML, like Gecko) Chrome/42.0.2311.135 Safari/537.36'
p832
asbasbasbag102
(g118
g104
NtRp833
(dp834
g107
(dp835
sg116
g497
sg109
(lp836
g102
(g123
g104
NtRp837
(dp838
g107
(dp839
g127
g128
ssg116
g833
sg109
(lp840
S'is_jython'
p841
asbag102
(g123
g104
NtRp842
(dp843
g107
(dp844
g134
g135
ssg116
g833
sg109
(lp845
S':'
asbag102
(g123
g104
NtRp846
(dp847
g107
(dp848
sg116
g833
sg109
(lp849
g102
(g103
g104
NtRp850
(dp851
g107
(dp852
g115
I4
ssg116
g846
sg109
(lp853
g145
asbasbasbag102
(g118
g104
NtRp854
(dp855
g107
(dp856
sg116
g497
sg109
(lp857
g102
(g123
g104
NtRp858
(dp859
g107
(dp860
g127
g128
ssg116
g854
sg109
(lp861
S'is_pypy'
p862
asbag102
(g123
g104
NtRp863
(dp864
g107
(dp865
g134
g135
ssg116
g854
sg109
(lp866
S':'
asbag102
(g123
g104
NtRp867
(dp868
g107
(dp869
sg116
g854
sg109
(lp870
g102
(g103
g104
NtRp871
(dp872
g107
(dp873
g115
I4
ssg116
g867
sg109
(lp874
g145
asbasbasbag102
(g118
g104
NtRp875
(dp876
g107
(dp877
sg116
g497
sg109
(lp878
g102
(g123
g104
NtRp879
(dp880
g107
(dp881
g127
g128
ssg116
g875
sg109
(lp882
S'path_info'
p883
asbag102
(g123
g104
NtRp884
(dp885
g107
(dp886
g134
g135
ssg116
g875
sg109
(lp887
S':'
asbag102
(g123
g104
NtRp888
(dp889
g107
(dp890
sg116
g875
sg109
(lp891
g102
(g103
g104
NtRp892
(dp893
g107
(dp894
g115
I4
ssg116
g888
sg109
(lp895
S'/newsapp/default/fbuser'
p896
asbasbasbag102
(g118
g104
NtRp897
(dp898
g107
(dp899
sg116
g497
sg109
(lp900
g102
(g123
g104
NtRp901
(dp902
g107
(dp903
g127
g128
ssg116
g897
sg109
(lp904
S'query_string'
p905
asbag102
(g123
g104
NtRp906
(dp907
g107
(dp908
g134
g135
ssg116
g897
sg109
(lp909
S':'
asbag102
(g123
g104
NtRp910
(dp911
g107
(dp912
sg116
g897
sg109
(lp913
g102
(g103
g104
NtRp914
(dp915
g107
(dp916
g115
I4
ssg116
g910
sg109
(lp917
S''
asbasbasbag102
(g118
g104
NtRp918
(dp919
g107
(dp920
sg116
g497
sg109
(lp921
g102
(g123
g104
NtRp922
(dp923
g107
(dp924
g127
g128
ssg116
g918
sg109
(lp925
S'remote_addr'
p926
asbag102
(g123
g104
NtRp927
(dp928
g107
(dp929
g134
g135
ssg116
g918
sg109
(lp930
S':'
asbag102
(g123
g104
NtRp931
(dp932
g107
(dp933
sg116
g918
sg109
(lp934
g102
(g103
g104
NtRp935
(dp936
g107
(dp937
g115
I4
ssg116
g931
sg109
(lp938
g235
asbasbasbag102
(g118
g104
NtRp939
(dp940
g107
(dp941
sg116
g497
sg109
(lp942
g102
(g123
g104
NtRp943
(dp944
g107
(dp945
g127
g128
ssg116
g939
sg109
(lp946
S'remote_port'
p947
asbag102
(g123
g104
NtRp948
(dp949
g107
(dp950
g134
g135
ssg116
g939
sg109
(lp951
S':'
asbag102
(g123
g104
NtRp952
(dp953
g107
(dp954
sg116
g939
sg109
(lp955
g102
(g103
g104
NtRp956
(dp957
g107
(dp958
g115
I4
ssg116
g952
sg109
(lp959
S'48081'
p960
asbasbasbag102
(g118
g104
NtRp961
(dp962
g107
(dp963
sg116
g497
sg109
(lp964
g102
(g123
g104
NtRp965
(dp966
g107
(dp967
g127
g128
ssg116
g961
sg109
(lp968
S'request_method'
p969
asbag102
(g123
g104
NtRp970
(dp971
g107
(dp972
g134
g135
ssg116
g961
sg109
(lp973
S':'
asbag102
(g123
g104
NtRp974
(dp975
g107
(dp976
sg116
g961
sg109
(lp977
g102
(g103
g104
NtRp978
(dp979
g107
(dp980
g115
I4
ssg116
g974
sg109
(lp981
S'GET'
p982
asbasbasbag102
(g118
g104
NtRp983
(dp984
g107
(dp985
sg116
g497
sg109
(lp986
g102
(g123
g104
NtRp987
(dp988
g107
(dp989
g127
g128
ssg116
g983
sg109
(lp990
S'script_name'
p991
asbag102
(g123
g104
NtRp992
(dp993
g107
(dp994
g134
g135
ssg116
g983
sg109
(lp995
S':'
asbag102
(g123
g104
NtRp996
(dp997
g107
(dp998
sg116
g983
sg109
(lp999
g102
(g103
g104
NtRp1000
(dp1001
g107
(dp1002
g115
I4
ssg116
g996
sg109
(lp1003
S''
asbasbasbag102
(g118
g104
NtRp1004
(dp1005
g107
(dp1006
sg116
g497
sg109
(lp1007
g102
(g123
g104
NtRp1008
(dp1009
g107
(dp1010
g127
g128
ssg116
g1004
sg109
(lp1011
S'server_name'
p1012
asbag102
(g123
g104
NtRp1013
(dp1014
g107
(dp1015
g134
g135
ssg116
g1004
sg109
(lp1016
S':'
asbag102
(g123
g104
NtRp1017
(dp1018
g107
(dp1019
sg116
g1004
sg109
(lp1020
g102
(g103
g104
NtRp1021
(dp1022
g107
(dp1023
g115
I4
ssg116
g1017
sg109
(lp1024
S'pooja-HP-15-Notebook-PC'
p1025
asbasbasbag102
(g118
g104
NtRp1026
(dp1027
g107
(dp1028
sg116
g497
sg109
(lp1029
g102
(g123
g104
NtRp1030
(dp1031
g107
(dp1032
g127
g128
ssg116
g1026
sg109
(lp1033
S'server_port'
p1034
asbag102
(g123
g104
NtRp1035
(dp1036
g107
(dp1037
g134
g135
ssg116
g1026
sg109
(lp1038
S':'
asbag102
(g123
g104
NtRp1039
(dp1040
g107
(dp1041
sg116
g1026
sg109
(lp1042
g102
(g103
g104
NtRp1043
(dp1044
g107
(dp1045
g115
I4
ssg116
g1039
sg109
(lp1046
S'8000'
p1047
asbasbasbag102
(g118
g104
NtRp1048
(dp1049
g107
(dp1050
sg116
g497
sg109
(lp1051
g102
(g123
g104
NtRp1052
(dp1053
g107
(dp1054
g127
g128
ssg116
g1048
sg109
(lp1055
S'server_protocol'
p1056
asbag102
(g123
g104
NtRp1057
(dp1058
g107
(dp1059
g134
g135
ssg116
g1048
sg109
(lp1060
S':'
asbag102
(g123
g104
NtRp1061
(dp1062
g107
(dp1063
sg116
g1048
sg109
(lp1064
g102
(g103
g104
NtRp1065
(dp1066
g107
(dp1067
g115
I4
ssg116
g1061
sg109
(lp1068
S'HTTP/1.1'
p1069
asbasbasbag102
(g118
g104
NtRp1070
(dp1071
g107
(dp1072
sg116
g497
sg109
(lp1073
g102
(g123
g104
NtRp1074
(dp1075
g107
(dp1076
g127
g128
ssg116
g1070
sg109
(lp1077
S'server_software'
p1078
asbag102
(g123
g104
NtRp1079
(dp1080
g107
(dp1081
g134
g135
ssg116
g1070
sg109
(lp1082
S':'
asbag102
(g123
g104
NtRp1083
(dp1084
g107
(dp1085
sg116
g1070
sg109
(lp1086
g102
(g103
g104
NtRp1087
(dp1088
g107
(dp1089
g115
I4
ssg116
g1083
sg109
(lp1090
S'Rocket 1.2.4'
p1091
asbasbasbag102
(g118
g104
NtRp1092
(dp1093
g107
(dp1094
sg116
g497
sg109
(lp1095
g102
(g123
g104
NtRp1096
(dp1097
g107
(dp1098
g127
g128
ssg116
g1092
sg109
(lp1099
S'web2py_crontype'
p1100
asbag102
(g123
g104
NtRp1101
(dp1102
g107
(dp1103
g134
g135
ssg116
g1092
sg109
(lp1104
S':'
asbag102
(g123
g104
NtRp1105
(dp1106
g107
(dp1107
sg116
g1092
sg109
(lp1108
g102
(g103
g104
NtRp1109
(dp1110
g107
(dp1111
g115
I4
ssg116
g1105
sg109
(lp1112
S'hard'
p1113
asbasbasbag102
(g118
g104
NtRp1114
(dp1115
g107
(dp1116
sg116
g497
sg109
(lp1117
g102
(g123
g104
NtRp1118
(dp1119
g107
(dp1120
g127
g128
ssg116
g1114
sg109
(lp1121
S'web2py_path'
p1122
asbag102
(g123
g104
NtRp1123
(dp1124
g107
(dp1125
g134
g135
ssg116
g1114
sg109
(lp1126
S':'
asbag102
(g123
g104
NtRp1127
(dp1128
g107
(dp1129
sg116
g1114
sg109
(lp1130
g102
(g103
g104
NtRp1131
(dp1132
g107
(dp1133
g115
I4
ssg116
g1127
sg109
(lp1134
g544
asbasbasbag102
(g118
g104
NtRp1135
(dp1136
g107
(dp1137
sg116
g497
sg109
(lp1138
g102
(g123
g104
NtRp1139
(dp1140
g107
(dp1141
g127
g128
ssg116
g1135
sg109
(lp1142
S'web2py_version'
p1143
asbag102
(g123
g104
NtRp1144
(dp1145
g107
(dp1146
g134
g135
ssg116
g1135
sg109
(lp1147
S':'
asbag102
(g123
g104
NtRp1148
(dp1149
g107
(dp1150
sg116
g1135
sg109
(lp1151
g102
(g103
g104
NtRp1152
(dp1153
g107
(dp1154
g115
I4
ssg116
g1148
sg109
(lp1155
g102
(g111
g104
NtRp1156
(dp1157
g107
(dp1158
g115
I3
ssg116
Nsg109
(lp1159
g102
(g118
g104
NtRp1160
(dp1161
g107
(dp1162
sg116
g1156
sg109
(lp1163
g102
(g123
g104
NtRp1164
(dp1165
g107
(dp1166
sg116
g1160
sg109
(lp1167
g102
(g103
g104
NtRp1168
(dp1169
g107
(dp1170
g115
I3
ssg116
g1164
sg109
(lp1171
S'1'
asbasbasbag102
(g118
g104
NtRp1172
(dp1173
g107
(dp1174
sg116
g1156
sg109
(lp1175
g102
(g123
g104
NtRp1176
(dp1177
g107
(dp1178
sg116
g1172
sg109
(lp1179
g102
(g103
g104
NtRp1180
(dp1181
g107
(dp1182
g115
I3
ssg116
g1176
sg109
(lp1183
S'99'
p1184
asbasbasbag102
(g118
g104
NtRp1185
(dp1186
g107
(dp1187
sg116
g1156
sg109
(lp1188
g102
(g123
g104
NtRp1189
(dp1190
g107
(dp1191
sg116
g1185
sg109
(lp1192
g102
(g103
g104
NtRp1193
(dp1194
g107
(dp1195
g115
I3
ssg116
g1189
sg109
(lp1196
S'7'
asbasbasbag102
(g118
g104
NtRp1197
(dp1198
g107
(dp1199
sg116
g1156
sg109
(lp1200
g102
(g123
g104
NtRp1201
(dp1202
g107
(dp1203
sg116
g1197
sg109
(lp1204
g102
(g103
g104
NtRp1205
(dp1206
g107
(dp1207
g115
I3
ssg116
g1201
sg109
(lp1208
S'datetime.datetime(2012, 3, 4, 22, 12, 8)'
p1209
asbasbasbag102
(g118
g104
NtRp1210
(dp1211
g107
(dp1212
sg116
g1156
sg109
(lp1213
g102
(g123
g104
NtRp1214
(dp1215
g107
(dp1216
sg116
g1210
sg109
(lp1217
g102
(g103
g104
NtRp1218
(dp1219
g107
(dp1220
g115
I3
ssg116
g1214
sg109
(lp1221
S'stable'
p1222
asbasbasbasbasbasbasbag102
(g118
g104
NtRp1223
(dp1224
g107
(dp1225
sg116
g497
sg109
(lp1226
g102
(g123
g104
NtRp1227
(dp1228
g107
(dp1229
g127
g128
ssg116
g1223
sg109
(lp1230
S'wsgi_errors'
p1231
asbag102
(g123
g104
NtRp1232
(dp1233
g107
(dp1234
g134
g135
ssg116
g1223
sg109
(lp1235
S':'
asbag102
(g123
g104
NtRp1236
(dp1237
g107
(dp1238
sg116
g1223
sg109
(lp1239
g102
(g103
g104
NtRp1240
(dp1241
g107
(dp1242
g115
I4
ssg116
g1236
sg109
(lp1243
S"<open file '<stderr>', mode 'w' at 0x7f8ec51111e0>"
p1244
asbasbasbag102
(g118
g104
NtRp1245
(dp1246
g107
(dp1247
sg116
g497
sg109
(lp1248
g102
(g123
g104
NtRp1249
(dp1250
g107
(dp1251
g127
g128
ssg116
g1245
sg109
(lp1252
S'wsgi_file_wrapper'
p1253
asbag102
(g123
g104
NtRp1254
(dp1255
g107
(dp1256
g134
g135
ssg116
g1245
sg109
(lp1257
S':'
asbag102
(g123
g104
NtRp1258
(dp1259
g107
(dp1260
sg116
g1245
sg109
(lp1261
g102
(g103
g104
NtRp1262
(dp1263
g107
(dp1264
g115
I4
ssg116
g1258
sg109
(lp1265
S'<class wsgiref.util.FileWrapper at 0x7f8ec08a8870>'
p1266
asbasbasbag102
(g118
g104
NtRp1267
(dp1268
g107
(dp1269
sg116
g497
sg109
(lp1270
g102
(g123
g104
NtRp1271
(dp1272
g107
(dp1273
g127
g128
ssg116
g1267
sg109
(lp1274
S'wsgi_input'
p1275
asbag102
(g123
g104
NtRp1276
(dp1277
g107
(dp1278
g134
g135
ssg116
g1267
sg109
(lp1279
S':'
asbag102
(g123
g104
NtRp1280
(dp1281
g107
(dp1282
sg116
g1267
sg109
(lp1283
g102
(g103
g104
NtRp1284
(dp1285
g107
(dp1286
g115
I4
ssg116
g1280
sg109
(lp1287
S'<socket._fileobject object at 0x7f8e6756f4d0>'
p1288
asbasbasbag102
(g118
g104
NtRp1289
(dp1290
g107
(dp1291
sg116
g497
sg109
(lp1292
g102
(g123
g104
NtRp1293
(dp1294
g107
(dp1295
g127
g128
ssg116
g1289
sg109
(lp1296
S'wsgi_multiprocess'
p1297
asbag102
(g123
g104
NtRp1298
(dp1299
g107
(dp1300
g134
g135
ssg116
g1289
sg109
(lp1301
S':'
asbag102
(g123
g104
NtRp1302
(dp1303
g107
(dp1304
sg116
g1289
sg109
(lp1305
g102
(g103
g104
NtRp1306
(dp1307
g107
(dp1308
g115
I4
ssg116
g1302
sg109
(lp1309
g145
asbasbasbag102
(g118
g104
NtRp1310
(dp1311
g107
(dp1312
sg116
g497
sg109
(lp1313
g102
(g123
g104
NtRp1314
(dp1315
g107
(dp1316
g127
g128
ssg116
g1310
sg109
(lp1317
S'wsgi_multithread'
p1318
asbag102
(g123
g104
NtRp1319
(dp1320
g107
(dp1321
g134
g135
ssg116
g1310
sg109
(lp1322
S':'
asbag102
(g123
g104
NtRp1323
(dp1324
g107
(dp1325
sg116
g1310
sg109
(lp1326
g102
(g103
g104
NtRp1327
(dp1328
g107
(dp1329
g115
I4
ssg116
g1323
sg109
(lp1330
S'True'
p1331
asbasbasbag102
(g118
g104
NtRp1332
(dp1333
g107
(dp1334
sg116
g497
sg109
(lp1335
g102
(g123
g104
NtRp1336
(dp1337
g107
(dp1338
g127
g128
ssg116
g1332
sg109
(lp1339
S'wsgi_run_once'
p1340
asbag102
(g123
g104
NtRp1341
(dp1342
g107
(dp1343
g134
g135
ssg116
g1332
sg109
(lp1344
S':'
asbag102
(g123
g104
NtRp1345
(dp1346
g107
(dp1347
sg116
g1332
sg109
(lp1348
g102
(g103
g104
NtRp1349
(dp1350
g107
(dp1351
g115
I4
ssg116
g1345
sg109
(lp1352
g145
asbasbasbag102
(g118
g104
NtRp1353
(dp1354
g107
(dp1355
sg116
g497
sg109
(lp1356
g102
(g123
g104
NtRp1357
(dp1358
g107
(dp1359
g127
g128
ssg116
g1353
sg109
(lp1360
S'wsgi_url_scheme'
p1361
asbag102
(g123
g104
NtRp1362
(dp1363
g107
(dp1364
g134
g135
ssg116
g1353
sg109
(lp1365
S':'
asbag102
(g123
g104
NtRp1366
(dp1367
g107
(dp1368
sg116
g1353
sg109
(lp1369
g102
(g103
g104
NtRp1370
(dp1371
g107
(dp1372
g115
I4
ssg116
g1366
sg109
(lp1373
S'http'
p1374
asbasbasbag102
(g118
g104
NtRp1375
(dp1376
g107
(dp1377
sg116
g497
sg109
(lp1378
g102
(g123
g104
NtRp1379
(dp1380
g107
(dp1381
g127
g128
ssg116
g1375
sg109
(lp1382
S'wsgi_version'
p1383
asbag102
(g123
g104
NtRp1384
(dp1385
g107
(dp1386
g134
g135
ssg116
g1375
sg109
(lp1387
S':'
asbag102
(g123
g104
NtRp1388
(dp1389
g107
(dp1390
sg116
g1375
sg109
(lp1391
g102
(g103
g104
NtRp1392
(dp1393
g107
(dp1394
g115
I4
ssg116
g1388
sg109
(lp1395
g102
(g111
g104
NtRp1396
(dp1397
g107
(dp1398
g115
I3
ssg116
Nsg109
(lp1399
g102
(g118
g104
NtRp1400
(dp1401
g107
(dp1402
sg116
g1396
sg109
(lp1403
g102
(g123
g104
NtRp1404
(dp1405
g107
(dp1406
sg116
g1400
sg109
(lp1407
g102
(g103
g104
NtRp1408
(dp1409
g107
(dp1410
g115
I3
ssg116
g1404
sg109
(lp1411
S'1'
asbasbasbag102
(g118
g104
NtRp1412
(dp1413
g107
(dp1414
sg116
g1396
sg109
(lp1415
g102
(g123
g104
NtRp1416
(dp1417
g107
(dp1418
sg116
g1412
sg109
(lp1419
g102
(g103
g104
NtRp1420
(dp1421
g107
(dp1422
g115
I3
ssg116
g1416
sg109
(lp1423
S'0'
asbasbasbasbasbasbasbasbasbasbasbag102
(g118
g104
NtRp1424
(dp1425
g107
(dp1426
sg116
g112
sg109
(lp1427
g102
(g123
g104
NtRp1428
(dp1429
g107
(dp1430
g127
g128
ssg116
g1424
sg109
(lp1431
S'extension'
p1432
asbag102
(g123
g104
NtRp1433
(dp1434
g107
(dp1435
g134
g135
ssg116
g1424
sg109
(lp1436
S':'
asbag102
(g123
g104
NtRp1437
(dp1438
g107
(dp1439
sg116
g1424
sg109
(lp1440
g102
(g103
g104
NtRp1441
(dp1442
g107
(dp1443
g115
I5
ssg116
g1437
sg109
(lp1444
S'html'
p1445
asbasbasbag102
(g118
g104
NtRp1446
(dp1447
g107
(dp1448
sg116
g112
sg109
(lp1449
g102
(g123
g104
NtRp1450
(dp1451
g107
(dp1452
g127
g128
ssg116
g1446
sg109
(lp1453
S'folder'
p1454
asbag102
(g123
g104
NtRp1455
(dp1456
g107
(dp1457
g134
g135
ssg116
g1446
sg109
(lp1458
S':'
asbag102
(g123
g104
NtRp1459
(dp1460
g107
(dp1461
sg116
g1446
sg109
(lp1462
g102
(g103
g104
NtRp1463
(dp1464
g107
(dp1465
g115
I5
ssg116
g1459
sg109
(lp1466
S'/home/pooja/web2py/applications/newsapp/'
p1467
asbasbasbag102
(g118
g104
NtRp1468
(dp1469
g107
(dp1470
sg116
g112
sg109
(lp1471
g102
(g123
g104
NtRp1472
(dp1473
g107
(dp1474
g127
g128
ssg116
g1468
sg109
(lp1475
S'function'
p1476
asbag102
(g123
g104
NtRp1477
(dp1478
g107
(dp1479
g134
g135
ssg116
g1468
sg109
(lp1480
S':'
asbag102
(g123
g104
NtRp1481
(dp1482
g107
(dp1483
sg116
g1468
sg109
(lp1484
g102
(g103
g104
NtRp1485
(dp1486
g107
(dp1487
g115
I5
ssg116
g1481
sg109
(lp1488
S'fbuser'
p1489
asbasbasbag102
(g118
g104
NtRp1490
(dp1491
g107
(dp1492
sg116
g112
sg109
(lp1493
g102
(g123
g104
NtRp1494
(dp1495
g107
(dp1496
g127
g128
ssg116
g1490
sg109
(lp1497
S'get_vars'
p1498
asbag102
(g123
g104
NtRp1499
(dp1500
g107
(dp1501
g134
g135
ssg116
g1490
sg109
(lp1502
S':'
asbag102
(g123
g104
NtRp1503
(dp1504
g107
(dp1505
sg116
g1490
sg109
(lp1506
g102
(g103
g104
NtRp1507
(dp1508
g107
(dp1509
g115
I5
ssg116
g1503
sg109
(lp1510
g102
(g111
g104
NtRp1511
(dp1512
g107
(dp1513
g115
I4
ssg116
Nsg109
(lp1514
sbasbasbasbag102
(g118
g104
NtRp1515
(dp1516
g107
(dp1517
sg116
g112
sg109
(lp1518
g102
(g123
g104
NtRp1519
(dp1520
g107
(dp1521
g127
g128
ssg116
g1515
sg109
(lp1522
S'global_settings'
p1523
asbag102
(g123
g104
NtRp1524
(dp1525
g107
(dp1526
g134
g135
ssg116
g1515
sg109
(lp1527
S':'
asbag102
(g123
g104
NtRp1528
(dp1529
g107
(dp1530
sg116
g1515
sg109
(lp1531
g102
(g103
g104
NtRp1532
(dp1533
g107
(dp1534
g115
I5
ssg116
g1528
sg109
(lp1535
g102
(g111
g104
NtRp1536
(dp1537
g107
(dp1538
g115
I4
ssg116
Nsg109
(lp1539
g102
(g118
g104
NtRp1540
(dp1541
g107
(dp1542
sg116
g1536
sg109
(lp1543
g102
(g123
g104
NtRp1544
(dp1545
g107
(dp1546
g127
g128
ssg116
g1540
sg109
(lp1547
g509
asbag102
(g123
g104
NtRp1548
(dp1549
g107
(dp1550
g134
g135
ssg116
g1540
sg109
(lp1551
S':'
asbag102
(g123
g104
NtRp1552
(dp1553
g107
(dp1554
sg116
g1540
sg109
(lp1555
g102
(g103
g104
NtRp1556
(dp1557
g107
(dp1558
g115
I4
ssg116
g1552
sg109
(lp1559
S"set(['/home/pooja/web2py/applications/admin/', '/home/pooja/web2py/applications/newsapp/', '/home/pooja/web2py/applications/welcome/'])"
p1560
asbasbasbag102
(g118
g104
NtRp1561
(dp1562
g107
(dp1563
sg116
g1536
sg109
(lp1564
g102
(g123
g104
NtRp1565
(dp1566
g107
(dp1567
g127
g128
ssg116
g1561
sg109
(lp1568
g531
asbag102
(g123
g104
NtRp1569
(dp1570
g107
(dp1571
g134
g135
ssg116
g1561
sg109
(lp1572
S':'
asbag102
(g123
g104
NtRp1573
(dp1574
g107
(dp1575
sg116
g1561
sg109
(lp1576
g102
(g103
g104
NtRp1577
(dp1578
g107
(dp1579
g115
I4
ssg116
g1573
sg109
(lp1580
g544
asbasbasbag102
(g118
g104
NtRp1581
(dp1582
g107
(dp1583
sg116
g1536
sg109
(lp1584
g102
(g123
g104
NtRp1585
(dp1586
g107
(dp1587
g127
g128
ssg116
g1581
sg109
(lp1588
g553
asbag102
(g123
g104
NtRp1589
(dp1590
g107
(dp1591
g134
g135
ssg116
g1581
sg109
(lp1592
S':'
asbag102
(g123
g104
NtRp1593
(dp1594
g107
(dp1595
sg116
g1581
sg109
(lp1596
g102
(g103
g104
NtRp1597
(dp1598
g107
(dp1599
g115
I4
ssg116
g1593
sg109
(lp1600
g102
(g111
g104
NtRp1601
(dp1602
g107
(dp1603
g115
I3
ssg116
Nsg109
(lp1604
sbasbasbasbag102
(g118
g104
NtRp1605
(dp1606
g107
(dp1607
sg116
g1536
sg109
(lp1608
g102
(g123
g104
NtRp1609
(dp1610
g107
(dp1611
g127
g128
ssg116
g1605
sg109
(lp1612
g578
asbag102
(g123
g104
NtRp1613
(dp1614
g107
(dp1615
g134
g135
ssg116
g1605
sg109
(lp1616
S':'
asbag102
(g123
g104
NtRp1617
(dp1618
g107
(dp1619
sg116
g1605
sg109
(lp1620
g102
(g103
g104
NtRp1621
(dp1622
g107
(dp1623
g115
I4
ssg116
g1617
sg109
(lp1624
S"<Values at 0x7f8ec06a5908: {'verbose': False, 'ip': '127.0.0.1', 'shutdown_timeout': 5, 'taskbar': False, 'nocron': False, 'pid_filename': 'httpserver.pid', 'maxthreads': None, 'softcron': False, 'server_name': 'pooja-HP-15-Notebook-PC', 'bpython': False, 'nogui': False, 'port': 8000, 'extcron': False, 'debuglevel': 30, 'test': None, 'folder': '/home/pooja/web2py', 'config': '', 'import_models': False, 'winservice': '', 'shell': None, 'run': '', 'log_filename': 'httpserver.log', 'args': [''], 'socket_timeout': 5, 'ssl_ca_certificate': None, 'scheduler': None, 'profiler_filename': None, 'ssl_private_key': '', 'password': '<ask>', 'request_queue_size': 5, 'ssl_certificate': '', 'cronjob': False, 'numthreads': None, 'quiet': False, 'interfaces': None, 'minthreads': None, 'timeout': 10, 'plain': False, 'nobanner': False}>"
p1625
asbasbasbag102
(g118
g104
NtRp1626
(dp1627
g107
(dp1628
sg116
g1536
sg109
(lp1629
g102
(g123
g104
NtRp1630
(dp1631
g107
(dp1632
g127
g128
ssg116
g1626
sg109
(lp1633
g600
asbag102
(g123
g104
NtRp1634
(dp1635
g107
(dp1636
g134
g135
ssg116
g1626
sg109
(lp1637
S':'
asbag102
(g123
g104
NtRp1638
(dp1639
g107
(dp1640
sg116
g1626
sg109
(lp1641
g102
(g103
g104
NtRp1642
(dp1643
g107
(dp1644
g115
I4
ssg116
g1638
sg109
(lp1645
S'set([])'
p1646
asbasbasbag102
(g118
g104
NtRp1647
(dp1648
g107
(dp1649
sg116
g1536
sg109
(lp1650
g102
(g123
g104
NtRp1651
(dp1652
g107
(dp1653
g127
g128
ssg116
g1647
sg109
(lp1654
g622
asbag102
(g123
g104
NtRp1655
(dp1656
g107
(dp1657
g134
g135
ssg116
g1647
sg109
(lp1658
S':'
asbag102
(g123
g104
NtRp1659
(dp1660
g107
(dp1661
sg116
g1647
sg109
(lp1662
g102
(g103
g104
NtRp1663
(dp1664
g107
(dp1665
g115
I4
ssg116
g1659
sg109
(lp1666
g145
asbasbasbag102
(g118
g104
NtRp1667
(dp1668
g107
(dp1669
sg116
g1536
sg109
(lp1670
g102
(g123
g104
NtRp1671
(dp1672
g107
(dp1673
g127
g128
ssg116
g1667
sg109
(lp1674
g643
asbag102
(g123
g104
NtRp1675
(dp1676
g107
(dp1677
g134
g135
ssg116
g1667
sg109
(lp1678
S':'
asbag102
(g123
g104
NtRp1679
(dp1680
g107
(dp1681
sg116
g1667
sg109
(lp1682
g102
(g103
g104
NtRp1683
(dp1684
g107
(dp1685
g115
I4
ssg116
g1679
sg109
(lp1686
g656
asbasbasbag102
(g118
g104
NtRp1687
(dp1688
g107
(dp1689
sg116
g1536
sg109
(lp1690
g102
(g123
g104
NtRp1691
(dp1692
g107
(dp1693
g127
g128
ssg116
g1687
sg109
(lp1694
g841
asbag102
(g123
g104
NtRp1695
(dp1696
g107
(dp1697
g134
g135
ssg116
g1687
sg109
(lp1698
S':'
asbag102
(g123
g104
NtRp1699
(dp1700
g107
(dp1701
sg116
g1687
sg109
(lp1702
g102
(g103
g104
NtRp1703
(dp1704
g107
(dp1705
g115
I4
ssg116
g1699
sg109
(lp1706
g145
asbasbasbag102
(g118
g104
NtRp1707
(dp1708
g107
(dp1709
sg116
g1536
sg109
(lp1710
g102
(g123
g104
NtRp1711
(dp1712
g107
(dp1713
g127
g128
ssg116
g1707
sg109
(lp1714
g862
asbag102
(g123
g104
NtRp1715
(dp1716
g107
(dp1717
g134
g135
ssg116
g1707
sg109
(lp1718
S':'
asbag102
(g123
g104
NtRp1719
(dp1720
g107
(dp1721
sg116
g1707
sg109
(lp1722
g102
(g103
g104
NtRp1723
(dp1724
g107
(dp1725
g115
I4
ssg116
g1719
sg109
(lp1726
g145
asbasbasbag102
(g118
g104
NtRp1727
(dp1728
g107
(dp1729
sg116
g1536
sg109
(lp1730
g102
(g123
g104
NtRp1731
(dp1732
g107
(dp1733
g127
g128
ssg116
g1727
sg109
(lp1734
g1100
asbag102
(g123
g104
NtRp1735
(dp1736
g107
(dp1737
g134
g135
ssg116
g1727
sg109
(lp1738
S':'
asbag102
(g123
g104
NtRp1739
(dp1740
g107
(dp1741
sg116
g1727
sg109
(lp1742
g102
(g103
g104
NtRp1743
(dp1744
g107
(dp1745
g115
I4
ssg116
g1739
sg109
(lp1746
g1113
asbasbasbag102
(g118
g104
NtRp1747
(dp1748
g107
(dp1749
sg116
g1536
sg109
(lp1750
g102
(g123
g104
NtRp1751
(dp1752
g107
(dp1753
g127
g128
ssg116
g1747
sg109
(lp1754
g1143
asbag102
(g123
g104
NtRp1755
(dp1756
g107
(dp1757
g134
g135
ssg116
g1747
sg109
(lp1758
S':'
asbag102
(g123
g104
NtRp1759
(dp1760
g107
(dp1761
sg116
g1747
sg109
(lp1762
g102
(g103
g104
NtRp1763
(dp1764
g107
(dp1765
g115
I4
ssg116
g1759
sg109
(lp1766
g102
(g111
g104
NtRp1767
(dp1768
g107
(dp1769
g115
I3
ssg116
Nsg109
(lp1770
g102
(g118
g104
NtRp1771
(dp1772
g107
(dp1773
sg116
g1767
sg109
(lp1774
g102
(g123
g104
NtRp1775
(dp1776
g107
(dp1777
sg116
g1771
sg109
(lp1778
g102
(g103
g104
NtRp1779
(dp1780
g107
(dp1781
g115
I3
ssg116
g1775
sg109
(lp1782
S'1'
asbasbasbag102
(g118
g104
NtRp1783
(dp1784
g107
(dp1785
sg116
g1767
sg109
(lp1786
g102
(g123
g104
NtRp1787
(dp1788
g107
(dp1789
sg116
g1783
sg109
(lp1790
g102
(g103
g104
NtRp1791
(dp1792
g107
(dp1793
g115
I3
ssg116
g1787
sg109
(lp1794
S'99'
p1795
asbasbasbag102
(g118
g104
NtRp1796
(dp1797
g107
(dp1798
sg116
g1767
sg109
(lp1799
g102
(g123
g104
NtRp1800
(dp1801
g107
(dp1802
sg116
g1796
sg109
(lp1803
g102
(g103
g104
NtRp1804
(dp1805
g107
(dp1806
g115
I3
ssg116
g1800
sg109
(lp1807
S'7'
asbasbasbag102
(g118
g104
NtRp1808
(dp1809
g107
(dp1810
sg116
g1767
sg109
(lp1811
g102
(g123
g104
NtRp1812
(dp1813
g107
(dp1814
sg116
g1808
sg109
(lp1815
g102
(g103
g104
NtRp1816
(dp1817
g107
(dp1818
g115
I3
ssg116
g1812
sg109
(lp1819
S'datetime.datetime(2012, 3, 4, 22, 12, 8)'
p1820
asbasbasbag102
(g118
g104
NtRp1821
(dp1822
g107
(dp1823
sg116
g1767
sg109
(lp1824
g102
(g123
g104
NtRp1825
(dp1826
g107
(dp1827
sg116
g1821
sg109
(lp1828
g102
(g103
g104
NtRp1829
(dp1830
g107
(dp1831
g115
I3
ssg116
g1825
sg109
(lp1832
g1222
asbasbasbasbasbasbasbasbasbasbasbag102
(g118
g104
NtRp1833
(dp1834
g107
(dp1835
sg116
g112
sg109
(lp1836
g102
(g123
g104
NtRp1837
(dp1838
g107
(dp1839
g127
g128
ssg116
g1833
sg109
(lp1840
S'is_https'
p1841
asbag102
(g123
g104
NtRp1842
(dp1843
g107
(dp1844
g134
g135
ssg116
g1833
sg109
(lp1845
S':'
asbag102
(g123
g104
NtRp1846
(dp1847
g107
(dp1848
sg116
g1833
sg109
(lp1849
g102
(g103
g104
NtRp1850
(dp1851
g107
(dp1852
g115
I5
ssg116
g1846
sg109
(lp1853
g145
asbasbasbag102
(g118
g104
NtRp1854
(dp1855
g107
(dp1856
sg116
g112
sg109
(lp1857
g102
(g123
g104
NtRp1858
(dp1859
g107
(dp1860
g127
g128
ssg116
g1854
sg109
(lp1861
S'is_local'
p1862
asbag102
(g123
g104
NtRp1863
(dp1864
g107
(dp1865
g134
g135
ssg116
g1854
sg109
(lp1866
S':'
asbag102
(g123
g104
NtRp1867
(dp1868
g107
(dp1869
sg116
g1854
sg109
(lp1870
g102
(g103
g104
NtRp1871
(dp1872
g107
(dp1873
g115
I5
ssg116
g1867
sg109
(lp1874
g1331
asbasbasbag102
(g118
g104
NtRp1875
(dp1876
g107
(dp1877
sg116
g112
sg109
(lp1878
g102
(g123
g104
NtRp1879
(dp1880
g107
(dp1881
g127
g128
ssg116
g1875
sg109
(lp1882
S'is_restful'
p1883
asbag102
(g123
g104
NtRp1884
(dp1885
g107
(dp1886
g134
g135
ssg116
g1875
sg109
(lp1887
S':'
asbag102
(g123
g104
NtRp1888
(dp1889
g107
(dp1890
sg116
g1875
sg109
(lp1891
g102
(g103
g104
NtRp1892
(dp1893
g107
(dp1894
g115
I5
ssg116
g1888
sg109
(lp1895
g145
asbasbasbag102
(g118
g104
NtRp1896
(dp1897
g107
(dp1898
sg116
g112
sg109
(lp1899
g102
(g123
g104
NtRp1900
(dp1901
g107
(dp1902
g127
g128
ssg116
g1896
sg109
(lp1903
S'now'
p1904
asbag102
(g123
g104
NtRp1905
(dp1906
g107
(dp1907
g134
g135
ssg116
g1896
sg109
(lp1908
S':'
asbag102
(g123
g104
NtRp1909
(dp1910
g107
(dp1911
sg116
g1896
sg109
(lp1912
g102
(g103
g104
NtRp1913
(dp1914
g107
(dp1915
g115
I5
ssg116
g1909
sg109
(lp1916
S'datetime.datetime(2015, 5, 9, 17, 2, 14, 519038)'
p1917
asbasbasbag102
(g118
g104
NtRp1918
(dp1919
g107
(dp1920
sg116
g112
sg109
(lp1921
g102
(g123
g104
NtRp1922
(dp1923
g107
(dp1924
g127
g128
ssg116
g1918
sg109
(lp1925
S'post_vars'
p1926
asbag102
(g123
g104
NtRp1927
(dp1928
g107
(dp1929
g134
g135
ssg116
g1918
sg109
(lp1930
S':'
asbag102
(g123
g104
NtRp1931
(dp1932
g107
(dp1933
sg116
g1918
sg109
(lp1934
g102
(g103
g104
NtRp1935
(dp1936
g107
(dp1937
g115
I5
ssg116
g1931
sg109
(lp1938
g102
(g111
g104
NtRp1939
(dp1940
g107
(dp1941
g115
I4
ssg116
Nsg109
(lp1942
sbasbasbasbag102
(g118
g104
NtRp1943
(dp1944
g107
(dp1945
sg116
g112
sg109
(lp1946
g102
(g123
g104
NtRp1947
(dp1948
g107
(dp1949
g127
g128
ssg116
g1943
sg109
(lp1950
g87
asbag102
(g123
g104
NtRp1951
(dp1952
g107
(dp1953
g134
g135
ssg116
g1943
sg109
(lp1954
S':'
asbag102
(g123
g104
NtRp1955
(dp1956
g107
(dp1957
sg116
g1943
sg109
(lp1958
g102
(g103
g104
NtRp1959
(dp1960
g107
(dp1961
g115
I5
ssg116
g1955
sg109
(lp1962
S'/newsapp/default/fbuser'
p1963
asbasbasbag102
(g118
g104
NtRp1964
(dp1965
g107
(dp1966
sg116
g112
sg109
(lp1967
g102
(g123
g104
NtRp1968
(dp1969
g107
(dp1970
g127
g128
ssg116
g1964
sg109
(lp1971
S'utcnow'
p1972
asbag102
(g123
g104
NtRp1973
(dp1974
g107
(dp1975
g134
g135
ssg116
g1964
sg109
(lp1976
S':'
asbag102
(g123
g104
NtRp1977
(dp1978
g107
(dp1979
sg116
g1964
sg109
(lp1980
g102
(g103
g104
NtRp1981
(dp1982
g107
(dp1983
g115
I5
ssg116
g1977
sg109
(lp1984
S'datetime.datetime(2015, 5, 9, 11, 32, 14, 519096)'
p1985
asbasbasbag102
(g118
g104
NtRp1986
(dp1987
g107
(dp1988
sg116
g112
sg109
(lp1989
g102
(g123
g104
NtRp1990
(dp1991
g107
(dp1992
g127
g128
ssg116
g1986
sg109
(lp1993
S'uuid'
p1994
asbag102
(g123
g104
NtRp1995
(dp1996
g107
(dp1997
g134
g135
ssg116
g1986
sg109
(lp1998
S':'
asbag102
(g123
g104
NtRp1999
(dp2000
g107
(dp2001
sg116
g1986
sg109
(lp2002
g102
(g103
g104
NtRp2003
(dp2004
g107
(dp2005
g115
I5
ssg116
g1999
sg109
(lp2006
S'newsapp/127.0.0.1.2015-05-09.17-02-14.f3adbf78-e3c2-420a-877f-80592f26e0dc'
p2007
asbasbasbag102
(g118
g104
NtRp2008
(dp2009
g107
(dp2010
sg116
g112
sg109
(lp2011
g102
(g123
g104
NtRp2012
(dp2013
g107
(dp2014
g127
g128
ssg116
g2008
sg109
(lp2015
S'vars'
p2016
asbag102
(g123
g104
NtRp2017
(dp2018
g107
(dp2019
g134
g135
ssg116
g2008
sg109
(lp2020
S':'
asbag102
(g123
g104
NtRp2021
(dp2022
g107
(dp2023
sg116
g2008
sg109
(lp2024
g102
(g103
g104
NtRp2025
(dp2026
g107
(dp2027
g115
I5
ssg116
g2021
sg109
(lp2028
g102
(g111
g104
NtRp2029
(dp2030
g107
(dp2031
g115
I4
ssg116
Nsg109
(lp2032
sbasbasbasbag102
(g118
g104
NtRp2033
(dp2034
g107
(dp2035
sg116
g112
sg109
(lp2036
g102
(g123
g104
NtRp2037
(dp2038
g107
(dp2039
g127
g128
ssg116
g2033
sg109
(lp2040
S'wsgi'
p2041
asbag102
(g123
g104
NtRp2042
(dp2043
g107
(dp2044
g134
g135
ssg116
g2033
sg109
(lp2045
S':'
asbag102
(g123
g104
NtRp2046
(dp2047
g107
(dp2048
sg116
g2033
sg109
(lp2049
g102
(g103
g104
NtRp2050
(dp2051
g107
(dp2052
g115
I5
ssg116
g2046
sg109
(lp2053
g102
(g111
g104
NtRp2054
(dp2055
g107
(dp2056
g115
I4
ssg116
Nsg109
(lp2057
g102
(g118
g104
NtRp2058
(dp2059
g107
(dp2060
sg116
g2054
sg109
(lp2061
g102
(g123
g104
NtRp2062
(dp2063
g107
(dp2064
g127
g128
ssg116
g2058
sg109
(lp2065
S'environ'
p2066
asbag102
(g123
g104
NtRp2067
(dp2068
g107
(dp2069
g134
g135
ssg116
g2058
sg109
(lp2070
S':'
asbag102
(g123
g104
NtRp2071
(dp2072
g107
(dp2073
sg116
g2058
sg109
(lp2074
g102
(g103
g104
NtRp2075
(dp2076
g107
(dp2077
g115
I4
ssg116
g2071
sg109
(lp2078
g102
(g111
g104
NtRp2079
(dp2080
g107
(dp2081
g115
I3
ssg116
Nsg109
(lp2082
g102
(g118
g104
NtRp2083
(dp2084
g107
(dp2085
sg116
g2079
sg109
(lp2086
g102
(g123
g104
NtRp2087
(dp2088
g107
(dp2089
g127
g128
ssg116
g2083
sg109
(lp2090
S'HTTP_ACCEPT'
p2091
asbag102
(g123
g104
NtRp2092
(dp2093
g107
(dp2094
g134
g135
ssg116
g2083
sg109
(lp2095
S':'
asbag102
(g123
g104
NtRp2096
(dp2097
g107
(dp2098
sg116
g2083
sg109
(lp2099
g102
(g103
g104
NtRp2100
(dp2101
g107
(dp2102
g115
I3
ssg116
g2096
sg109
(lp2103
g678
asbasbasbag102
(g118
g104
NtRp2104
(dp2105
g107
(dp2106
sg116
g2079
sg109
(lp2107
g102
(g123
g104
NtRp2108
(dp2109
g107
(dp2110
g127
g128
ssg116
g2104
sg109
(lp2111
S'HTTP_ACCEPT_ENCODING'
p2112
asbag102
(g123
g104
NtRp2113
(dp2114
g107
(dp2115
g134
g135
ssg116
g2104
sg109
(lp2116
S':'
asbag102
(g123
g104
NtRp2117
(dp2118
g107
(dp2119
sg116
g2104
sg109
(lp2120
g102
(g103
g104
NtRp2121
(dp2122
g107
(dp2123
g115
I3
ssg116
g2117
sg109
(lp2124
g700
asbasbasbag102
(g118
g104
NtRp2125
(dp2126
g107
(dp2127
sg116
g2079
sg109
(lp2128
g102
(g123
g104
NtRp2129
(dp2130
g107
(dp2131
g127
g128
ssg116
g2125
sg109
(lp2132
S'HTTP_ACCEPT_LANGUAGE'
p2133
asbag102
(g123
g104
NtRp2134
(dp2135
g107
(dp2136
g134
g135
ssg116
g2125
sg109
(lp2137
S':'
asbag102
(g123
g104
NtRp2138
(dp2139
g107
(dp2140
sg116
g2125
sg109
(lp2141
g102
(g103
g104
NtRp2142
(dp2143
g107
(dp2144
g115
I3
ssg116
g2138
sg109
(lp2145
g722
asbasbasbag102
(g118
g104
NtRp2146
(dp2147
g107
(dp2148
sg116
g2079
sg109
(lp2149
g102
(g123
g104
NtRp2150
(dp2151
g107
(dp2152
g127
g128
ssg116
g2146
sg109
(lp2153
S'HTTP_CONNECTION'
p2154
asbag102
(g123
g104
NtRp2155
(dp2156
g107
(dp2157
g134
g135
ssg116
g2146
sg109
(lp2158
S':'
asbag102
(g123
g104
NtRp2159
(dp2160
g107
(dp2161
sg116
g2146
sg109
(lp2162
g102
(g103
g104
NtRp2163
(dp2164
g107
(dp2165
g115
I3
ssg116
g2159
sg109
(lp2166
g744
asbasbasbag102
(g118
g104
NtRp2167
(dp2168
g107
(dp2169
sg116
g2079
sg109
(lp2170
g102
(g123
g104
NtRp2171
(dp2172
g107
(dp2173
g127
g128
ssg116
g2167
sg109
(lp2174
S'HTTP_COOKIE'
p2175
asbag102
(g123
g104
NtRp2176
(dp2177
g107
(dp2178
g134
g135
ssg116
g2167
sg109
(lp2179
S':'
asbag102
(g123
g104
NtRp2180
(dp2181
g107
(dp2182
sg116
g2167
sg109
(lp2183
g102
(g103
g104
NtRp2184
(dp2185
g107
(dp2186
g115
I3
ssg116
g2180
sg109
(lp2187
g766
asbasbasbag102
(g118
g104
NtRp2188
(dp2189
g107
(dp2190
sg116
g2079
sg109
(lp2191
g102
(g123
g104
NtRp2192
(dp2193
g107
(dp2194
g127
g128
ssg116
g2188
sg109
(lp2195
S'HTTP_HOST'
p2196
asbag102
(g123
g104
NtRp2197
(dp2198
g107
(dp2199
g134
g135
ssg116
g2188
sg109
(lp2200
S':'
asbag102
(g123
g104
NtRp2201
(dp2202
g107
(dp2203
sg116
g2188
sg109
(lp2204
g102
(g103
g104
NtRp2205
(dp2206
g107
(dp2207
g115
I3
ssg116
g2201
sg109
(lp2208
g788
asbasbasbag102
(g118
g104
NtRp2209
(dp2210
g107
(dp2211
sg116
g2079
sg109
(lp2212
g102
(g123
g104
NtRp2213
(dp2214
g107
(dp2215
g127
g128
ssg116
g2209
sg109
(lp2216
S'HTTP_REFERER'
p2217
asbag102
(g123
g104
NtRp2218
(dp2219
g107
(dp2220
g134
g135
ssg116
g2209
sg109
(lp2221
S':'
asbag102
(g123
g104
NtRp2222
(dp2223
g107
(dp2224
sg116
g2209
sg109
(lp2225
g102
(g103
g104
NtRp2226
(dp2227
g107
(dp2228
g115
I3
ssg116
g2222
sg109
(lp2229
g810
asbasbasbag102
(g118
g104
NtRp2230
(dp2231
g107
(dp2232
sg116
g2079
sg109
(lp2233
g102
(g123
g104
NtRp2234
(dp2235
g107
(dp2236
g127
g128
ssg116
g2230
sg109
(lp2237
S'HTTP_USER_AGENT'
p2238
asbag102
(g123
g104
NtRp2239
(dp2240
g107
(dp2241
g134
g135
ssg116
g2230
sg109
(lp2242
S':'
asbag102
(g123
g104
NtRp2243
(dp2244
g107
(dp2245
sg116
g2230
sg109
(lp2246
g102
(g103
g104
NtRp2247
(dp2248
g107
(dp2249
g115
I3
ssg116
g2243
sg109
(lp2250
g832
asbasbasbag102
(g118
g104
NtRp2251
(dp2252
g107
(dp2253
sg116
g2079
sg109
(lp2254
g102
(g123
g104
NtRp2255
(dp2256
g107
(dp2257
g127
g128
ssg116
g2251
sg109
(lp2258
S'PATH_INFO'
p2259
asbag102
(g123
g104
NtRp2260
(dp2261
g107
(dp2262
g134
g135
ssg116
g2251
sg109
(lp2263
S':'
asbag102
(g123
g104
NtRp2264
(dp2265
g107
(dp2266
sg116
g2251
sg109
(lp2267
g102
(g103
g104
NtRp2268
(dp2269
g107
(dp2270
g115
I3
ssg116
g2264
sg109
(lp2271
g896
asbasbasbag102
(g118
g104
NtRp2272
(dp2273
g107
(dp2274
sg116
g2079
sg109
(lp2275
g102
(g123
g104
NtRp2276
(dp2277
g107
(dp2278
g127
g128
ssg116
g2272
sg109
(lp2279
S'QUERY_STRING'
p2280
asbag102
(g123
g104
NtRp2281
(dp2282
g107
(dp2283
g134
g135
ssg116
g2272
sg109
(lp2284
S':'
asbag102
(g123
g104
NtRp2285
(dp2286
g107
(dp2287
sg116
g2272
sg109
(lp2288
g102
(g103
g104
NtRp2289
(dp2290
g107
(dp2291
g115
I3
ssg116
g2285
sg109
(lp2292
S''
asbasbasbag102
(g118
g104
NtRp2293
(dp2294
g107
(dp2295
sg116
g2079
sg109
(lp2296
g102
(g123
g104
NtRp2297
(dp2298
g107
(dp2299
g127
g128
ssg116
g2293
sg109
(lp2300
S'REMOTE_ADDR'
p2301
asbag102
(g123
g104
NtRp2302
(dp2303
g107
(dp2304
g134
g135
ssg116
g2293
sg109
(lp2305
S':'
asbag102
(g123
g104
NtRp2306
(dp2307
g107
(dp2308
sg116
g2293
sg109
(lp2309
g102
(g103
g104
NtRp2310
(dp2311
g107
(dp2312
g115
I3
ssg116
g2306
sg109
(lp2313
g235
asbasbasbag102
(g118
g104
NtRp2314
(dp2315
g107
(dp2316
sg116
g2079
sg109
(lp2317
g102
(g123
g104
NtRp2318
(dp2319
g107
(dp2320
g127
g128
ssg116
g2314
sg109
(lp2321
S'REMOTE_PORT'
p2322
asbag102
(g123
g104
NtRp2323
(dp2324
g107
(dp2325
g134
g135
ssg116
g2314
sg109
(lp2326
S':'
asbag102
(g123
g104
NtRp2327
(dp2328
g107
(dp2329
sg116
g2314
sg109
(lp2330
g102
(g103
g104
NtRp2331
(dp2332
g107
(dp2333
g115
I3
ssg116
g2327
sg109
(lp2334
g960
asbasbasbag102
(g118
g104
NtRp2335
(dp2336
g107
(dp2337
sg116
g2079
sg109
(lp2338
g102
(g123
g104
NtRp2339
(dp2340
g107
(dp2341
g127
g128
ssg116
g2335
sg109
(lp2342
S'REQUEST_METHOD'
p2343
asbag102
(g123
g104
NtRp2344
(dp2345
g107
(dp2346
g134
g135
ssg116
g2335
sg109
(lp2347
S':'
asbag102
(g123
g104
NtRp2348
(dp2349
g107
(dp2350
sg116
g2335
sg109
(lp2351
g102
(g103
g104
NtRp2352
(dp2353
g107
(dp2354
g115
I3
ssg116
g2348
sg109
(lp2355
g982
asbasbasbag102
(g118
g104
NtRp2356
(dp2357
g107
(dp2358
sg116
g2079
sg109
(lp2359
g102
(g123
g104
NtRp2360
(dp2361
g107
(dp2362
g127
g128
ssg116
g2356
sg109
(lp2363
S'SCRIPT_NAME'
p2364
asbag102
(g123
g104
NtRp2365
(dp2366
g107
(dp2367
g134
g135
ssg116
g2356
sg109
(lp2368
S':'
asbag102
(g123
g104
NtRp2369
(dp2370
g107
(dp2371
sg116
g2356
sg109
(lp2372
g102
(g103
g104
NtRp2373
(dp2374
g107
(dp2375
g115
I3
ssg116
g2369
sg109
(lp2376
S''
asbasbasbag102
(g118
g104
NtRp2377
(dp2378
g107
(dp2379
sg116
g2079
sg109
(lp2380
g102
(g123
g104
NtRp2381
(dp2382
g107
(dp2383
g127
g128
ssg116
g2377
sg109
(lp2384
S'SERVER_NAME'
p2385
asbag102
(g123
g104
NtRp2386
(dp2387
g107
(dp2388
g134
g135
ssg116
g2377
sg109
(lp2389
S':'
asbag102
(g123
g104
NtRp2390
(dp2391
g107
(dp2392
sg116
g2377
sg109
(lp2393
g102
(g103
g104
NtRp2394
(dp2395
g107
(dp2396
g115
I3
ssg116
g2390
sg109
(lp2397
g1025
asbasbasbag102
(g118
g104
NtRp2398
(dp2399
g107
(dp2400
sg116
g2079
sg109
(lp2401
g102
(g123
g104
NtRp2402
(dp2403
g107
(dp2404
g127
g128
ssg116
g2398
sg109
(lp2405
S'SERVER_PORT'
p2406
asbag102
(g123
g104
NtRp2407
(dp2408
g107
(dp2409
g134
g135
ssg116
g2398
sg109
(lp2410
S':'
asbag102
(g123
g104
NtRp2411
(dp2412
g107
(dp2413
sg116
g2398
sg109
(lp2414
g102
(g103
g104
NtRp2415
(dp2416
g107
(dp2417
g115
I3
ssg116
g2411
sg109
(lp2418
g1047
asbasbasbag102
(g118
g104
NtRp2419
(dp2420
g107
(dp2421
sg116
g2079
sg109
(lp2422
g102
(g123
g104
NtRp2423
(dp2424
g107
(dp2425
g127
g128
ssg116
g2419
sg109
(lp2426
S'SERVER_PROTOCOL'
p2427
asbag102
(g123
g104
NtRp2428
(dp2429
g107
(dp2430
g134
g135
ssg116
g2419
sg109
(lp2431
S':'
asbag102
(g123
g104
NtRp2432
(dp2433
g107
(dp2434
sg116
g2419
sg109
(lp2435
g102
(g103
g104
NtRp2436
(dp2437
g107
(dp2438
g115
I3
ssg116
g2432
sg109
(lp2439
g1069
asbasbasbag102
(g118
g104
NtRp2440
(dp2441
g107
(dp2442
sg116
g2079
sg109
(lp2443
g102
(g123
g104
NtRp2444
(dp2445
g107
(dp2446
g127
g128
ssg116
g2440
sg109
(lp2447
S'SERVER_SOFTWARE'
p2448
asbag102
(g123
g104
NtRp2449
(dp2450
g107
(dp2451
g134
g135
ssg116
g2440
sg109
(lp2452
S':'
asbag102
(g123
g104
NtRp2453
(dp2454
g107
(dp2455
sg116
g2440
sg109
(lp2456
g102
(g103
g104
NtRp2457
(dp2458
g107
(dp2459
g115
I3
ssg116
g2453
sg109
(lp2460
g1091
asbasbasbag102
(g118
g104
NtRp2461
(dp2462
g107
(dp2463
sg116
g2079
sg109
(lp2464
g102
(g123
g104
NtRp2465
(dp2466
g107
(dp2467
g127
g128
ssg116
g2461
sg109
(lp2468
S'wsgi.errors'
p2469
asbag102
(g123
g104
NtRp2470
(dp2471
g107
(dp2472
g134
g135
ssg116
g2461
sg109
(lp2473
S':'
asbag102
(g123
g104
NtRp2474
(dp2475
g107
(dp2476
sg116
g2461
sg109
(lp2477
g102
(g103
g104
NtRp2478
(dp2479
g107
(dp2480
g115
I3
ssg116
g2474
sg109
(lp2481
S"<open file '<stderr>', mode 'w' at 0x7f8ec51111e0>"
p2482
asbasbasbag102
(g118
g104
NtRp2483
(dp2484
g107
(dp2485
sg116
g2079
sg109
(lp2486
g102
(g123
g104
NtRp2487
(dp2488
g107
(dp2489
g127
g128
ssg116
g2483
sg109
(lp2490
S'wsgi.file_wrapper'
p2491
asbag102
(g123
g104
NtRp2492
(dp2493
g107
(dp2494
g134
g135
ssg116
g2483
sg109
(lp2495
S':'
asbag102
(g123
g104
NtRp2496
(dp2497
g107
(dp2498
sg116
g2483
sg109
(lp2499
g102
(g103
g104
NtRp2500
(dp2501
g107
(dp2502
g115
I3
ssg116
g2496
sg109
(lp2503
S'<class wsgiref.util.FileWrapper at 0x7f8ec08a8870>'
p2504
asbasbasbag102
(g118
g104
NtRp2505
(dp2506
g107
(dp2507
sg116
g2079
sg109
(lp2508
g102
(g123
g104
NtRp2509
(dp2510
g107
(dp2511
g127
g128
ssg116
g2505
sg109
(lp2512
S'wsgi.input'
p2513
asbag102
(g123
g104
NtRp2514
(dp2515
g107
(dp2516
g134
g135
ssg116
g2505
sg109
(lp2517
S':'
asbag102
(g123
g104
NtRp2518
(dp2519
g107
(dp2520
sg116
g2505
sg109
(lp2521
g102
(g103
g104
NtRp2522
(dp2523
g107
(dp2524
g115
I3
ssg116
g2518
sg109
(lp2525
S'<cStringIO.StringO object at 0x7f8e844c6068>'
p2526
asbasbasbag102
(g118
g104
NtRp2527
(dp2528
g107
(dp2529
sg116
g2079
sg109
(lp2530
g102
(g123
g104
NtRp2531
(dp2532
g107
(dp2533
g127
g128
ssg116
g2527
sg109
(lp2534
S'wsgi.multiprocess'
p2535
asbag102
(g123
g104
NtRp2536
(dp2537
g107
(dp2538
g134
g135
ssg116
g2527
sg109
(lp2539
S':'
asbag102
(g123
g104
NtRp2540
(dp2541
g107
(dp2542
sg116
g2527
sg109
(lp2543
g102
(g103
g104
NtRp2544
(dp2545
g107
(dp2546
g115
I3
ssg116
g2540
sg109
(lp2547
g145
asbasbasbag102
(g118
g104
NtRp2548
(dp2549
g107
(dp2550
sg116
g2079
sg109
(lp2551
g102
(g123
g104
NtRp2552
(dp2553
g107
(dp2554
g127
g128
ssg116
g2548
sg109
(lp2555
S'wsgi.multithread'
p2556
asbag102
(g123
g104
NtRp2557
(dp2558
g107
(dp2559
g134
g135
ssg116
g2548
sg109
(lp2560
S':'
asbag102
(g123
g104
NtRp2561
(dp2562
g107
(dp2563
sg116
g2548
sg109
(lp2564
g102
(g103
g104
NtRp2565
(dp2566
g107
(dp2567
g115
I3
ssg116
g2561
sg109
(lp2568
g1331
asbasbasbag102
(g118
g104
NtRp2569
(dp2570
g107
(dp2571
sg116
g2079
sg109
(lp2572
g102
(g123
g104
NtRp2573
(dp2574
g107
(dp2575
g127
g128
ssg116
g2569
sg109
(lp2576
S'wsgi.run_once'
p2577
asbag102
(g123
g104
NtRp2578
(dp2579
g107
(dp2580
g134
g135
ssg116
g2569
sg109
(lp2581
S':'
asbag102
(g123
g104
NtRp2582
(dp2583
g107
(dp2584
sg116
g2569
sg109
(lp2585
g102
(g103
g104
NtRp2586
(dp2587
g107
(dp2588
g115
I3
ssg116
g2582
sg109
(lp2589
g145
asbasbasbag102
(g118
g104
NtRp2590
(dp2591
g107
(dp2592
sg116
g2079
sg109
(lp2593
g102
(g123
g104
NtRp2594
(dp2595
g107
(dp2596
g127
g128
ssg116
g2590
sg109
(lp2597
S'wsgi.url_scheme'
p2598
asbag102
(g123
g104
NtRp2599
(dp2600
g107
(dp2601
g134
g135
ssg116
g2590
sg109
(lp2602
S':'
asbag102
(g123
g104
NtRp2603
(dp2604
g107
(dp2605
sg116
g2590
sg109
(lp2606
g102
(g103
g104
NtRp2607
(dp2608
g107
(dp2609
g115
I3
ssg116
g2603
sg109
(lp2610
g1374
asbasbasbag102
(g118
g104
NtRp2611
(dp2612
g107
(dp2613
sg116
g2079
sg109
(lp2614
g102
(g123
g104
NtRp2615
(dp2616
g107
(dp2617
g127
g128
ssg116
g2611
sg109
(lp2618
S'wsgi.version'
p2619
asbag102
(g123
g104
NtRp2620
(dp2621
g107
(dp2622
g134
g135
ssg116
g2611
sg109
(lp2623
S':'
asbag102
(g123
g104
NtRp2624
(dp2625
g107
(dp2626
sg116
g2611
sg109
(lp2627
g102
(g103
g104
NtRp2628
(dp2629
g107
(dp2630
g115
I3
ssg116
g2624
sg109
(lp2631
S'1'
asbasbasbasbasbasbasbasbasbasbasbasbasbsS'frames'
p2632
(lp2633
(dp2634
S'file'
p2635
S'/usr/lib/pymodules/python2.7/gluon/restricted.py'
p2636
sS'dump'
p2637
(dp2638
S'environment'
p2639
S"{'A': <class 'gluon.html.A'>, 'Auth': <class 'gluon.tools.Auth'>, 'B': <class 'gluon.html.B'>, 'BEAUTIFY': <class 'gluon.html.BEAUTIFY'>, 'BODY': <class 'gluon.html.BODY'>, 'BR': <class 'gluon.html.BR'>, 'BUTTON': <class 'gluon.html.BUTTON'>, 'CAT': <class 'gluon.html.CAT'>, 'CENTER': <class 'gluon.html.CENTER'>, 'CLEANUP': <class 'gluon.validators.CLEANUP'>, ...}"
p2640
sS'ccode'
p2641
S'<code object <module> at 0x7f8eb40b5a30, file "/...ications/newsapp/controllers/default.py", line 1>'
p2642
ssS'lnum'
p2643
I205
sS'lines'
p2644
(dp2645
I200
S'    try:'
p2646
sI201
S'        if type(code) == types.CodeType:'
p2647
sI202
S'            ccode = code'
p2648
sI203
S'        else:'
p2649
sI204
S'            ccode = compile2(code,layer)'
p2650
sI205
S'        exec ccode in environment'
p2651
sI206
S'    except HTTP:'
p2652
sI207
S'        raise'
p2653
sI208
S'    except RestrictedError:'
p2654
sI209
S'        # do not encapsulate (obfuscate) the original RestrictedError'
p2655
ssS'call'
p2656
S"(code='import urllib,urllib2\\nfrom urlparse import *\\nimp... dict()\\n\\nresponse._vars=response._caller(fbuser)\\n', environment={'A': <class 'gluon.html.A'>, 'Auth': <class 'gluon.tools.Auth'>, 'B': <class 'gluon.html.B'>, 'BEAUTIFY': <class 'gluon.html.BEAUTIFY'>, 'BODY': <class 'gluon.html.BODY'>, 'BR': <class 'gluon.html.BR'>, 'BUTTON': <class 'gluon.html.BUTTON'>, 'CAT': <class 'gluon.html.CAT'>, 'CENTER': <class 'gluon.html.CENTER'>, 'CLEANUP': <class 'gluon.validators.CLEANUP'>, ...}, layer='/home/pooja/web2py/applications/newsapp/controllers/default.py')"
p2657
sS'func'
p2658
S'restricted'
p2659
sa(dp2660
g2635
S'/home/pooja/web2py/applications/newsapp/controllers/default.py'
p2661
sg2637
(dp2662
sg2643
I101
sg2644
(dp2663
I96
S'    session.extended_token = extended_token'
p2664
sI97
S'    expires = interm[2]'
p2665
sI98
S'    fb_status = db.executesql("""INSERT IGNORE INTO  fb_details(name,email_id,fb_id,access_token,expiry) VALUES (%s,%s,%s,%s,%s);""",(name,email_id,session.fb_id,extended_token,expires))'
p2666
sI99
S'    return dict()'
p2667
sI90
S'    url += "&fb_exchange_token=%s"%(token)'
p2668
sI91
S''
sI92
S'    data = urllib2.urlopen(url)'
p2669
sI93
S'    interm = data.read().split("=")'
p2670
sI94
S'    token = interm[1].split("&")'
p2671
sI95
S'    extended_token = token[0]'
p2672
ssg2656
S'()'
p2673
sg2658
S'<module>'
p2674
sa(dp2675
g2635
S'/usr/lib/pymodules/python2.7/gluon/globals.py'
p2676
sg2637
(dp2677
S'self'
p2678
S'undefined'
p2679
sS'f'
S'<function fbuser>'
p2680
ssg2643
I173
sg2644
(dp2681
I168
S'        self.menu = []             # used by the default view layout'
p2682
sI169
S'        self.files = []            # used by web2py_ajax.html'
p2683
sI170
S'        self.generic_patterns = [] # patterns to allow generic views'
p2684
sI171
S"        self.delimiters = ('{{','}}')"
p2685
sI172
S'        self._vars = None'
p2686
sI173
S'        self._caller = lambda f: f()'
p2687
sI174
S'        self._view_environment = None'
p2688
sI175
S'        self._custom_commit = None'
p2689
sI176
S'        self._custom_rollback = None'
p2690
sI177
S''
ssg2656
S'(f=<function fbuser>)'
p2691
sg2658
S'<lambda>'
p2692
sa(dp2693
g2635
S'/home/pooja/web2py/applications/newsapp/controllers/default.py'
p2694
sg2637
(dp2695
S'urllib2.urlopen'
p2696
S'<function urlopen>'
p2697
sS'global urllib2'
p2698
S"<module 'urllib2' from '/usr/lib/python2.7/urllib2.pyc'>"
p2699
sS'url1'
p2700
S"'https://graph.facebook.com/me?access_token=None'"
p2701
sS'details'
p2702
g2679
ssg2643
I78
sg2644
(dp2703
I73
S''
sI74
S'def fbuser():'
p2704
sI75
S'    token = request.vars.token'
p2705
sI76
S'    url1 = "https://graph.facebook.com/"'
p2706
sI77
S"    url1 += 'me?access_token=%s'%(token)"
p2707
sI78
S'    details = urllib2.urlopen(url1)'
p2708
sI79
S'    dict_response = json.loads(details.read())'
p2709
sI80
S"    name = dict_response['name']"
p2710
sI81
S'    email_id = ""'
p2711
sI82
S'    try:'
p2712
ssg2656
S'()'
p2713
sg2658
S'fbuser'
p2714
sa(dp2715
g2635
S'/usr/lib/python2.7/urllib2.py'
p2716
sg2637
(dp2717
S'_opener.open'
p2718
S'<bound method OpenerDirector.open of <urllib2.OpenerDirector instance>>'
p2719
sS'url'
p2720
S"'https://graph.facebook.com/me?access_token=None'"
p2721
sS'data'
p2722
S'None'
p2723
sS'global _opener'
p2724
S'<urllib2.OpenerDirector instance>'
p2725
sS'timeout'
p2726
S'<object object>'
p2727
ssg2643
I127
sg2644
(dp2728
I128
S''
sI129
S'def install_opener(opener):'
p2729
sI130
S'    global _opener'
p2730
sI131
S'    _opener = opener'
p2731
sI122
S'_opener = None'
p2732
sI123
S'def urlopen(url, data=None, timeout=socket._GLOBAL_DEFAULT_TIMEOUT):'
p2733
sI124
S'    global _opener'
p2734
sI125
S'    if _opener is None:'
p2735
sI126
S'        _opener = build_opener()'
p2736
sI127
S'    return _opener.open(url, data, timeout)'
p2737
ssg2656
S"(url='https://graph.facebook.com/me?access_token=None', data=None, timeout=<object object>)"
p2738
sg2658
S'urlopen'
p2739
sa(dp2740
g2635
S'/usr/lib/python2.7/urllib2.py'
p2741
sg2637
(dp2742
S'meth'
p2743
S'<bound method HTTPErrorProcessor.http_response of <urllib2.HTTPErrorProcessor instance>>'
p2744
sS'req'
p2745
S'<urllib2.Request instance>'
p2746
sS'response'
p2747
S'<addinfourl at 140250882927504 whose fp = <socket._fileobject object>>'
p2748
ssg2643
I410
sg2644
(dp2749
I405
S''
sI406
S'        # post-process response'
p2750
sI407
S'        meth_name = protocol+"_response"'
p2751
sI408
S'        for processor in self.process_response.get(protocol, []):'
p2752
sI409
S'            meth = getattr(processor, meth_name)'
p2753
sI410
S'            response = meth(req, response)'
p2754
sI411
S''
sI412
S'        return response'
p2755
sI413
S''
sI414
S'    def _open(self, req, data=None):'
p2756
ssg2656
S"(self=<urllib2.OpenerDirector instance>, fullurl='https://graph.facebook.com/me?access_token=None', data=None, timeout=<object object>)"
p2757
sg2658
S'open'
p2758
sa(dp2759
g2635
S'/usr/lib/python2.7/urllib2.py'
p2760
sg2637
(dp2761
S'msg'
p2762
S"'Bad Request'"
p2763
sS'code'
p2764
S'400'
p2765
sS'request'
p2766
S'<urllib2.Request instance>'
p2767
sS'response'
p2768
S'<addinfourl at 140250882927504 whose fp = <socket._fileobject object>>'
p2769
sS'hdrs'
p2770
S'<httplib.HTTPMessage instance>'
p2771
ssg2643
I523
sg2644
(dp2772
I518
S''
sI519
S'        # According to RFC 2616, "2xx" code indicates that the client\'s'
p2773
sI520
S'        # request was successfully received, understood, and accepted.'
p2774
sI521
S'        if not (200 <= code < 300):'
p2775
sI522
S'            response = self.parent.error('
p2776
sI523
S"                'http', request, response, code, msg, hdrs)"
p2777
sI524
S''
sI525
S'        return response'
p2778
sI526
S''
sI527
S'    https_response = http_response'
p2779
ssg2656
S'(self=<urllib2.HTTPErrorProcessor instance>, request=<urllib2.Request instance>, response=<addinfourl at 140250882927504 whose fp = <socket._fileobject object>>)'
p2780
sg2658
S'http_response'
p2781
sa(dp2782
g2635
S'/usr/lib/python2.7/urllib2.py'
p2783
sg2637
(dp2784
S'self._call_chain'
p2785
S'<bound method OpenerDirector._call_chain of <urllib2.OpenerDirector instance>>'
p2786
sS'self'
p2787
S'<urllib2.OpenerDirector instance>'
p2788
sS'args'
p2789
S"({301: [<urllib2.HTTPRedirectHandler instance>], 302: [<urllib2.HTTPRedirectHandler instance>], 303: [<urllib2.HTTPRedirectHandler instance>], 307: [<urllib2.HTTPRedirectHandler instance>], 'default': [<urllib2.HTTPDefaultErrorHandler instance>]}, 'default', 'http_error_default', <urllib2.Request instance>, <addinfourl at 140250882927504 whose fp = <socket._fileobject object>>, 400, 'Bad Request', <httplib.HTTPMessage instance>)"
p2790
ssg2643
I448
sg2644
(dp2791
I448
S'            return self._call_chain(*args)'
p2792
sI449
S''
sI450
S'# XXX probably also want an abstract factory that knows when it makes'
p2793
sI451
S'# sense to skip a superclass in favor of a subclass and when it might'
p2794
sI452
S'# make sense to include both'
p2795
sI443
S'        if result:'
p2796
sI444
S'            return result'
p2797
sI445
S''
sI446
S'        if http_err:'
p2798
sI447
S"            args = (dict, 'default', 'http_error_default') + orig_args"
p2799
ssg2656
S"(self=<urllib2.OpenerDirector instance>, proto=400, *args=({301: [<urllib2.HTTPRedirectHandler instance>], 302: [<urllib2.HTTPRedirectHandler instance>], 303: [<urllib2.HTTPRedirectHandler instance>], 307: [<urllib2.HTTPRedirectHandler instance>], 'default': [<urllib2.HTTPDefaultErrorHandler instance>]}, 'default', 'http_error_default', <urllib2.Request instance>, <addinfourl at 140250882927504 whose fp = <socket._fileobject object>>, 400, 'Bad Request', <httplib.HTTPMessage instance>))"
p2800
sg2658
S'error'
p2801
sa(dp2802
g2635
S'/usr/lib/python2.7/urllib2.py'
p2803
sg2637
(dp2804
S'args'
p2805
S"(<urllib2.Request instance>, <addinfourl at 140250882927504 whose fp = <socket._fileobject object>>, 400, 'Bad Request', <httplib.HTTPMessage instance>)"
p2806
sS'result'
p2807
g2679
sS'func'
p2808
S'<bound method HTTPDefaultErrorHandler.http_error...lt of <urllib2.HTTPDefaultErrorHandler instance>>'
p2809
ssg2643
I382
sg2644
(dp2810
I384
S'                return result'
p2811
sI385
S''
sI386
S'    def open(self, fullurl, data=None, timeout=socket._GLOBAL_DEFAULT_TIMEOUT):'
p2812
sI377
S'        # could.  Otherwise, they return the response.'
p2813
sI378
S'        handlers = chain.get(kind, ())'
p2814
sI379
S'        for handler in handlers:'
p2815
sI380
S'            func = getattr(handler, meth_name)'
p2816
sI381
S''
sI382
S'            result = func(*args)'
p2817
sI383
S'            if result is not None:'
p2818
ssg2656
S"(self=<urllib2.OpenerDirector instance>, chain={301: [<urllib2.HTTPRedirectHandler instance>], 302: [<urllib2.HTTPRedirectHandler instance>], 303: [<urllib2.HTTPRedirectHandler instance>], 307: [<urllib2.HTTPRedirectHandler instance>], 'default': [<urllib2.HTTPDefaultErrorHandler instance>]}, kind='default', meth_name='http_error_default', *args=(<urllib2.Request instance>, <addinfourl at 140250882927504 whose fp = <socket._fileobject object>>, 400, 'Bad Request', <httplib.HTTPMessage instance>))"
p2819
sg2658
S'_call_chain'
p2820
sa(dp2821
g2635
S'/usr/lib/python2.7/urllib2.py'
p2822
sg2637
(dp2823
S'fp'
p2824
S'<addinfourl at 140250882927504 whose fp = <socket._fileobject object>>'
p2825
sS'code'
p2826
S'400'
p2827
sS'hdrs'
p2828
S'<httplib.HTTPMessage instance>'
p2829
sS'req'
p2830
S'<urllib2.Request instance>'
p2831
sS'req.get_full_url'
p2832
S'<bound method Request.get_full_url of <urllib2.Request instance>>'
p2833
sS'msg'
p2834
S"'Bad Request'"
p2835
sS'global HTTPError'
p2836
S"<class 'urllib2.HTTPError'>"
p2837
ssg2643
I531
sg2644
(dp2838
I526
S''
sI527
S'    https_response = http_response'
p2839
sI528
S''
sI529
S'class HTTPDefaultErrorHandler(BaseHandler):'
p2840
sI530
S'    def http_error_default(self, req, fp, code, msg, hdrs):'
p2841
sI531
S'        raise HTTPError(req.get_full_url(), code, msg, hdrs, fp)'
p2842
sI532
S''
sI533
S'class HTTPRedirectHandler(BaseHandler):'
p2843
sI534
S'    # maximum number of redirections to any single URL'
p2844
sI535
S'    # this is needed because of the state that cookies introduce'
p2845
ssg2656
S"(self=<urllib2.HTTPDefaultErrorHandler instance>, req=<urllib2.Request instance>, fp=<addinfourl at 140250882927504 whose fp = <socket._fileobject object>>, code=400, msg='Bad Request', hdrs=<httplib.HTTPMessage instance>)"
p2846
sg2658
S'http_error_default'
p2847
sasS'pyver'
p2848
S'Python 2.7.6: /usr/bin/python'
p2849
sS'session'
p2850
g102
(g103
g104
NtRp2851
(dp2852
g107
(dp2853
sg109
(lp2854
g102
(g111
g104
NtRp2855
(dp2856
g107
(dp2857
g115
I5
ssg116
Nsg109
(lp2858
sbasbsS'etype'
p2859
S"<class 'urllib2.HTTPError'>"
p2860
sS'date'
p2861
S'Sat May  9 17:02:14 2015'
p2862
sS'response'
p2863
g102
(g103
g104
NtRp2864
(dp2865
g107
(dp2866
sg109
(lp2867
g102
(g111
g104
NtRp2868
(dp2869
g107
(dp2870
g115
I5
ssg116
Nsg109
(lp2871
g102
(g118
g104
NtRp2872
(dp2873
g107
(dp2874
sg116
g2868
sg109
(lp2875
g102
(g123
g104
NtRp2876
(dp2877
g107
(dp2878
g127
g128
ssg116
g2872
sg109
(lp2879
g200
asbag102
(g123
g104
NtRp2880
(dp2881
g107
(dp2882
g134
g135
ssg116
g2872
sg109
(lp2883
S':'
asbag102
(g123
g104
NtRp2884
(dp2885
g107
(dp2886
sg116
g2872
sg109
(lp2887
g102
(g103
g104
NtRp2888
(dp2889
g107
(dp2890
g115
I5
ssg116
g2884
sg109
(lp2891
S'<cStringIO.StringO object at 0x7f8ec05154c8>'
p2892
asbasbasbag102
(g118
g104
NtRp2893
(dp2894
g107
(dp2895
sg116
g2868
sg109
(lp2896
g102
(g123
g104
NtRp2897
(dp2898
g107
(dp2899
g127
g128
ssg116
g2893
sg109
(lp2900
g266
asbag102
(g123
g104
NtRp2901
(dp2902
g107
(dp2903
g134
g135
ssg116
g2893
sg109
(lp2904
S':'
asbag102
(g123
g104
NtRp2905
(dp2906
g107
(dp2907
sg116
g2893
sg109
(lp2908
g102
(g103
g104
NtRp2909
(dp2910
g107
(dp2911
g115
I5
ssg116
g2905
sg109
(lp2912
g102
(g111
g104
NtRp2913
(dp2914
g107
(dp2915
g115
I4
ssg116
Nsg109
(lp2916
g102
(g118
g104
NtRp2917
(dp2918
g107
(dp2919
sg116
g2913
sg109
(lp2920
g102
(g123
g104
NtRp2921
(dp2922
g107
(dp2923
g127
g128
ssg116
g2917
sg109
(lp2924
S'session_id_newsapp'
p2925
asbag102
(g123
g104
NtRp2926
(dp2927
g107
(dp2928
g134
g135
ssg116
g2917
sg109
(lp2929
S':'
asbag102
(g123
g104
NtRp2930
(dp2931
g107
(dp2932
sg116
g2917
sg109
(lp2933
g102
(g103
g104
NtRp2934
(dp2935
g107
(dp2936
g115
I4
ssg116
g2930
sg109
(lp2937
g102
(g111
g104
NtRp2938
(dp2939
g107
(dp2940
g115
I3
ssg116
Nsg109
(lp2941
g102
(g118
g104
NtRp2942
(dp2943
g107
(dp2944
sg116
g2938
sg109
(lp2945
g102
(g123
g104
NtRp2946
(dp2947
g107
(dp2948
g127
g128
ssg116
g2942
sg109
(lp2949
g316
asbag102
(g123
g104
NtRp2950
(dp2951
g107
(dp2952
g134
g135
ssg116
g2942
sg109
(lp2953
S':'
asbag102
(g123
g104
NtRp2954
(dp2955
g107
(dp2956
sg116
g2942
sg109
(lp2957
g102
(g103
g104
NtRp2958
(dp2959
g107
(dp2960
g115
I3
ssg116
g2954
sg109
(lp2961
S''
asbasbasbag102
(g118
g104
NtRp2962
(dp2963
g107
(dp2964
sg116
g2938
sg109
(lp2965
g102
(g123
g104
NtRp2966
(dp2967
g107
(dp2968
g127
g128
ssg116
g2962
sg109
(lp2969
g337
asbag102
(g123
g104
NtRp2970
(dp2971
g107
(dp2972
g134
g135
ssg116
g2962
sg109
(lp2973
S':'
asbag102
(g123
g104
NtRp2974
(dp2975
g107
(dp2976
sg116
g2962
sg109
(lp2977
g102
(g103
g104
NtRp2978
(dp2979
g107
(dp2980
g115
I3
ssg116
g2974
sg109
(lp2981
S''
asbasbasbag102
(g118
g104
NtRp2982
(dp2983
g107
(dp2984
sg116
g2938
sg109
(lp2985
g102
(g123
g104
NtRp2986
(dp2987
g107
(dp2988
g127
g128
ssg116
g2982
sg109
(lp2989
g358
asbag102
(g123
g104
NtRp2990
(dp2991
g107
(dp2992
g134
g135
ssg116
g2982
sg109
(lp2993
S':'
asbag102
(g123
g104
NtRp2994
(dp2995
g107
(dp2996
sg116
g2982
sg109
(lp2997
g102
(g103
g104
NtRp2998
(dp2999
g107
(dp3000
g115
I3
ssg116
g2994
sg109
(lp3001
S''
asbasbasbag102
(g118
g104
NtRp3002
(dp3003
g107
(dp3004
sg116
g2938
sg109
(lp3005
g102
(g123
g104
NtRp3006
(dp3007
g107
(dp3008
g127
g128
ssg116
g3002
sg109
(lp3009
g379
asbag102
(g123
g104
NtRp3010
(dp3011
g107
(dp3012
g134
g135
ssg116
g3002
sg109
(lp3013
S':'
asbag102
(g123
g104
NtRp3014
(dp3015
g107
(dp3016
sg116
g3002
sg109
(lp3017
g102
(g103
g104
NtRp3018
(dp3019
g107
(dp3020
g115
I3
ssg116
g3014
sg109
(lp3021
S''
asbasbasbag102
(g118
g104
NtRp3022
(dp3023
g107
(dp3024
sg116
g2938
sg109
(lp3025
g102
(g123
g104
NtRp3026
(dp3027
g107
(dp3028
g127
g128
ssg116
g3022
sg109
(lp3029
g400
asbag102
(g123
g104
NtRp3030
(dp3031
g107
(dp3032
g134
g135
ssg116
g3022
sg109
(lp3033
S':'
asbag102
(g123
g104
NtRp3034
(dp3035
g107
(dp3036
sg116
g3022
sg109
(lp3037
g102
(g103
g104
NtRp3038
(dp3039
g107
(dp3040
g115
I3
ssg116
g3034
sg109
(lp3041
S''
asbasbasbag102
(g118
g104
NtRp3042
(dp3043
g107
(dp3044
sg116
g2938
sg109
(lp3045
g102
(g123
g104
NtRp3046
(dp3047
g107
(dp3048
g127
g128
ssg116
g3042
sg109
(lp3049
g421
asbag102
(g123
g104
NtRp3050
(dp3051
g107
(dp3052
g134
g135
ssg116
g3042
sg109
(lp3053
S':'
asbag102
(g123
g104
NtRp3054
(dp3055
g107
(dp3056
sg116
g3042
sg109
(lp3057
g102
(g103
g104
NtRp3058
(dp3059
g107
(dp3060
g115
I3
ssg116
g3054
sg109
(lp3061
S'/'
asbasbasbag102
(g118
g104
NtRp3062
(dp3063
g107
(dp3064
sg116
g2938
sg109
(lp3065
g102
(g123
g104
NtRp3066
(dp3067
g107
(dp3068
g127
g128
ssg116
g3062
sg109
(lp3069
g442
asbag102
(g123
g104
NtRp3070
(dp3071
g107
(dp3072
g134
g135
ssg116
g3062
sg109
(lp3073
S':'
asbag102
(g123
g104
NtRp3074
(dp3075
g107
(dp3076
sg116
g3062
sg109
(lp3077
g102
(g103
g104
NtRp3078
(dp3079
g107
(dp3080
g115
I3
ssg116
g3074
sg109
(lp3081
S''
asbasbasbag102
(g118
g104
NtRp3082
(dp3083
g107
(dp3084
sg116
g2938
sg109
(lp3085
g102
(g123
g104
NtRp3086
(dp3087
g107
(dp3088
g127
g128
ssg116
g3082
sg109
(lp3089
g463
asbag102
(g123
g104
NtRp3090
(dp3091
g107
(dp3092
g134
g135
ssg116
g3082
sg109
(lp3093
S':'
asbag102
(g123
g104
NtRp3094
(dp3095
g107
(dp3096
sg116
g3082
sg109
(lp3097
g102
(g103
g104
NtRp3098
(dp3099
g107
(dp3100
g115
I3
ssg116
g3094
sg109
(lp3101
S''
asbasbasbasbasbasbasbasbasbasbasbag102
(g118
g104
NtRp3102
(dp3103
g107
(dp3104
sg116
g2868
sg109
(lp3105
g102
(g123
g104
NtRp3106
(dp3107
g107
(dp3108
g127
g128
ssg116
g3102
sg109
(lp3109
S'delimiters'
p3110
asbag102
(g123
g104
NtRp3111
(dp3112
g107
(dp3113
g134
g135
ssg116
g3102
sg109
(lp3114
S':'
asbag102
(g123
g104
NtRp3115
(dp3116
g107
(dp3117
sg116
g3102
sg109
(lp3118
g102
(g103
g104
NtRp3119
(dp3120
g107
(dp3121
g115
I5
ssg116
g3115
sg109
(lp3122
g102
(g111
g104
NtRp3123
(dp3124
g107
(dp3125
g115
I4
ssg116
Nsg109
(lp3126
g102
(g118
g104
NtRp3127
(dp3128
g107
(dp3129
sg116
g3123
sg109
(lp3130
g102
(g123
g104
NtRp3131
(dp3132
g107
(dp3133
sg116
g3127
sg109
(lp3134
g102
(g103
g104
NtRp3135
(dp3136
g107
(dp3137
g115
I4
ssg116
g3131
sg109
(lp3138
S'{{'
p3139
asbasbasbag102
(g118
g104
NtRp3140
(dp3141
g107
(dp3142
sg116
g3123
sg109
(lp3143
g102
(g123
g104
NtRp3144
(dp3145
g107
(dp3146
sg116
g3140
sg109
(lp3147
g102
(g103
g104
NtRp3148
(dp3149
g107
(dp3150
g115
I4
ssg116
g3144
sg109
(lp3151
S'}}'
p3152
asbasbasbasbasbasbasbag102
(g118
g104
NtRp3153
(dp3154
g107
(dp3155
sg116
g2868
sg109
(lp3156
g102
(g123
g104
NtRp3157
(dp3158
g107
(dp3159
g127
g128
ssg116
g3153
sg109
(lp3160
S'files'
p3161
asbag102
(g123
g104
NtRp3162
(dp3163
g107
(dp3164
g134
g135
ssg116
g3153
sg109
(lp3165
S':'
asbag102
(g123
g104
NtRp3166
(dp3167
g107
(dp3168
sg116
g3153
sg109
(lp3169
g102
(g103
g104
NtRp3170
(dp3171
g107
(dp3172
g115
I5
ssg116
g3166
sg109
(lp3173
g102
(g111
g104
NtRp3174
(dp3175
g107
(dp3176
g115
I4
ssg116
Nsg109
(lp3177
sbasbasbasbag102
(g118
g104
NtRp3178
(dp3179
g107
(dp3180
sg116
g2868
sg109
(lp3181
g102
(g123
g104
NtRp3182
(dp3183
g107
(dp3184
g127
g128
ssg116
g3178
sg109
(lp3185
S'flash'
p3186
asbag102
(g123
g104
NtRp3187
(dp3188
g107
(dp3189
g134
g135
ssg116
g3178
sg109
(lp3190
S':'
asbag102
(g123
g104
NtRp3191
(dp3192
g107
(dp3193
sg116
g3178
sg109
(lp3194
g102
(g103
g104
NtRp3195
(dp3196
g107
(dp3197
g115
I5
ssg116
g3191
sg109
(lp3198
S''
asbasbasbag102
(g118
g104
NtRp3199
(dp3200
g107
(dp3201
sg116
g2868
sg109
(lp3202
g102
(g123
g104
NtRp3203
(dp3204
g107
(dp3205
g127
g128
ssg116
g3199
sg109
(lp3206
S'generic_patterns'
p3207
asbag102
(g123
g104
NtRp3208
(dp3209
g107
(dp3210
g134
g135
ssg116
g3199
sg109
(lp3211
S':'
asbag102
(g123
g104
NtRp3212
(dp3213
g107
(dp3214
sg116
g3199
sg109
(lp3215
g102
(g103
g104
NtRp3216
(dp3217
g107
(dp3218
g115
I5
ssg116
g3212
sg109
(lp3219
g102
(g111
g104
NtRp3220
(dp3221
g107
(dp3222
g115
I4
ssg116
Nsg109
(lp3223
g102
(g118
g104
NtRp3224
(dp3225
g107
(dp3226
sg116
g3220
sg109
(lp3227
g102
(g123
g104
NtRp3228
(dp3229
g107
(dp3230
sg116
g3224
sg109
(lp3231
g102
(g103
g104
NtRp3232
(dp3233
g107
(dp3234
g115
I4
ssg116
g3228
sg109
(lp3235
S'*'
asbasbasbasbasbasbasbag102
(g118
g104
NtRp3236
(dp3237
g107
(dp3238
sg116
g2868
sg109
(lp3239
g102
(g123
g104
NtRp3240
(dp3241
g107
(dp3242
g127
g128
ssg116
g3236
sg109
(lp3243
g41
asbag102
(g123
g104
NtRp3244
(dp3245
g107
(dp3246
g134
g135
ssg116
g3236
sg109
(lp3247
S':'
asbag102
(g123
g104
NtRp3248
(dp3249
g107
(dp3250
sg116
g3236
sg109
(lp3251
g102
(g103
g104
NtRp3252
(dp3253
g107
(dp3254
g115
I5
ssg116
g3248
sg109
(lp3255
g102
(g111
g104
NtRp3256
(dp3257
g107
(dp3258
g115
I4
ssg116
Nsg109
(lp3259
g102
(g118
g104
NtRp3260
(dp3261
g107
(dp3262
sg116
g3256
sg109
(lp3263
g102
(g123
g104
NtRp3264
(dp3265
g107
(dp3266
g127
g128
ssg116
g3260
sg109
(lp3267
S'Cache-Control'
p3268
asbag102
(g123
g104
NtRp3269
(dp3270
g107
(dp3271
g134
g135
ssg116
g3260
sg109
(lp3272
S':'
asbag102
(g123
g104
NtRp3273
(dp3274
g107
(dp3275
sg116
g3260
sg109
(lp3276
g102
(g103
g104
NtRp3277
(dp3278
g107
(dp3279
g115
I4
ssg116
g3273
sg109
(lp3280
S'no-store, no-cache, must-revalidate, post-check=0, pre-check=0'
p3281
asbasbasbag102
(g118
g104
NtRp3282
(dp3283
g107
(dp3284
sg116
g3256
sg109
(lp3285
g102
(g123
g104
NtRp3286
(dp3287
g107
(dp3288
g127
g128
ssg116
g3282
sg109
(lp3289
S'Content-Type'
p3290
asbag102
(g123
g104
NtRp3291
(dp3292
g107
(dp3293
g134
g135
ssg116
g3282
sg109
(lp3294
S':'
asbag102
(g123
g104
NtRp3295
(dp3296
g107
(dp3297
sg116
g3282
sg109
(lp3298
g102
(g103
g104
NtRp3299
(dp3300
g107
(dp3301
g115
I4
ssg116
g3295
sg109
(lp3302
S'text/html; charset=utf-8'
p3303
asbasbasbag102
(g118
g104
NtRp3304
(dp3305
g107
(dp3306
sg116
g3256
sg109
(lp3307
g102
(g123
g104
NtRp3308
(dp3309
g107
(dp3310
g127
g128
ssg116
g3304
sg109
(lp3311
S'Expires'
p3312
asbag102
(g123
g104
NtRp3313
(dp3314
g107
(dp3315
g134
g135
ssg116
g3304
sg109
(lp3316
S':'
asbag102
(g123
g104
NtRp3317
(dp3318
g107
(dp3319
sg116
g3304
sg109
(lp3320
g102
(g103
g104
NtRp3321
(dp3322
g107
(dp3323
g115
I4
ssg116
g3317
sg109
(lp3324
S'Sat, 09 May 2015 11:32:14 GMT'
p3325
asbasbasbag102
(g118
g104
NtRp3326
(dp3327
g107
(dp3328
sg116
g3256
sg109
(lp3329
g102
(g123
g104
NtRp3330
(dp3331
g107
(dp3332
g127
g128
ssg116
g3326
sg109
(lp3333
S'Pragma'
p3334
asbag102
(g123
g104
NtRp3335
(dp3336
g107
(dp3337
g134
g135
ssg116
g3326
sg109
(lp3338
S':'
asbag102
(g123
g104
NtRp3339
(dp3340
g107
(dp3341
sg116
g3326
sg109
(lp3342
g102
(g103
g104
NtRp3343
(dp3344
g107
(dp3345
g115
I4
ssg116
g3339
sg109
(lp3346
S'no-cache'
p3347
asbasbasbag102
(g118
g104
NtRp3348
(dp3349
g107
(dp3350
sg116
g3256
sg109
(lp3351
g102
(g123
g104
NtRp3352
(dp3353
g107
(dp3354
g127
g128
ssg116
g3348
sg109
(lp3355
S'X-Powered-By'
p3356
asbag102
(g123
g104
NtRp3357
(dp3358
g107
(dp3359
g134
g135
ssg116
g3348
sg109
(lp3360
S':'
asbag102
(g123
g104
NtRp3361
(dp3362
g107
(dp3363
sg116
g3348
sg109
(lp3364
g102
(g103
g104
NtRp3365
(dp3366
g107
(dp3367
g115
I4
ssg116
g3361
sg109
(lp3368
S'web2py'
p3369
asbasbasbasbasbasbasbag102
(g118
g104
NtRp3370
(dp3371
g107
(dp3372
sg116
g2868
sg109
(lp3373
g102
(g123
g104
NtRp3374
(dp3375
g107
(dp3376
g127
g128
ssg116
g3370
sg109
(lp3377
S'menu'
p3378
asbag102
(g123
g104
NtRp3379
(dp3380
g107
(dp3381
g134
g135
ssg116
g3370
sg109
(lp3382
S':'
asbag102
(g123
g104
NtRp3383
(dp3384
g107
(dp3385
sg116
g3370
sg109
(lp3386
g102
(g103
g104
NtRp3387
(dp3388
g107
(dp3389
g115
I5
ssg116
g3383
sg109
(lp3390
g102
(g111
g104
NtRp3391
(dp3392
g107
(dp3393
g115
I4
ssg116
Nsg109
(lp3394
g102
(g118
g104
NtRp3395
(dp3396
g107
(dp3397
sg116
g3391
sg109
(lp3398
g102
(g123
g104
NtRp3399
(dp3400
g107
(dp3401
sg116
g3395
sg109
(lp3402
g102
(g103
g104
NtRp3403
(dp3404
g107
(dp3405
g115
I4
ssg116
g3399
sg109
(lp3406
g102
(g111
g104
NtRp3407
(dp3408
g107
(dp3409
g115
I3
ssg116
Nsg109
(lp3410
g102
(g118
g104
NtRp3411
(dp3412
g107
(dp3413
sg116
g3407
sg109
(lp3414
g102
(g123
g104
NtRp3415
(dp3416
g107
(dp3417
sg116
g3411
sg109
(lp3418
g102
(g103
g104
NtRp3419
(dp3420
g107
(dp3421
g115
I3
ssg116
g3415
sg109
(lp3422
cgluon.languages
lazyT_unpickle
p3423
(S't\x04\x00\x00\x00Home'
tRp3424
asbasbasbag102
(g118
g104
NtRp3425
(dp3426
g107
(dp3427
sg116
g3407
sg109
(lp3428
g102
(g123
g104
NtRp3429
(dp3430
g107
(dp3431
sg116
g3425
sg109
(lp3432
g102
(g103
g104
NtRp3433
(dp3434
g107
(dp3435
g115
I3
ssg116
g3429
sg109
(lp3436
g145
asbasbasbag102
(g118
g104
NtRp3437
(dp3438
g107
(dp3439
sg116
g3407
sg109
(lp3440
g102
(g123
g104
NtRp3441
(dp3442
g107
(dp3443
sg116
g3437
sg109
(lp3444
g102
(g103
g104
NtRp3445
(dp3446
g107
(dp3447
g115
I3
ssg116
g3441
sg109
(lp3448
S'/newsapp/default/index'
p3449
asbasbasbag102
(g118
g104
NtRp3450
(dp3451
g107
(dp3452
sg116
g3407
sg109
(lp3453
g102
(g123
g104
NtRp3454
(dp3455
g107
(dp3456
sg116
g3450
sg109
(lp3457
g102
(g103
g104
NtRp3458
(dp3459
g107
(dp3460
g115
I3
ssg116
g3454
sg109
(lp3461
g102
(g111
g104
NtRp3462
(dp3463
g107
(dp3464
g115
I2
ssg116
Nsg109
(lp3465
sbasbasbasbasbasbasbasbag102
(g118
g104
NtRp3466
(dp3467
g107
(dp3468
sg116
g3391
sg109
(lp3469
g102
(g123
g104
NtRp3470
(dp3471
g107
(dp3472
sg116
g3466
sg109
(lp3473
g102
(g103
g104
NtRp3474
(dp3475
g107
(dp3476
g115
I4
ssg116
g3470
sg109
(lp3477
g102
(g111
g104
NtRp3478
(dp3479
g107
(dp3480
g115
I3
ssg116
Nsg109
(lp3481
g102
(g118
g104
NtRp3482
(dp3483
g107
(dp3484
sg116
g3478
sg109
(lp3485
g102
(g123
g104
NtRp3486
(dp3487
g107
(dp3488
sg116
g3482
sg109
(lp3489
g102
(g103
g104
NtRp3490
(dp3491
g107
(dp3492
g115
I3
ssg116
g3486
sg109
(lp3493
g102
(cgluon.html
SPAN
p3494
g104
NtRp3495
(dp3496
g107
(dp3497
g127
S'color:yellow'
p3498
ssg116
Nsg109
(lp3499
g3369
asbasbasbasbag102
(g118
g104
NtRp3500
(dp3501
g107
(dp3502
sg116
g3478
sg109
(lp3503
g102
(g123
g104
NtRp3504
(dp3505
g107
(dp3506
sg116
g3500
sg109
(lp3507
g102
(g103
g104
NtRp3508
(dp3509
g107
(dp3510
g115
I3
ssg116
g3504
sg109
(lp3511
g145
asbasbasbag102
(g118
g104
NtRp3512
(dp3513
g107
(dp3514
sg116
g3478
sg109
(lp3515
g102
(g123
g104
NtRp3516
(dp3517
g107
(dp3518
sg116
g3512
sg109
(lp3519
g102
(g103
g104
NtRp3520
(dp3521
g107
(dp3522
g115
I3
ssg116
g3516
sg109
(lp3523
S'None'
p3524
asbasbasbag102
(g118
g104
NtRp3525
(dp3526
g107
(dp3527
sg116
g3478
sg109
(lp3528
g102
(g123
g104
NtRp3529
(dp3530
g107
(dp3531
sg116
g3525
sg109
(lp3532
g102
(g103
g104
NtRp3533
(dp3534
g107
(dp3535
g115
I3
ssg116
g3529
sg109
(lp3536
g102
(g111
g104
NtRp3537
(dp3538
g107
(dp3539
g115
I2
ssg116
Nsg109
(lp3540
g102
(g118
g104
NtRp3541
(dp3542
g107
(dp3543
sg116
g3537
sg109
(lp3544
g102
(g123
g104
NtRp3545
(dp3546
g107
(dp3547
sg116
g3541
sg109
(lp3548
g102
(g103
g104
NtRp3549
(dp3550
g107
(dp3551
g115
I2
ssg116
g3545
sg109
(lp3552
g102
(g111
g104
NtRp3553
(dp3554
g107
(dp3555
g115
I1
ssg116
Nsg109
(lp3556
g102
(g118
g104
NtRp3557
(dp3558
g107
(dp3559
sg116
g3553
sg109
(lp3560
g102
(g123
g104
NtRp3561
(dp3562
g107
(dp3563
sg116
g3557
sg109
(lp3564
g102
(g103
g104
NtRp3565
(dp3566
g107
(dp3567
g115
I1
ssg116
g3561
sg109
(lp3568
g3423
(S's\x08\x00\x00\x00My Sites'
tRp3569
asbasbasbag102
(g118
g104
NtRp3570
(dp3571
g107
(dp3572
sg116
g3553
sg109
(lp3573
g102
(g123
g104
NtRp3574
(dp3575
g107
(dp3576
sg116
g3570
sg109
(lp3577
g102
(g103
g104
NtRp3578
(dp3579
g107
(dp3580
g115
I1
ssg116
g3574
sg109
(lp3581
I00
asbasbasbag102
(g118
g104
NtRp3582
(dp3583
g107
(dp3584
sg116
g3553
sg109
(lp3585
g102
(g123
g104
NtRp3586
(dp3587
g107
(dp3588
sg116
g3582
sg109
(lp3589
g102
(g103
g104
NtRp3590
(dp3591
g107
(dp3592
g115
I1
ssg116
g3586
sg109
(lp3593
S'/admin/default/site'
p3594
asbasbasbasbasbasbasbag102
(g118
g104
NtRp3595
(dp3596
g107
(dp3597
sg116
g3537
sg109
(lp3598
g102
(g123
g104
NtRp3599
(dp3600
g107
(dp3601
sg116
g3595
sg109
(lp3602
g102
(g103
g104
NtRp3603
(dp3604
g107
(dp3605
g115
I2
ssg116
g3599
sg109
(lp3606
g102
(g111
g104
NtRp3607
(dp3608
g107
(dp3609
g115
I1
ssg116
Nsg109
(lp3610
g102
(g118
g104
NtRp3611
(dp3612
g107
(dp3613
sg116
g3607
sg109
(lp3614
g102
(g123
g104
NtRp3615
(dp3616
g107
(dp3617
sg116
g3611
sg109
(lp3618
g102
(g103
g104
NtRp3619
(dp3620
g107
(dp3621
g115
I1
ssg116
g3615
sg109
(lp3622
g3423
(S's\x08\x00\x00\x00This App'
tRp3623
asbasbasbag102
(g118
g104
NtRp3624
(dp3625
g107
(dp3626
sg116
g3607
sg109
(lp3627
g102
(g123
g104
NtRp3628
(dp3629
g107
(dp3630
sg116
g3624
sg109
(lp3631
g102
(g103
g104
NtRp3632
(dp3633
g107
(dp3634
g115
I1
ssg116
g3628
sg109
(lp3635
I00
asbasbasbag102
(g118
g104
NtRp3636
(dp3637
g107
(dp3638
sg116
g3607
sg109
(lp3639
g102
(g123
g104
NtRp3640
(dp3641
g107
(dp3642
sg116
g3636
sg109
(lp3643
g102
(g103
g104
NtRp3644
(dp3645
g107
(dp3646
g115
I1
ssg116
g3640
sg109
(lp3647
S'/admin/default/design/newsapp'
p3648
asbasbasbag102
(g118
g104
NtRp3649
(dp3650
g107
(dp3651
sg116
g3607
sg109
(lp3652
g102
(g123
g104
NtRp3653
(dp3654
g107
(dp3655
sg116
g3649
sg109
(lp3656
g102
(g103
g104
NtRp3657
(dp3658
g107
(dp3659
g115
I1
ssg116
g3653
sg109
(lp3660
(lp3661
(g3423
(S't\n\x00\x00\x00Controller'
tRp3662
I00
S'/admin/default/edit/newsapp/controllers/default.py'
tp3663
a(g3423
(S't\x04\x00\x00\x00View'
tRp3664
I00
S'/admin/default/edit/newsapp/views/default/fbuser.html'
tp3665
a(g3423
(S't\x06\x00\x00\x00Layout'
tRp3666
I00
S'/admin/default/edit/newsapp/views/layout.html'
tp3667
a(g3423
(S't\n\x00\x00\x00Stylesheet'
tRp3668
I00
S'/admin/default/edit/newsapp/static/css/web2py.css'
tp3669
a(g3423
(S's\x08\x00\x00\x00DB Model'
tRp3670
I00
S'/admin/default/edit/newsapp/models/db.py'
tp3671
a(g3423
(S's\n\x00\x00\x00Menu Model'
tRp3672
I00
S'/admin/default/edit/newsapp/models/menu.py'
tp3673
a(g3423
(S't\x08\x00\x00\x00Database'
tRp3674
I00
S'/newsapp/appadmin/index'
tp3675
a(g3423
(S't\x06\x00\x00\x00Errors'
tRp3676
I00
S'/admin/default/errors/newsapp'
tp3677
a(g3423
(S't\x05\x00\x00\x00About'
tRp3678
I00
S'/admin/default/about/newsapp'
tp3679
aasbasbasbasbasbasbasbag102
(g118
g104
NtRp3680
(dp3681
g107
(dp3682
sg116
g3537
sg109
(lp3683
g102
(g123
g104
NtRp3684
(dp3685
g107
(dp3686
sg116
g3680
sg109
(lp3687
g102
(g103
g104
NtRp3688
(dp3689
g107
(dp3690
g115
I2
ssg116
g3684
sg109
(lp3691
g102
(g111
g104
NtRp3692
(dp3693
g107
(dp3694
g115
I1
ssg116
Nsg109
(lp3695
g102
(g118
g104
NtRp3696
(dp3697
g107
(dp3698
sg116
g3692
sg109
(lp3699
g102
(g123
g104
NtRp3700
(dp3701
g107
(dp3702
sg116
g3696
sg109
(lp3703
g102
(g103
g104
NtRp3704
(dp3705
g107
(dp3706
g115
I1
ssg116
g3700
sg109
(lp3707
S'web2py.com'
p3708
asbasbasbag102
(g118
g104
NtRp3709
(dp3710
g107
(dp3711
sg116
g3692
sg109
(lp3712
g102
(g123
g104
NtRp3713
(dp3714
g107
(dp3715
sg116
g3709
sg109
(lp3716
g102
(g103
g104
NtRp3717
(dp3718
g107
(dp3719
g115
I1
ssg116
g3713
sg109
(lp3720
I00
asbasbasbag102
(g118
g104
NtRp3721
(dp3722
g107
(dp3723
sg116
g3692
sg109
(lp3724
g102
(g123
g104
NtRp3725
(dp3726
g107
(dp3727
sg116
g3721
sg109
(lp3728
g102
(g103
g104
NtRp3729
(dp3730
g107
(dp3731
g115
I1
ssg116
g3725
sg109
(lp3732
S'http://www.web2py.com'
p3733
asbasbasbag102
(g118
g104
NtRp3734
(dp3735
g107
(dp3736
sg116
g3692
sg109
(lp3737
g102
(g123
g104
NtRp3738
(dp3739
g107
(dp3740
sg116
g3734
sg109
(lp3741
g102
(g103
g104
NtRp3742
(dp3743
g107
(dp3744
g115
I1
ssg116
g3738
sg109
(lp3745
(lp3746
(g3423
(S't\x08\x00\x00\x00Download'
tRp3747
I00
S'http://www.web2py.com/examples/default/download'
p3748
tp3749
a(g3423
(S't\x07\x00\x00\x00Support'
tRp3750
I00
S'http://www.web2py.com/examples/default/support'
p3751
tp3752
a(g3423
(S't\x04\x00\x00\x00Demo'
tRp3753
I00
S'http://web2py.com/demo_admin'
p3754
tp3755
a(g3423
(S's\x0e\x00\x00\x00Quick Examples'
tRp3756
I00
S'http://web2py.com/examples/default/examples'
p3757
tp3758
a(g3423
(S't\x03\x00\x00\x00FAQ'
tRp3759
I00
S'http://web2py.com/AlterEgo'
p3760
tp3761
a(g3423
(S't\x06\x00\x00\x00Videos'
tRp3762
I00
S'http://www.web2py.com/examples/default/videos/'
p3763
tp3764
a(g3423
(S's\x11\x00\x00\x00Free Applications'
tRp3765
I00
S'http://web2py.com/appliances'
p3766
tp3767
a(g3423
(S't\x07\x00\x00\x00Plugins'
tRp3768
I00
S'http://web2py.com/plugins'
p3769
tp3770
a(g3423
(S't\x07\x00\x00\x00Layouts'
tRp3771
I00
S'http://web2py.com/layouts'
p3772
tp3773
a(g3423
(S't\x07\x00\x00\x00Recipes'
tRp3774
I00
S'http://web2pyslices.com/'
p3775
tp3776
a(g3423
(S't\x08\x00\x00\x00Semantic'
tRp3777
I00
S'http://web2py.com/semantic'
p3778
tp3779
aasbasbasbasbasbasbasbag102
(g118
g104
NtRp3780
(dp3781
g107
(dp3782
sg116
g3537
sg109
(lp3783
g102
(g123
g104
NtRp3784
(dp3785
g107
(dp3786
sg116
g3780
sg109
(lp3787
g102
(g103
g104
NtRp3788
(dp3789
g107
(dp3790
g115
I2
ssg116
g3784
sg109
(lp3791
g102
(g111
g104
NtRp3792
(dp3793
g107
(dp3794
g115
I1
ssg116
Nsg109
(lp3795
g102
(g118
g104
NtRp3796
(dp3797
g107
(dp3798
sg116
g3792
sg109
(lp3799
g102
(g123
g104
NtRp3800
(dp3801
g107
(dp3802
sg116
g3796
sg109
(lp3803
g102
(g103
g104
NtRp3804
(dp3805
g107
(dp3806
g115
I1
ssg116
g3800
sg109
(lp3807
g3423
(S't\r\x00\x00\x00Documentation'
tRp3808
asbasbasbag102
(g118
g104
NtRp3809
(dp3810
g107
(dp3811
sg116
g3792
sg109
(lp3812
g102
(g123
g104
NtRp3813
(dp3814
g107
(dp3815
sg116
g3809
sg109
(lp3816
g102
(g103
g104
NtRp3817
(dp3818
g107
(dp3819
g115
I1
ssg116
g3813
sg109
(lp3820
I00
asbasbasbag102
(g118
g104
NtRp3821
(dp3822
g107
(dp3823
sg116
g3792
sg109
(lp3824
g102
(g123
g104
NtRp3825
(dp3826
g107
(dp3827
sg116
g3821
sg109
(lp3828
g102
(g103
g104
NtRp3829
(dp3830
g107
(dp3831
g115
I1
ssg116
g3825
sg109
(lp3832
S'http://www.web2py.com/book'
p3833
asbasbasbag102
(g118
g104
NtRp3834
(dp3835
g107
(dp3836
sg116
g3792
sg109
(lp3837
g102
(g123
g104
NtRp3838
(dp3839
g107
(dp3840
sg116
g3834
sg109
(lp3841
g102
(g103
g104
NtRp3842
(dp3843
g107
(dp3844
g115
I1
ssg116
g3838
sg109
(lp3845
(lp3846
(g3423
(S't\x07\x00\x00\x00Preface'
tRp3847
I00
S'http://www.web2py.com/book/default/chapter/00'
p3848
tp3849
a(g3423
(S't\x0c\x00\x00\x00Introduction'
tRp3850
I00
S'http://www.web2py.com/book/default/chapter/01'
p3851
tp3852
a(g3423
(S't\x06\x00\x00\x00Python'
tRp3853
I00
S'http://www.web2py.com/book/default/chapter/02'
p3854
tp3855
a(g3423
(S't\x08\x00\x00\x00Overview'
tRp3856
I00
S'http://www.web2py.com/book/default/chapter/03'
p3857
tp3858
a(g3423
(S's\x08\x00\x00\x00The Core'
tRp3859
I00
S'http://www.web2py.com/book/default/chapter/04'
p3860
tp3861
a(g3423
(S's\t\x00\x00\x00The Views'
tRp3862
I00
S'http://www.web2py.com/book/default/chapter/05'
p3863
tp3864
a(g3423
(S't\x08\x00\x00\x00Database'
tRp3865
I00
S'http://www.web2py.com/book/default/chapter/06'
p3866
tp3867
a(g3423
(S's\x14\x00\x00\x00Forms and Validators'
tRp3868
I00
S'http://www.web2py.com/book/default/chapter/07'
p3869
tp3870
a(g3423
(S's\r\x00\x00\x00Email and SMS'
tRp3871
I00
S'http://www.web2py.com/book/default/chapter/08'
p3872
tp3873
a(g3423
(S's\x0e\x00\x00\x00Access Control'
tRp3874
I00
S'http://www.web2py.com/book/default/chapter/09'
p3875
tp3876
a(g3423
(S't\x08\x00\x00\x00Services'
tRp3877
I00
S'http://www.web2py.com/book/default/chapter/10'
p3878
tp3879
a(g3423
(S's\x0c\x00\x00\x00Ajax Recipes'
tRp3880
I00
S'http://www.web2py.com/book/default/chapter/11'
p3881
tp3882
a(g3423
(S's\x16\x00\x00\x00Components and Plugins'
tRp3883
I00
S'http://www.web2py.com/book/default/chapter/12'
p3884
tp3885
a(g3423
(S's\x12\x00\x00\x00Deployment Recipes'
tRp3886
I00
S'http://www.web2py.com/book/default/chapter/13'
p3887
tp3888
a(g3423
(S's\r\x00\x00\x00Other Recipes'
tRp3889
I00
S'http://www.web2py.com/book/default/chapter/14'
p3890
tp3891
a(g3423
(S's\r\x00\x00\x00Buy this book'
tRp3892
I00
S'http://stores.lulu.com/web2py'
p3893
tp3894
aasbasbasbasbasbasbasbag102
(g118
g104
NtRp3895
(dp3896
g107
(dp3897
sg116
g3537
sg109
(lp3898
g102
(g123
g104
NtRp3899
(dp3900
g107
(dp3901
sg116
g3895
sg109
(lp3902
g102
(g103
g104
NtRp3903
(dp3904
g107
(dp3905
g115
I2
ssg116
g3899
sg109
(lp3906
g102
(g111
g104
NtRp3907
(dp3908
g107
(dp3909
g115
I1
ssg116
Nsg109
(lp3910
g102
(g118
g104
NtRp3911
(dp3912
g107
(dp3913
sg116
g3907
sg109
(lp3914
g102
(g123
g104
NtRp3915
(dp3916
g107
(dp3917
sg116
g3911
sg109
(lp3918
g102
(g103
g104
NtRp3919
(dp3920
g107
(dp3921
g115
I1
ssg116
g3915
sg109
(lp3922
g3423
(S't\t\x00\x00\x00Community'
tRp3923
asbasbasbag102
(g118
g104
NtRp3924
(dp3925
g107
(dp3926
sg116
g3907
sg109
(lp3927
g102
(g123
g104
NtRp3928
(dp3929
g107
(dp3930
sg116
g3924
sg109
(lp3931
g102
(g103
g104
NtRp3932
(dp3933
g107
(dp3934
g115
I1
ssg116
g3928
sg109
(lp3935
I00
asbasbasbag102
(g118
g104
NtRp3936
(dp3937
g107
(dp3938
sg116
g3907
sg109
(lp3939
g102
(g123
g104
NtRp3940
(dp3941
g107
(dp3942
sg116
g3936
sg109
(lp3943
g102
(g103
g104
NtRp3944
(dp3945
g107
(dp3946
g115
I1
ssg116
g3940
sg109
(lp3947
Nasbasbasbag102
(g118
g104
NtRp3948
(dp3949
g107
(dp3950
sg116
g3907
sg109
(lp3951
g102
(g123
g104
NtRp3952
(dp3953
g107
(dp3954
sg116
g3948
sg109
(lp3955
g102
(g103
g104
NtRp3956
(dp3957
g107
(dp3958
g115
I1
ssg116
g3952
sg109
(lp3959
(lp3960
(g3423
(S't\x06\x00\x00\x00Groups'
tRp3961
I00
S'http://www.web2py.com/examples/default/usergroups'
p3962
tp3963
a(g3423
(S't\x07\x00\x00\x00Twitter'
tRp3964
I00
S'http://twitter.com/web2py'
p3965
tp3966
a(g3423
(S's\t\x00\x00\x00Live Chat'
tRp3967
I00
S'http://webchat.freenode.net/?channels=web2py'
p3968
tp3969
aasbasbasbasbasbasbasbag102
(g118
g104
NtRp3970
(dp3971
g107
(dp3972
sg116
g3537
sg109
(lp3973
g102
(g123
g104
NtRp3974
(dp3975
g107
(dp3976
sg116
g3970
sg109
(lp3977
g102
(g103
g104
NtRp3978
(dp3979
g107
(dp3980
g115
I2
ssg116
g3974
sg109
(lp3981
g102
(g111
g104
NtRp3982
(dp3983
g107
(dp3984
g115
I1
ssg116
Nsg109
(lp3985
g102
(g118
g104
NtRp3986
(dp3987
g107
(dp3988
sg116
g3982
sg109
(lp3989
g102
(g123
g104
NtRp3990
(dp3991
g107
(dp3992
sg116
g3986
sg109
(lp3993
g102
(g103
g104
NtRp3994
(dp3995
g107
(dp3996
g115
I1
ssg116
g3990
sg109
(lp3997
g3423
(S't\x07\x00\x00\x00Plugins'
tRp3998
asbasbasbag102
(g118
g104
NtRp3999
(dp4000
g107
(dp4001
sg116
g3982
sg109
(lp4002
g102
(g123
g104
NtRp4003
(dp4004
g107
(dp4005
sg116
g3999
sg109
(lp4006
g102
(g103
g104
NtRp4007
(dp4008
g107
(dp4009
g115
I1
ssg116
g4003
sg109
(lp4010
I00
asbasbasbag102
(g118
g104
NtRp4011
(dp4012
g107
(dp4013
sg116
g3982
sg109
(lp4014
g102
(g123
g104
NtRp4015
(dp4016
g107
(dp4017
sg116
g4011
sg109
(lp4018
g102
(g103
g104
NtRp4019
(dp4020
g107
(dp4021
g115
I1
ssg116
g4015
sg109
(lp4022
Nasbasbasbag102
(g118
g104
NtRp4023
(dp4024
g107
(dp4025
sg116
g3982
sg109
(lp4026
g102
(g123
g104
NtRp4027
(dp4028
g107
(dp4029
sg116
g4023
sg109
(lp4030
g102
(g103
g104
NtRp4031
(dp4032
g107
(dp4033
g115
I1
ssg116
g4027
sg109
(lp4034
(lp4035
(S'plugin_wiki'
p4036
I00
S'http://web2py.com/examples/default/download'
p4037
tp4038
a(g3423
(S's\r\x00\x00\x00Other Plugins'
tRp4039
I00
g3769
tp4040
a(g3423
(S's\x0e\x00\x00\x00Layout Plugins'
tRp4041
I00
g3772
tp4042
aasbasbasbasbasbasbasbasbasbasbasbasbasbasbasbasbasbasbasbag102
(g118
g104
NtRp4043
(dp4044
g107
(dp4045
sg116
g2868
sg109
(lp4046
g102
(g123
g104
NtRp4047
(dp4048
g107
(dp4049
g127
g128
ssg116
g4043
sg109
(lp4050
S'meta'
p4051
asbag102
(g123
g104
NtRp4052
(dp4053
g107
(dp4054
g134
g135
ssg116
g4043
sg109
(lp4055
S':'
asbag102
(g123
g104
NtRp4056
(dp4057
g107
(dp4058
sg116
g4043
sg109
(lp4059
g102
(g103
g104
NtRp4060
(dp4061
g107
(dp4062
g115
I5
ssg116
g4056
sg109
(lp4063
g102
(g111
g104
NtRp4064
(dp4065
g107
(dp4066
g115
I4
ssg116
Nsg109
(lp4067
g102
(g118
g104
NtRp4068
(dp4069
g107
(dp4070
sg116
g4064
sg109
(lp4071
g102
(g123
g104
NtRp4072
(dp4073
g107
(dp4074
g127
g128
ssg116
g4068
sg109
(lp4075
S'author'
p4076
asbag102
(g123
g104
NtRp4077
(dp4078
g107
(dp4079
g134
g135
ssg116
g4068
sg109
(lp4080
S':'
asbag102
(g123
g104
NtRp4081
(dp4082
g107
(dp4083
sg116
g4068
sg109
(lp4084
g102
(g103
g104
NtRp4085
(dp4086
g107
(dp4087
g115
I4
ssg116
g4081
sg109
(lp4088
S'Your Name <you@example.com>'
p4089
asbasbasbag102
(g118
g104
NtRp4090
(dp4091
g107
(dp4092
sg116
g4064
sg109
(lp4093
g102
(g123
g104
NtRp4094
(dp4095
g107
(dp4096
g127
g128
ssg116
g4090
sg109
(lp4097
S'copyright'
p4098
asbag102
(g123
g104
NtRp4099
(dp4100
g107
(dp4101
g134
g135
ssg116
g4090
sg109
(lp4102
S':'
asbag102
(g123
g104
NtRp4103
(dp4104
g107
(dp4105
sg116
g4090
sg109
(lp4106
g102
(g103
g104
NtRp4107
(dp4108
g107
(dp4109
g115
I4
ssg116
g4103
sg109
(lp4110
S'Copyright 2011'
p4111
asbasbasbag102
(g118
g104
NtRp4112
(dp4113
g107
(dp4114
sg116
g4064
sg109
(lp4115
g102
(g123
g104
NtRp4116
(dp4117
g107
(dp4118
g127
g128
ssg116
g4112
sg109
(lp4119
S'description'
p4120
asbag102
(g123
g104
NtRp4121
(dp4122
g107
(dp4123
g134
g135
ssg116
g4112
sg109
(lp4124
S':'
asbag102
(g123
g104
NtRp4125
(dp4126
g107
(dp4127
sg116
g4112
sg109
(lp4128
g102
(g103
g104
NtRp4129
(dp4130
g107
(dp4131
g115
I4
ssg116
g4125
sg109
(lp4132
S'a cool new app'
p4133
asbasbasbag102
(g118
g104
NtRp4134
(dp4135
g107
(dp4136
sg116
g4064
sg109
(lp4137
g102
(g123
g104
NtRp4138
(dp4139
g107
(dp4140
g127
g128
ssg116
g4134
sg109
(lp4141
S'generator'
p4142
asbag102
(g123
g104
NtRp4143
(dp4144
g107
(dp4145
g134
g135
ssg116
g4134
sg109
(lp4146
S':'
asbag102
(g123
g104
NtRp4147
(dp4148
g107
(dp4149
sg116
g4134
sg109
(lp4150
g102
(g103
g104
NtRp4151
(dp4152
g107
(dp4153
g115
I4
ssg116
g4147
sg109
(lp4154
S'Web2py Web Framework'
p4155
asbasbasbag102
(g118
g104
NtRp4156
(dp4157
g107
(dp4158
sg116
g4064
sg109
(lp4159
g102
(g123
g104
NtRp4160
(dp4161
g107
(dp4162
g127
g128
ssg116
g4156
sg109
(lp4163
S'keywords'
p4164
asbag102
(g123
g104
NtRp4165
(dp4166
g107
(dp4167
g134
g135
ssg116
g4156
sg109
(lp4168
S':'
asbag102
(g123
g104
NtRp4169
(dp4170
g107
(dp4171
sg116
g4156
sg109
(lp4172
g102
(g103
g104
NtRp4173
(dp4174
g107
(dp4175
g115
I4
ssg116
g4169
sg109
(lp4176
S'web2py, python, framework'
p4177
asbasbasbasbasbasbasbag102
(g118
g104
NtRp4178
(dp4179
g107
(dp4180
sg116
g2868
sg109
(lp4181
g102
(g123
g104
NtRp4182
(dp4183
g107
(dp4184
g127
g128
ssg116
g4178
sg109
(lp4185
S'postprocessing'
p4186
asbag102
(g123
g104
NtRp4187
(dp4188
g107
(dp4189
g134
g135
ssg116
g4178
sg109
(lp4190
S':'
asbag102
(g123
g104
NtRp4191
(dp4192
g107
(dp4193
sg116
g4178
sg109
(lp4194
g102
(g103
g104
NtRp4195
(dp4196
g107
(dp4197
g115
I5
ssg116
g4191
sg109
(lp4198
g102
(g111
g104
NtRp4199
(dp4200
g107
(dp4201
g115
I4
ssg116
Nsg109
(lp4202
sbasbasbasbag102
(g118
g104
NtRp4203
(dp4204
g107
(dp4205
sg116
g2868
sg109
(lp4206
g102
(g123
g104
NtRp4207
(dp4208
g107
(dp4209
g127
g128
ssg116
g4203
sg109
(lp4210
S'session_filename'
p4211
asbag102
(g123
g104
NtRp4212
(dp4213
g107
(dp4214
g134
g135
ssg116
g4203
sg109
(lp4215
S':'
asbag102
(g123
g104
NtRp4216
(dp4217
g107
(dp4218
sg116
g4203
sg109
(lp4219
g102
(g103
g104
NtRp4220
(dp4221
g107
(dp4222
g115
I5
ssg116
g4216
sg109
(lp4223
S'/home/pooja/web2py/applications/newsapp/sessions/127.0.0.1-3e992375-40ed-44a5-a458-24574350aa17'
p4224
asbasbasbag102
(g118
g104
NtRp4225
(dp4226
g107
(dp4227
sg116
g2868
sg109
(lp4228
g102
(g123
g104
NtRp4229
(dp4230
g107
(dp4231
g127
g128
ssg116
g4225
sg109
(lp4232
S'session_id'
p4233
asbag102
(g123
g104
NtRp4234
(dp4235
g107
(dp4236
g134
g135
ssg116
g4225
sg109
(lp4237
S':'
asbag102
(g123
g104
NtRp4238
(dp4239
g107
(dp4240
sg116
g4225
sg109
(lp4241
g102
(g103
g104
NtRp4242
(dp4243
g107
(dp4244
g115
I5
ssg116
g4238
sg109
(lp4245
S'127.0.0.1-3e992375-40ed-44a5-a458-24574350aa17'
p4246
asbasbasbag102
(g118
g104
NtRp4247
(dp4248
g107
(dp4249
sg116
g2868
sg109
(lp4250
g102
(g123
g104
NtRp4251
(dp4252
g107
(dp4253
g127
g128
ssg116
g4247
sg109
(lp4254
S'session_id_name'
p4255
asbag102
(g123
g104
NtRp4256
(dp4257
g107
(dp4258
g134
g135
ssg116
g4247
sg109
(lp4259
S':'
asbag102
(g123
g104
NtRp4260
(dp4261
g107
(dp4262
sg116
g4247
sg109
(lp4263
g102
(g103
g104
NtRp4264
(dp4265
g107
(dp4266
g115
I5
ssg116
g4260
sg109
(lp4267
g2925
asbasbasbag102
(g118
g104
NtRp4268
(dp4269
g107
(dp4270
sg116
g2868
sg109
(lp4271
g102
(g123
g104
NtRp4272
(dp4273
g107
(dp4274
g127
g128
ssg116
g4268
sg109
(lp4275
S'session_new'
p4276
asbag102
(g123
g104
NtRp4277
(dp4278
g107
(dp4279
g134
g135
ssg116
g4268
sg109
(lp4280
S':'
asbag102
(g123
g104
NtRp4281
(dp4282
g107
(dp4283
sg116
g4268
sg109
(lp4284
g102
(g103
g104
NtRp4285
(dp4286
g107
(dp4287
g115
I5
ssg116
g4281
sg109
(lp4288
g1331
asbasbasbag102
(g118
g104
NtRp4289
(dp4290
g107
(dp4291
sg116
g2868
sg109
(lp4292
g102
(g123
g104
NtRp4293
(dp4294
g107
(dp4295
g127
g128
ssg116
g4289
sg109
(lp4296
S'status'
p4297
asbag102
(g123
g104
NtRp4298
(dp4299
g107
(dp4300
g134
g135
ssg116
g4289
sg109
(lp4301
S':'
asbag102
(g123
g104
NtRp4302
(dp4303
g107
(dp4304
sg116
g4289
sg109
(lp4305
g102
(g103
g104
NtRp4306
(dp4307
g107
(dp4308
g115
I5
ssg116
g4302
sg109
(lp4309
S'200'
p4310
asbasbasbag102
(g118
g104
NtRp4311
(dp4312
g107
(dp4313
sg116
g2868
sg109
(lp4314
g102
(g123
g104
NtRp4315
(dp4316
g107
(dp4317
g127
g128
ssg116
g4311
sg109
(lp4318
S'subtitle'
p4319
asbag102
(g123
g104
NtRp4320
(dp4321
g107
(dp4322
g134
g135
ssg116
g4311
sg109
(lp4323
S':'
asbag102
(g123
g104
NtRp4324
(dp4325
g107
(dp4326
sg116
g4311
sg109
(lp4327
g102
(g103
g104
NtRp4328
(dp4329
g107
(dp4330
g115
I5
ssg116
g4324
sg109
(lp4331
g3423
(S's\r\x00\x00\x00customize me!'
tRp4332
asbasbasbag102
(g118
g104
NtRp4333
(dp4334
g107
(dp4335
sg116
g2868
sg109
(lp4336
g102
(g123
g104
NtRp4337
(dp4338
g107
(dp4339
g127
g128
ssg116
g4333
sg109
(lp4340
S'title'
p4341
asbag102
(g123
g104
NtRp4342
(dp4343
g107
(dp4344
g134
g135
ssg116
g4333
sg109
(lp4345
S':'
asbag102
(g123
g104
NtRp4346
(dp4347
g107
(dp4348
sg116
g4333
sg109
(lp4349
g102
(g103
g104
NtRp4350
(dp4351
g107
(dp4352
g115
I5
ssg116
g4346
sg109
(lp4353
S'Newsapp'
p4354
asbasbasbag102
(g118
g104
NtRp4355
(dp4356
g107
(dp4357
sg116
g2868
sg109
(lp4358
g102
(g123
g104
NtRp4359
(dp4360
g107
(dp4361
g127
g128
ssg116
g4355
sg109
(lp4362
g1994
asbag102
(g123
g104
NtRp4363
(dp4364
g107
(dp4365
g134
g135
ssg116
g4355
sg109
(lp4366
S':'
asbag102
(g123
g104
NtRp4367
(dp4368
g107
(dp4369
sg116
g4355
sg109
(lp4370
g102
(g103
g104
NtRp4371
(dp4372
g107
(dp4373
g115
I5
ssg116
g4367
sg109
(lp4374
g2007
asbasbasbag102
(g118
g104
NtRp4375
(dp4376
g107
(dp4377
sg116
g2868
sg109
(lp4378
g102
(g123
g104
NtRp4379
(dp4380
g107
(dp4381
g127
g128
ssg116
g4375
sg109
(lp4382
S'view'
p4383
asbag102
(g123
g104
NtRp4384
(dp4385
g107
(dp4386
g134
g135
ssg116
g4375
sg109
(lp4387
S':'
asbag102
(g123
g104
NtRp4388
(dp4389
g107
(dp4390
sg116
g4375
sg109
(lp4391
g102
(g103
g104
NtRp4392
(dp4393
g107
(dp4394
g115
I5
ssg116
g4388
sg109
(lp4395
S'default/fbuser.html'
p4396
asbasbasbasbasbsS'locals'
p4397
(dp4398
g59
S'<addinfourl at 140250882927504 whose fp = <socket._fileobject object>>'
p4399
sg6
S'400'
p4400
sg61
S'<httplib.HTTPMessage instance>'
p4401
sS'self'
p4402
S'<urllib2.HTTPDefaultErrorHandler instance>'
p4403
sS'req'
p4404
S'<urllib2.Request instance>'
p4405
sg55
S"'Bad Request'"
p4406
sssS'traceback'
p4407
S'Traceback (most recent call last):\n  File "/usr/lib/pymodules/python2.7/gluon/restricted.py", line 205, in restricted\n    exec ccode in environment\n  File "/home/pooja/web2py/applications/newsapp/controllers/default.py", line 101, in <module>\n  File "/usr/lib/pymodules/python2.7/gluon/globals.py", line 173, in <lambda>\n    self._caller = lambda f: f()\n  File "/home/pooja/web2py/applications/newsapp/controllers/default.py", line 78, in fbuser\n    details = urllib2.urlopen(url1)\n  File "/usr/lib/python2.7/urllib2.py", line 127, in urlopen\n    return _opener.open(url, data, timeout)\n  File "/usr/lib/python2.7/urllib2.py", line 410, in open\n    response = meth(req, response)\n  File "/usr/lib/python2.7/urllib2.py", line 523, in http_response\n    \'http\', request, response, code, msg, hdrs)\n  File "/usr/lib/python2.7/urllib2.py", line 448, in error\n    return self._call_chain(*args)\n  File "/usr/lib/python2.7/urllib2.py", line 382, in _call_chain\n    result = func(*args)\n  File "/usr/lib/python2.7/urllib2.py", line 531, in http_error_default\n    raise HTTPError(req.get_full_url(), code, msg, hdrs, fp)\nHTTPError: HTTP Error 400: Bad Request\n'
p4408
s.