(dp1
S'output'
p2
S"<type 'exceptions.IndentationError'> unexpected indent (default.py, line 64)"
p3
sS'layer'
p4
S'/home/pooja/web2py/applications/newsapp/controllers/default.py'
p5
sS'code'
p6
S'import urllib,urllib2\nfrom urlparse import *\nimport sys\nimport os\nfrom oauth2 import *\nfrom gluon import *\nimport cgi\nimport cgitb; cgitb.enable()\nimport json\n\n\ndef index():\n    return dict()\n\ndef tw_signin():\n    app = Consumer(key= "dJvGhNEaw6ivlQGals8g1mMu9", secret= "n5qBLoWVO77KHLfAUB1Z5wTYtO7ed62XmNbq52bmYjEFYdJNQi")\n    client = Client(app)\n    response, content = client.request(\'https://twitter.com/oauth/request_token\', "GET")\n    if response[\'status\'] != \'200\':\n        raise HTTP(response[\'status\']),str(content)\n    request_token = dict(parse_qsl(content))\n    session.request_token = request_token\n    redirect_location = "%s?oauth_token=%s" % (\'https://twitter.com/oauth/authenticate\', request_token[\'oauth_token\'])\n    redirect(redirect_location)\n    return\n\ndef permission():\n    if not(session.request_token is None):\n        consumer = Consumer(key= "dJvGhNEaw6ivlQGals8g1mMu9", secret= "n5qBLoWVO77KHLfAUB1Z5wTYtO7ed62XmNbq52bmYjEFYdJNQi")\n        token = None\n        try:\n            token = Token(session.request_token[\'oauth_token\'],session.request_token[\'oauth_token_secret\'])\n        except:\n            redirect(URL(r=request,c=\'default\', f=\'index\'))\n        token.set_verifier(request.vars[\'oauth_verifier\'])\n        client = Client(consumer, token)\n        response, content = client.request(\'https://twitter.com/oauth/access_token\', "POST")\n        if response[\'status\'] == \'401\':\n            BEAUTIFY("you have denied the request")\n            redirect(URL(r=request,c=\'default\', f=\'index\'))\n        if response[\'status\'] != \'200\':\n            return response[\'status\'],str(content)\n        access_token = dict(parse_qsl(content))\n        session.access_token = access_token\n        user_id = int(access_token[\'user_id\'])\n        name =(access_token[\'screen_name\'])\n        tw_status_query = """\n            INSERT IGNORE INTO  tw_details(screen_name,user_id,tw_token,tw_token_secret) VALUES (\'%s\',\'%s\',\'%s\',\'%s\')\n    ON DUPLICATE KEY UPDATE tw_token=\'%s\',tw_token_secret=\'%s\';"""%(name,user_id,session.access_token[\'oauth_token\'],session.access_token[\'oauth_token_secret\'],session.access_token[\'oauth_token\'],session.access_token[\'oauth_token_secret\'])\n    tw_status = db.executesql(tw_status_query)\n    redirect(URL(r=request,c=\'default\', f=\'tw_trends\'))\n    return\n\ndef tw_trends():\n    if not(session.request_token is None):\n        consumer = Consumer(key= "dJvGhNEaw6ivlQGals8g1mMu9", secret= "n5qBLoWVO77KHLfAUB1Z5wTYtO7ed62XmNbq52bmYjEFYdJNQi")\n        token = Token(session.access_token[\'oauth_token\'],session.access_token[\'oauth_token_secret\'])\n        client = Client(consumer, token)\n        #response, content = client.request(\'https://api.twitter.com/1.1/statuses/user_timeline.json?screen_name=poojakvj\', "GET")\n        #response, content = client.request(\'https://api.twitter.com/1.1/trends/available.json\', "GET")\n        response, content = client.request(\'https://api.twitter.com/1.1/trends/place.json?id=23424848\', "GET")\n        data = json.loads(content)\n        print data[0]["trends"][1][\'name\']\n\t\treturn dict(content = data)\n\ndef get_extented_token():\n    token = request.vars.token\n    url1 = "https://graph.facebook.com/"\n    url1 += \'me?access_token=%s\'%(token)\n    details = urllib2.urlopen(url1)\n    dict_response = json.loads(details.read())\n    name = dict_response[\'name\']\n    email_id = dict_response[\'email\']\n    fb_id = dict_response[\'id\']\n    session.email_id = email_id\n    session.fb_id = fb_id\n    url = "https://graph.facebook.com/"\n    url += "oauth/access_token?client_id="+fbconfig.app_id+"&client_secret="+fbconfig.app_secret\n    url += "&grant_type=fb_exchange_token"\n    url += "&fb_exchange_token=%s"%(token)\n\n    data = urllib2.urlopen(url)\n\n    interm = data.read().split("=")\n    token = interm[1].split("&")\n    extended_token = token[0]\n    session.extended_token = extended_token\n    expires = interm[2]\n\ndef fbuser():\n    token = request.vars.token\n    url1 = "https://graph.facebook.com/"\n    url1 += \'me?access_token=%s\'%(token)\n    details = urllib2.urlopen(url1)\n    dict_response = json.loads(details.read())\n    name = dict_response[\'name\']\n    email_id = ""\n    try:\n        email_id = dict_response[\'email\']\n    except:\n        pass\n    fb_id = dict_response[\'id\']\n    url = "https://graph.facebook.com/"\n    url += "oauth/access_token?client_id="+fbconfig.app_id+"&client_secret="+fbconfig.app_secret\n    url += "&grant_type=fb_exchange_token"\n    url += "&fb_exchange_token=%s"%(token)\n\n    data = urllib2.urlopen(url)\n    interm = data.read().split("=")\n    token = interm[1].split("&")\n    extended_token = token[0]\n    session.extended_token = extended_token\n    expires = interm[2]\n    fb_status = db.executesql("""INSERT IGNORE INTO  fb_details(name,email_id,fb_id,access_token,expiry) VALUES (%s,%s,%s,%s,%s);""",(name,email_id,session.fb_id,extended_token,expires))\n    return dict()\n\nresponse._vars=response._caller(index)\n'
p7
sS'snapshot'
p8
(dp9
S'exception'
p10
(dp11
S'__getslice__'
p12
S"<method-wrapper '__getslice__' of exceptions.IndentationError object>"
p13
sS'text'
p14
S"'\\t\\treturn dict(content = data)\\n'"
p15
sS'__str__'
p16
S"<method-wrapper '__str__' of exceptions.IndentationError object>"
p17
sS'__reduce__'
p18
S'<built-in method __reduce__ of exceptions.IndentationError object>'
p19
sS'__dict__'
p20
S'{}'
p21
sS'__sizeof__'
p22
S'<built-in method __sizeof__ of exceptions.IndentationError object>'
p23
sS'__init__'
p24
S"<method-wrapper '__init__' of exceptions.IndentationError object>"
p25
sS'__setattr__'
p26
S"<method-wrapper '__setattr__' of exceptions.IndentationError object>"
p27
sS'__reduce_ex__'
p28
S'<built-in method __reduce_ex__ of exceptions.IndentationError object>'
p29
sS'__new__'
p30
S'<built-in method __new__ of type object>'
p31
sS'__format__'
p32
S'<built-in method __format__ of exceptions.IndentationError object>'
p33
sS'__class__'
p34
S"<type 'exceptions.IndentationError'>"
p35
sS'filename'
p36
S"'/home/pooja/web2py/applications/newsapp/controllers/default.py'"
p37
sS'lineno'
p38
S'64'
p39
sS'msg'
p40
S"'unexpected indent'"
p41
sS'__doc__'
p42
S"'Improper indentation.'"
p43
sS'__getitem__'
p44
S"<method-wrapper '__getitem__' of exceptions.IndentationError object>"
p45
sS'__setstate__'
p46
S'<built-in method __setstate__ of exceptions.IndentationError object>'
p47
sS'__getattribute__'
p48
S"<method-wrapper '__getattribute__' of exceptions.IndentationError object>"
p49
sS'print_file_and_line'
p50
S'None'
p51
sS'args'
p52
S"('unexpected indent', ('/home/pooja/web2py/applications/newsapp/controllers/default.py', 64, 2, '\\t\\treturn dict(content = data)\\n'))"
p53
sS'__subclasshook__'
p54
S'<built-in method __subclasshook__ of type object>'
p55
sS'offset'
p56
S'2'
sS'__unicode__'
p57
S'<built-in method __unicode__ of exceptions.IndentationError object>'
p58
sS'__delattr__'
p59
S"<method-wrapper '__delattr__' of exceptions.IndentationError object>"
p60
sS'__repr__'
p61
S"<method-wrapper '__repr__' of exceptions.IndentationError object>"
p62
sS'__hash__'
p63
S"<method-wrapper '__hash__' of exceptions.IndentationError object>"
p64
ssS'evalue'
p65
S'unexpected indent (default.py, line 64)'
p66
sS'request'
p67
ccopy_reg
_reconstructor
p68
(cgluon.html
BEAUTIFY
p69
c__builtin__
object
p70
NtRp71
(dp72
S'attributes'
p73
(dp74
sS'components'
p75
(lp76
g68
(cgluon.html
TABLE
p77
g70
NtRp78
(dp79
g73
(dp80
S'level'
p81
I5
ssS'parent'
p82
Nsg75
(lp83
g68
(cgluon.html
TR
p84
g70
NtRp85
(dp86
g73
(dp87
sg82
g78
sg75
(lp88
g68
(cgluon.html
TD
p89
g70
NtRp90
(dp91
g73
(dp92
S'_style'
p93
S'font-weight:bold;vertical-align:top'
p94
ssg82
g85
sg75
(lp95
S'ajax'
p96
asbag68
(g89
g70
NtRp97
(dp98
g73
(dp99
S'_valign'
p100
S'top'
p101
ssg82
g85
sg75
(lp102
S':'
asbag68
(g89
g70
NtRp103
(dp104
g73
(dp105
sg82
g85
sg75
(lp106
g68
(g69
g70
NtRp107
(dp108
g73
(dp109
g81
I5
ssg82
g103
sg75
(lp110
S'False'
p111
asbasbasbag68
(g84
g70
NtRp112
(dp113
g73
(dp114
sg82
g78
sg75
(lp115
g68
(g89
g70
NtRp116
(dp117
g73
(dp118
g93
g94
ssg82
g112
sg75
(lp119
S'application'
p120
asbag68
(g89
g70
NtRp121
(dp122
g73
(dp123
g100
g101
ssg82
g112
sg75
(lp124
S':'
asbag68
(g89
g70
NtRp125
(dp126
g73
(dp127
sg82
g112
sg75
(lp128
g68
(g69
g70
NtRp129
(dp130
g73
(dp131
g81
I5
ssg82
g125
sg75
(lp132
S'newsapp'
p133
asbasbasbag68
(g84
g70
NtRp134
(dp135
g73
(dp136
sg82
g78
sg75
(lp137
g68
(g89
g70
NtRp138
(dp139
g73
(dp140
g93
g94
ssg82
g134
sg75
(lp141
g52
asbag68
(g89
g70
NtRp142
(dp143
g73
(dp144
g100
g101
ssg82
g134
sg75
(lp145
S':'
asbag68
(g89
g70
NtRp146
(dp147
g73
(dp148
sg82
g134
sg75
(lp149
g68
(g69
g70
NtRp150
(dp151
g73
(dp152
g81
I5
ssg82
g146
sg75
(lp153
g68
(g77
g70
NtRp154
(dp155
g73
(dp156
g81
I4
ssg82
Nsg75
(lp157
sbasbasbasbag68
(g84
g70
NtRp158
(dp159
g73
(dp160
sg82
g78
sg75
(lp161
g68
(g89
g70
NtRp162
(dp163
g73
(dp164
g93
g94
ssg82
g158
sg75
(lp165
S'body'
p166
asbag68
(g89
g70
NtRp167
(dp168
g73
(dp169
g100
g101
ssg82
g158
sg75
(lp170
S':'
asbag68
(g89
g70
NtRp171
(dp172
g73
(dp173
sg82
g158
sg75
(lp174
g68
(g69
g70
NtRp175
(dp176
g73
(dp177
g81
I5
ssg82
g171
sg75
(lp178
S'<cStringIO.StringO object at 0x7f48a4056b90>'
p179
asbasbasbag68
(g84
g70
NtRp180
(dp181
g73
(dp182
sg82
g78
sg75
(lp183
g68
(g89
g70
NtRp184
(dp185
g73
(dp186
g93
g94
ssg82
g180
sg75
(lp187
S'client'
p188
asbag68
(g89
g70
NtRp189
(dp190
g73
(dp191
g100
g101
ssg82
g180
sg75
(lp192
S':'
asbag68
(g89
g70
NtRp193
(dp194
g73
(dp195
sg82
g180
sg75
(lp196
g68
(g69
g70
NtRp197
(dp198
g73
(dp199
g81
I5
ssg82
g193
sg75
(lp200
S'127.0.0.1'
p201
asbasbasbag68
(g84
g70
NtRp202
(dp203
g73
(dp204
sg82
g78
sg75
(lp205
g68
(g89
g70
NtRp206
(dp207
g73
(dp208
g93
g94
ssg82
g202
sg75
(lp209
S'controller'
p210
asbag68
(g89
g70
NtRp211
(dp212
g73
(dp213
g100
g101
ssg82
g202
sg75
(lp214
S':'
asbag68
(g89
g70
NtRp215
(dp216
g73
(dp217
sg82
g202
sg75
(lp218
g68
(g69
g70
NtRp219
(dp220
g73
(dp221
g81
I5
ssg82
g215
sg75
(lp222
S'default'
p223
asbasbasbag68
(g84
g70
NtRp224
(dp225
g73
(dp226
sg82
g78
sg75
(lp227
g68
(g89
g70
NtRp228
(dp229
g73
(dp230
g93
g94
ssg82
g224
sg75
(lp231
S'cookies'
p232
asbag68
(g89
g70
NtRp233
(dp234
g73
(dp235
g100
g101
ssg82
g224
sg75
(lp236
S':'
asbag68
(g89
g70
NtRp237
(dp238
g73
(dp239
sg82
g224
sg75
(lp240
g68
(g69
g70
NtRp241
(dp242
g73
(dp243
g81
I5
ssg82
g237
sg75
(lp244
g68
(g77
g70
NtRp245
(dp246
g73
(dp247
g81
I4
ssg82
Nsg75
(lp248
g68
(g84
g70
NtRp249
(dp250
g73
(dp251
sg82
g245
sg75
(lp252
g68
(g89
g70
NtRp253
(dp254
g73
(dp255
g93
g94
ssg82
g249
sg75
(lp256
S'session_id_admin'
p257
asbag68
(g89
g70
NtRp258
(dp259
g73
(dp260
g100
g101
ssg82
g249
sg75
(lp261
S':'
asbag68
(g89
g70
NtRp262
(dp263
g73
(dp264
sg82
g249
sg75
(lp265
g68
(g69
g70
NtRp266
(dp267
g73
(dp268
g81
I4
ssg82
g262
sg75
(lp269
g68
(g77
g70
NtRp270
(dp271
g73
(dp272
g81
I3
ssg82
Nsg75
(lp273
g68
(g84
g70
NtRp274
(dp275
g73
(dp276
sg82
g270
sg75
(lp277
g68
(g89
g70
NtRp278
(dp279
g73
(dp280
g93
g94
ssg82
g274
sg75
(lp281
S'comment'
p282
asbag68
(g89
g70
NtRp283
(dp284
g73
(dp285
g100
g101
ssg82
g274
sg75
(lp286
S':'
asbag68
(g89
g70
NtRp287
(dp288
g73
(dp289
sg82
g274
sg75
(lp290
g68
(g69
g70
NtRp291
(dp292
g73
(dp293
g81
I3
ssg82
g287
sg75
(lp294
S''
asbasbasbag68
(g84
g70
NtRp295
(dp296
g73
(dp297
sg82
g270
sg75
(lp298
g68
(g89
g70
NtRp299
(dp300
g73
(dp301
g93
g94
ssg82
g295
sg75
(lp302
S'domain'
p303
asbag68
(g89
g70
NtRp304
(dp305
g73
(dp306
g100
g101
ssg82
g295
sg75
(lp307
S':'
asbag68
(g89
g70
NtRp308
(dp309
g73
(dp310
sg82
g295
sg75
(lp311
g68
(g69
g70
NtRp312
(dp313
g73
(dp314
g81
I3
ssg82
g308
sg75
(lp315
S''
asbasbasbag68
(g84
g70
NtRp316
(dp317
g73
(dp318
sg82
g270
sg75
(lp319
g68
(g89
g70
NtRp320
(dp321
g73
(dp322
g93
g94
ssg82
g316
sg75
(lp323
S'expires'
p324
asbag68
(g89
g70
NtRp325
(dp326
g73
(dp327
g100
g101
ssg82
g316
sg75
(lp328
S':'
asbag68
(g89
g70
NtRp329
(dp330
g73
(dp331
sg82
g316
sg75
(lp332
g68
(g69
g70
NtRp333
(dp334
g73
(dp335
g81
I3
ssg82
g329
sg75
(lp336
S''
asbasbasbag68
(g84
g70
NtRp337
(dp338
g73
(dp339
sg82
g270
sg75
(lp340
g68
(g89
g70
NtRp341
(dp342
g73
(dp343
g93
g94
ssg82
g337
sg75
(lp344
S'httponly'
p345
asbag68
(g89
g70
NtRp346
(dp347
g73
(dp348
g100
g101
ssg82
g337
sg75
(lp349
S':'
asbag68
(g89
g70
NtRp350
(dp351
g73
(dp352
sg82
g337
sg75
(lp353
g68
(g69
g70
NtRp354
(dp355
g73
(dp356
g81
I3
ssg82
g350
sg75
(lp357
S''
asbasbasbag68
(g84
g70
NtRp358
(dp359
g73
(dp360
sg82
g270
sg75
(lp361
g68
(g89
g70
NtRp362
(dp363
g73
(dp364
g93
g94
ssg82
g358
sg75
(lp365
S'max-age'
p366
asbag68
(g89
g70
NtRp367
(dp368
g73
(dp369
g100
g101
ssg82
g358
sg75
(lp370
S':'
asbag68
(g89
g70
NtRp371
(dp372
g73
(dp373
sg82
g358
sg75
(lp374
g68
(g69
g70
NtRp375
(dp376
g73
(dp377
g81
I3
ssg82
g371
sg75
(lp378
S''
asbasbasbag68
(g84
g70
NtRp379
(dp380
g73
(dp381
sg82
g270
sg75
(lp382
g68
(g89
g70
NtRp383
(dp384
g73
(dp385
g93
g94
ssg82
g379
sg75
(lp386
S'path'
p387
asbag68
(g89
g70
NtRp388
(dp389
g73
(dp390
g100
g101
ssg82
g379
sg75
(lp391
S':'
asbag68
(g89
g70
NtRp392
(dp393
g73
(dp394
sg82
g379
sg75
(lp395
g68
(g69
g70
NtRp396
(dp397
g73
(dp398
g81
I3
ssg82
g392
sg75
(lp399
S''
asbasbasbag68
(g84
g70
NtRp400
(dp401
g73
(dp402
sg82
g270
sg75
(lp403
g68
(g89
g70
NtRp404
(dp405
g73
(dp406
g93
g94
ssg82
g400
sg75
(lp407
S'secure'
p408
asbag68
(g89
g70
NtRp409
(dp410
g73
(dp411
g100
g101
ssg82
g400
sg75
(lp412
S':'
asbag68
(g89
g70
NtRp413
(dp414
g73
(dp415
sg82
g400
sg75
(lp416
g68
(g69
g70
NtRp417
(dp418
g73
(dp419
g81
I3
ssg82
g413
sg75
(lp420
S''
asbasbasbag68
(g84
g70
NtRp421
(dp422
g73
(dp423
sg82
g270
sg75
(lp424
g68
(g89
g70
NtRp425
(dp426
g73
(dp427
g93
g94
ssg82
g421
sg75
(lp428
S'version'
p429
asbag68
(g89
g70
NtRp430
(dp431
g73
(dp432
g100
g101
ssg82
g421
sg75
(lp433
S':'
asbag68
(g89
g70
NtRp434
(dp435
g73
(dp436
sg82
g421
sg75
(lp437
g68
(g69
g70
NtRp438
(dp439
g73
(dp440
g81
I3
ssg82
g434
sg75
(lp441
S''
asbasbasbasbasbasbasbag68
(g84
g70
NtRp442
(dp443
g73
(dp444
sg82
g245
sg75
(lp445
g68
(g89
g70
NtRp446
(dp447
g73
(dp448
g93
g94
ssg82
g442
sg75
(lp449
S'session_id_newsapp'
p450
asbag68
(g89
g70
NtRp451
(dp452
g73
(dp453
g100
g101
ssg82
g442
sg75
(lp454
S':'
asbag68
(g89
g70
NtRp455
(dp456
g73
(dp457
sg82
g442
sg75
(lp458
g68
(g69
g70
NtRp459
(dp460
g73
(dp461
g81
I4
ssg82
g455
sg75
(lp462
g68
(g77
g70
NtRp463
(dp464
g73
(dp465
g81
I3
ssg82
Nsg75
(lp466
g68
(g84
g70
NtRp467
(dp468
g73
(dp469
sg82
g463
sg75
(lp470
g68
(g89
g70
NtRp471
(dp472
g73
(dp473
g93
g94
ssg82
g467
sg75
(lp474
g282
asbag68
(g89
g70
NtRp475
(dp476
g73
(dp477
g100
g101
ssg82
g467
sg75
(lp478
S':'
asbag68
(g89
g70
NtRp479
(dp480
g73
(dp481
sg82
g467
sg75
(lp482
g68
(g69
g70
NtRp483
(dp484
g73
(dp485
g81
I3
ssg82
g479
sg75
(lp486
S''
asbasbasbag68
(g84
g70
NtRp487
(dp488
g73
(dp489
sg82
g463
sg75
(lp490
g68
(g89
g70
NtRp491
(dp492
g73
(dp493
g93
g94
ssg82
g487
sg75
(lp494
g303
asbag68
(g89
g70
NtRp495
(dp496
g73
(dp497
g100
g101
ssg82
g487
sg75
(lp498
S':'
asbag68
(g89
g70
NtRp499
(dp500
g73
(dp501
sg82
g487
sg75
(lp502
g68
(g69
g70
NtRp503
(dp504
g73
(dp505
g81
I3
ssg82
g499
sg75
(lp506
S''
asbasbasbag68
(g84
g70
NtRp507
(dp508
g73
(dp509
sg82
g463
sg75
(lp510
g68
(g89
g70
NtRp511
(dp512
g73
(dp513
g93
g94
ssg82
g507
sg75
(lp514
g324
asbag68
(g89
g70
NtRp515
(dp516
g73
(dp517
g100
g101
ssg82
g507
sg75
(lp518
S':'
asbag68
(g89
g70
NtRp519
(dp520
g73
(dp521
sg82
g507
sg75
(lp522
g68
(g69
g70
NtRp523
(dp524
g73
(dp525
g81
I3
ssg82
g519
sg75
(lp526
S''
asbasbasbag68
(g84
g70
NtRp527
(dp528
g73
(dp529
sg82
g463
sg75
(lp530
g68
(g89
g70
NtRp531
(dp532
g73
(dp533
g93
g94
ssg82
g527
sg75
(lp534
g345
asbag68
(g89
g70
NtRp535
(dp536
g73
(dp537
g100
g101
ssg82
g527
sg75
(lp538
S':'
asbag68
(g89
g70
NtRp539
(dp540
g73
(dp541
sg82
g527
sg75
(lp542
g68
(g69
g70
NtRp543
(dp544
g73
(dp545
g81
I3
ssg82
g539
sg75
(lp546
S''
asbasbasbag68
(g84
g70
NtRp547
(dp548
g73
(dp549
sg82
g463
sg75
(lp550
g68
(g89
g70
NtRp551
(dp552
g73
(dp553
g93
g94
ssg82
g547
sg75
(lp554
g366
asbag68
(g89
g70
NtRp555
(dp556
g73
(dp557
g100
g101
ssg82
g547
sg75
(lp558
S':'
asbag68
(g89
g70
NtRp559
(dp560
g73
(dp561
sg82
g547
sg75
(lp562
g68
(g69
g70
NtRp563
(dp564
g73
(dp565
g81
I3
ssg82
g559
sg75
(lp566
S''
asbasbasbag68
(g84
g70
NtRp567
(dp568
g73
(dp569
sg82
g463
sg75
(lp570
g68
(g89
g70
NtRp571
(dp572
g73
(dp573
g93
g94
ssg82
g567
sg75
(lp574
g387
asbag68
(g89
g70
NtRp575
(dp576
g73
(dp577
g100
g101
ssg82
g567
sg75
(lp578
S':'
asbag68
(g89
g70
NtRp579
(dp580
g73
(dp581
sg82
g567
sg75
(lp582
g68
(g69
g70
NtRp583
(dp584
g73
(dp585
g81
I3
ssg82
g579
sg75
(lp586
S''
asbasbasbag68
(g84
g70
NtRp587
(dp588
g73
(dp589
sg82
g463
sg75
(lp590
g68
(g89
g70
NtRp591
(dp592
g73
(dp593
g93
g94
ssg82
g587
sg75
(lp594
g408
asbag68
(g89
g70
NtRp595
(dp596
g73
(dp597
g100
g101
ssg82
g587
sg75
(lp598
S':'
asbag68
(g89
g70
NtRp599
(dp600
g73
(dp601
sg82
g587
sg75
(lp602
g68
(g69
g70
NtRp603
(dp604
g73
(dp605
g81
I3
ssg82
g599
sg75
(lp606
S''
asbasbasbag68
(g84
g70
NtRp607
(dp608
g73
(dp609
sg82
g463
sg75
(lp610
g68
(g89
g70
NtRp611
(dp612
g73
(dp613
g93
g94
ssg82
g607
sg75
(lp614
g429
asbag68
(g89
g70
NtRp615
(dp616
g73
(dp617
g100
g101
ssg82
g607
sg75
(lp618
S':'
asbag68
(g89
g70
NtRp619
(dp620
g73
(dp621
sg82
g607
sg75
(lp622
g68
(g69
g70
NtRp623
(dp624
g73
(dp625
g81
I3
ssg82
g619
sg75
(lp626
S''
asbasbasbasbasbasbasbag68
(g84
g70
NtRp627
(dp628
g73
(dp629
sg82
g245
sg75
(lp630
g68
(g89
g70
NtRp631
(dp632
g73
(dp633
g93
g94
ssg82
g627
sg75
(lp634
S'session_id_welcome'
p635
asbag68
(g89
g70
NtRp636
(dp637
g73
(dp638
g100
g101
ssg82
g627
sg75
(lp639
S':'
asbag68
(g89
g70
NtRp640
(dp641
g73
(dp642
sg82
g627
sg75
(lp643
g68
(g69
g70
NtRp644
(dp645
g73
(dp646
g81
I4
ssg82
g640
sg75
(lp647
g68
(g77
g70
NtRp648
(dp649
g73
(dp650
g81
I3
ssg82
Nsg75
(lp651
g68
(g84
g70
NtRp652
(dp653
g73
(dp654
sg82
g648
sg75
(lp655
g68
(g89
g70
NtRp656
(dp657
g73
(dp658
g93
g94
ssg82
g652
sg75
(lp659
g282
asbag68
(g89
g70
NtRp660
(dp661
g73
(dp662
g100
g101
ssg82
g652
sg75
(lp663
S':'
asbag68
(g89
g70
NtRp664
(dp665
g73
(dp666
sg82
g652
sg75
(lp667
g68
(g69
g70
NtRp668
(dp669
g73
(dp670
g81
I3
ssg82
g664
sg75
(lp671
S''
asbasbasbag68
(g84
g70
NtRp672
(dp673
g73
(dp674
sg82
g648
sg75
(lp675
g68
(g89
g70
NtRp676
(dp677
g73
(dp678
g93
g94
ssg82
g672
sg75
(lp679
g303
asbag68
(g89
g70
NtRp680
(dp681
g73
(dp682
g100
g101
ssg82
g672
sg75
(lp683
S':'
asbag68
(g89
g70
NtRp684
(dp685
g73
(dp686
sg82
g672
sg75
(lp687
g68
(g69
g70
NtRp688
(dp689
g73
(dp690
g81
I3
ssg82
g684
sg75
(lp691
S''
asbasbasbag68
(g84
g70
NtRp692
(dp693
g73
(dp694
sg82
g648
sg75
(lp695
g68
(g89
g70
NtRp696
(dp697
g73
(dp698
g93
g94
ssg82
g692
sg75
(lp699
g324
asbag68
(g89
g70
NtRp700
(dp701
g73
(dp702
g100
g101
ssg82
g692
sg75
(lp703
S':'
asbag68
(g89
g70
NtRp704
(dp705
g73
(dp706
sg82
g692
sg75
(lp707
g68
(g69
g70
NtRp708
(dp709
g73
(dp710
g81
I3
ssg82
g704
sg75
(lp711
S''
asbasbasbag68
(g84
g70
NtRp712
(dp713
g73
(dp714
sg82
g648
sg75
(lp715
g68
(g89
g70
NtRp716
(dp717
g73
(dp718
g93
g94
ssg82
g712
sg75
(lp719
g345
asbag68
(g89
g70
NtRp720
(dp721
g73
(dp722
g100
g101
ssg82
g712
sg75
(lp723
S':'
asbag68
(g89
g70
NtRp724
(dp725
g73
(dp726
sg82
g712
sg75
(lp727
g68
(g69
g70
NtRp728
(dp729
g73
(dp730
g81
I3
ssg82
g724
sg75
(lp731
S''
asbasbasbag68
(g84
g70
NtRp732
(dp733
g73
(dp734
sg82
g648
sg75
(lp735
g68
(g89
g70
NtRp736
(dp737
g73
(dp738
g93
g94
ssg82
g732
sg75
(lp739
g366
asbag68
(g89
g70
NtRp740
(dp741
g73
(dp742
g100
g101
ssg82
g732
sg75
(lp743
S':'
asbag68
(g89
g70
NtRp744
(dp745
g73
(dp746
sg82
g732
sg75
(lp747
g68
(g69
g70
NtRp748
(dp749
g73
(dp750
g81
I3
ssg82
g744
sg75
(lp751
S''
asbasbasbag68
(g84
g70
NtRp752
(dp753
g73
(dp754
sg82
g648
sg75
(lp755
g68
(g89
g70
NtRp756
(dp757
g73
(dp758
g93
g94
ssg82
g752
sg75
(lp759
g387
asbag68
(g89
g70
NtRp760
(dp761
g73
(dp762
g100
g101
ssg82
g752
sg75
(lp763
S':'
asbag68
(g89
g70
NtRp764
(dp765
g73
(dp766
sg82
g752
sg75
(lp767
g68
(g69
g70
NtRp768
(dp769
g73
(dp770
g81
I3
ssg82
g764
sg75
(lp771
S''
asbasbasbag68
(g84
g70
NtRp772
(dp773
g73
(dp774
sg82
g648
sg75
(lp775
g68
(g89
g70
NtRp776
(dp777
g73
(dp778
g93
g94
ssg82
g772
sg75
(lp779
g408
asbag68
(g89
g70
NtRp780
(dp781
g73
(dp782
g100
g101
ssg82
g772
sg75
(lp783
S':'
asbag68
(g89
g70
NtRp784
(dp785
g73
(dp786
sg82
g772
sg75
(lp787
g68
(g69
g70
NtRp788
(dp789
g73
(dp790
g81
I3
ssg82
g784
sg75
(lp791
S''
asbasbasbag68
(g84
g70
NtRp792
(dp793
g73
(dp794
sg82
g648
sg75
(lp795
g68
(g89
g70
NtRp796
(dp797
g73
(dp798
g93
g94
ssg82
g792
sg75
(lp799
g429
asbag68
(g89
g70
NtRp800
(dp801
g73
(dp802
g100
g101
ssg82
g792
sg75
(lp803
S':'
asbag68
(g89
g70
NtRp804
(dp805
g73
(dp806
sg82
g792
sg75
(lp807
g68
(g69
g70
NtRp808
(dp809
g73
(dp810
g81
I3
ssg82
g804
sg75
(lp811
S''
asbasbasbasbasbasbasbasbasbasbasbag68
(g84
g70
NtRp812
(dp813
g73
(dp814
sg82
g78
sg75
(lp815
g68
(g89
g70
NtRp816
(dp817
g73
(dp818
g93
g94
ssg82
g812
sg75
(lp819
S'env'
p820
asbag68
(g89
g70
NtRp821
(dp822
g73
(dp823
g100
g101
ssg82
g812
sg75
(lp824
S':'
asbag68
(g89
g70
NtRp825
(dp826
g73
(dp827
sg82
g812
sg75
(lp828
g68
(g69
g70
NtRp829
(dp830
g73
(dp831
g81
I5
ssg82
g825
sg75
(lp832
g68
(g77
g70
NtRp833
(dp834
g73
(dp835
g81
I4
ssg82
Nsg75
(lp836
g68
(g84
g70
NtRp837
(dp838
g73
(dp839
sg82
g833
sg75
(lp840
g68
(g89
g70
NtRp841
(dp842
g73
(dp843
g93
g94
ssg82
g837
sg75
(lp844
S'app_folders'
p845
asbag68
(g89
g70
NtRp846
(dp847
g73
(dp848
g100
g101
ssg82
g837
sg75
(lp849
S':'
asbag68
(g89
g70
NtRp850
(dp851
g73
(dp852
sg82
g837
sg75
(lp853
g68
(g69
g70
NtRp854
(dp855
g73
(dp856
g81
I4
ssg82
g850
sg75
(lp857
S"set(['/home/pooja/web2py/applications/admin/', '/home/pooja/web2py/applications/newsapp/', '/home/pooja/web2py/applications/welcome/'])"
p858
asbasbasbag68
(g84
g70
NtRp859
(dp860
g73
(dp861
sg82
g833
sg75
(lp862
g68
(g89
g70
NtRp863
(dp864
g73
(dp865
g93
g94
ssg82
g859
sg75
(lp866
S'applications_parent'
p867
asbag68
(g89
g70
NtRp868
(dp869
g73
(dp870
g100
g101
ssg82
g859
sg75
(lp871
S':'
asbag68
(g89
g70
NtRp872
(dp873
g73
(dp874
sg82
g859
sg75
(lp875
g68
(g69
g70
NtRp876
(dp877
g73
(dp878
g81
I4
ssg82
g872
sg75
(lp879
S'/home/pooja/web2py'
p880
asbasbasbag68
(g84
g70
NtRp881
(dp882
g73
(dp883
sg82
g833
sg75
(lp884
g68
(g89
g70
NtRp885
(dp886
g73
(dp887
g93
g94
ssg82
g881
sg75
(lp888
S'cmd_args'
p889
asbag68
(g89
g70
NtRp890
(dp891
g73
(dp892
g100
g101
ssg82
g881
sg75
(lp893
S':'
asbag68
(g89
g70
NtRp894
(dp895
g73
(dp896
sg82
g881
sg75
(lp897
g68
(g69
g70
NtRp898
(dp899
g73
(dp900
g81
I4
ssg82
g894
sg75
(lp901
g68
(g77
g70
NtRp902
(dp903
g73
(dp904
g81
I3
ssg82
Nsg75
(lp905
sbasbasbasbag68
(g84
g70
NtRp906
(dp907
g73
(dp908
sg82
g833
sg75
(lp909
g68
(g89
g70
NtRp910
(dp911
g73
(dp912
g93
g94
ssg82
g906
sg75
(lp913
S'cmd_options'
p914
asbag68
(g89
g70
NtRp915
(dp916
g73
(dp917
g100
g101
ssg82
g906
sg75
(lp918
S':'
asbag68
(g89
g70
NtRp919
(dp920
g73
(dp921
sg82
g906
sg75
(lp922
g68
(g69
g70
NtRp923
(dp924
g73
(dp925
g81
I4
ssg82
g919
sg75
(lp926
S"<Values at 0x7f48bf0bce18: {'verbose': False, 'ip': '127.0.0.1', 'shutdown_timeout': 5, 'taskbar': False, 'nocron': False, 'pid_filename': 'httpserver.pid', 'maxthreads': None, 'softcron': False, 'server_name': 'pooja-HP-15-Notebook-PC', 'bpython': False, 'nogui': False, 'port': 8000, 'extcron': False, 'debuglevel': 30, 'test': None, 'folder': '/home/pooja/web2py', 'config': '', 'import_models': False, 'winservice': '', 'shell': None, 'run': '', 'log_filename': 'httpserver.log', 'args': [''], 'socket_timeout': 5, 'ssl_ca_certificate': None, 'scheduler': None, 'profiler_filename': None, 'ssl_private_key': '', 'password': '<ask>', 'request_queue_size': 5, 'ssl_certificate': '', 'cronjob': False, 'numthreads': None, 'quiet': False, 'interfaces': None, 'minthreads': None, 'timeout': 10, 'plain': False, 'nobanner': False}>"
p927
asbasbasbag68
(g84
g70
NtRp928
(dp929
g73
(dp930
sg82
g833
sg75
(lp931
g68
(g89
g70
NtRp932
(dp933
g73
(dp934
g93
g94
ssg82
g928
sg75
(lp935
S'db_sessions'
p936
asbag68
(g89
g70
NtRp937
(dp938
g73
(dp939
g100
g101
ssg82
g928
sg75
(lp940
S':'
asbag68
(g89
g70
NtRp941
(dp942
g73
(dp943
sg82
g928
sg75
(lp944
g68
(g69
g70
NtRp945
(dp946
g73
(dp947
g81
I4
ssg82
g941
sg75
(lp948
S'set([])'
p949
asbasbasbag68
(g84
g70
NtRp950
(dp951
g73
(dp952
sg82
g833
sg75
(lp953
g68
(g89
g70
NtRp954
(dp955
g73
(dp956
g93
g94
ssg82
g950
sg75
(lp957
S'debugging'
p958
asbag68
(g89
g70
NtRp959
(dp960
g73
(dp961
g100
g101
ssg82
g950
sg75
(lp962
S':'
asbag68
(g89
g70
NtRp963
(dp964
g73
(dp965
sg82
g950
sg75
(lp966
g68
(g69
g70
NtRp967
(dp968
g73
(dp969
g81
I4
ssg82
g963
sg75
(lp970
g111
asbasbasbag68
(g84
g70
NtRp971
(dp972
g73
(dp973
sg82
g833
sg75
(lp974
g68
(g89
g70
NtRp975
(dp976
g73
(dp977
g93
g94
ssg82
g971
sg75
(lp978
S'gluon_parent'
p979
asbag68
(g89
g70
NtRp980
(dp981
g73
(dp982
g100
g101
ssg82
g971
sg75
(lp983
S':'
asbag68
(g89
g70
NtRp984
(dp985
g73
(dp986
sg82
g971
sg75
(lp987
g68
(g69
g70
NtRp988
(dp989
g73
(dp990
g81
I4
ssg82
g984
sg75
(lp991
S'/usr/share/web2py'
p992
asbasbasbag68
(g84
g70
NtRp993
(dp994
g73
(dp995
sg82
g833
sg75
(lp996
g68
(g89
g70
NtRp997
(dp998
g73
(dp999
g93
g94
ssg82
g993
sg75
(lp1000
S'http_accept'
p1001
asbag68
(g89
g70
NtRp1002
(dp1003
g73
(dp1004
g100
g101
ssg82
g993
sg75
(lp1005
S':'
asbag68
(g89
g70
NtRp1006
(dp1007
g73
(dp1008
sg82
g993
sg75
(lp1009
g68
(g69
g70
NtRp1010
(dp1011
g73
(dp1012
g81
I4
ssg82
g1006
sg75
(lp1013
S'text/html,application/xhtml+xml,application/xml;q=0.9,image/webp,*/*;q=0.8'
p1014
asbasbasbag68
(g84
g70
NtRp1015
(dp1016
g73
(dp1017
sg82
g833
sg75
(lp1018
g68
(g89
g70
NtRp1019
(dp1020
g73
(dp1021
g93
g94
ssg82
g1015
sg75
(lp1022
S'http_accept_encoding'
p1023
asbag68
(g89
g70
NtRp1024
(dp1025
g73
(dp1026
g100
g101
ssg82
g1015
sg75
(lp1027
S':'
asbag68
(g89
g70
NtRp1028
(dp1029
g73
(dp1030
sg82
g1015
sg75
(lp1031
g68
(g69
g70
NtRp1032
(dp1033
g73
(dp1034
g81
I4
ssg82
g1028
sg75
(lp1035
S'gzip, deflate, sdch'
p1036
asbasbasbag68
(g84
g70
NtRp1037
(dp1038
g73
(dp1039
sg82
g833
sg75
(lp1040
g68
(g89
g70
NtRp1041
(dp1042
g73
(dp1043
g93
g94
ssg82
g1037
sg75
(lp1044
S'http_accept_language'
p1045
asbag68
(g89
g70
NtRp1046
(dp1047
g73
(dp1048
g100
g101
ssg82
g1037
sg75
(lp1049
S':'
asbag68
(g89
g70
NtRp1050
(dp1051
g73
(dp1052
sg82
g1037
sg75
(lp1053
g68
(g69
g70
NtRp1054
(dp1055
g73
(dp1056
g81
I4
ssg82
g1050
sg75
(lp1057
S'en-US,en;q=0.8'
p1058
asbasbasbag68
(g84
g70
NtRp1059
(dp1060
g73
(dp1061
sg82
g833
sg75
(lp1062
g68
(g89
g70
NtRp1063
(dp1064
g73
(dp1065
g93
g94
ssg82
g1059
sg75
(lp1066
S'http_cache_control'
p1067
asbag68
(g89
g70
NtRp1068
(dp1069
g73
(dp1070
g100
g101
ssg82
g1059
sg75
(lp1071
S':'
asbag68
(g89
g70
NtRp1072
(dp1073
g73
(dp1074
sg82
g1059
sg75
(lp1075
g68
(g69
g70
NtRp1076
(dp1077
g73
(dp1078
g81
I4
ssg82
g1072
sg75
(lp1079
S'max-age=0'
p1080
asbasbasbag68
(g84
g70
NtRp1081
(dp1082
g73
(dp1083
sg82
g833
sg75
(lp1084
g68
(g89
g70
NtRp1085
(dp1086
g73
(dp1087
g93
g94
ssg82
g1081
sg75
(lp1088
S'http_connection'
p1089
asbag68
(g89
g70
NtRp1090
(dp1091
g73
(dp1092
g100
g101
ssg82
g1081
sg75
(lp1093
S':'
asbag68
(g89
g70
NtRp1094
(dp1095
g73
(dp1096
sg82
g1081
sg75
(lp1097
g68
(g69
g70
NtRp1098
(dp1099
g73
(dp1100
g81
I4
ssg82
g1094
sg75
(lp1101
S'keep-alive'
p1102
asbasbasbag68
(g84
g70
NtRp1103
(dp1104
g73
(dp1105
sg82
g833
sg75
(lp1106
g68
(g89
g70
NtRp1107
(dp1108
g73
(dp1109
g93
g94
ssg82
g1103
sg75
(lp1110
S'http_cookie'
p1111
asbag68
(g89
g70
NtRp1112
(dp1113
g73
(dp1114
g100
g101
ssg82
g1103
sg75
(lp1115
S':'
asbag68
(g89
g70
NtRp1116
(dp1117
g73
(dp1118
sg82
g1103
sg75
(lp1119
g68
(g69
g70
NtRp1120
(dp1121
g73
(dp1122
g81
I4
ssg82
g1116
sg75
(lp1123
S'session_id_welcome=127.0.0.1-39cd24b2-3651-4c99-9fb0-a3dd11b0684e; session_id_admin=127.0.0.1-c04865d9-d3b8-4c95-a4e7-88838830d340; session_id_newsapp=127.0.0.1-f56ccde5-80db-47cc-80e8-bbcc8cc05a92'
p1124
asbasbasbag68
(g84
g70
NtRp1125
(dp1126
g73
(dp1127
sg82
g833
sg75
(lp1128
g68
(g89
g70
NtRp1129
(dp1130
g73
(dp1131
g93
g94
ssg82
g1125
sg75
(lp1132
S'http_host'
p1133
asbag68
(g89
g70
NtRp1134
(dp1135
g73
(dp1136
g100
g101
ssg82
g1125
sg75
(lp1137
S':'
asbag68
(g89
g70
NtRp1138
(dp1139
g73
(dp1140
sg82
g1125
sg75
(lp1141
g68
(g69
g70
NtRp1142
(dp1143
g73
(dp1144
g81
I4
ssg82
g1138
sg75
(lp1145
S'127.0.0.1:8000'
p1146
asbasbasbag68
(g84
g70
NtRp1147
(dp1148
g73
(dp1149
sg82
g833
sg75
(lp1150
g68
(g89
g70
NtRp1151
(dp1152
g73
(dp1153
g93
g94
ssg82
g1147
sg75
(lp1154
S'http_user_agent'
p1155
asbag68
(g89
g70
NtRp1156
(dp1157
g73
(dp1158
g100
g101
ssg82
g1147
sg75
(lp1159
S':'
asbag68
(g89
g70
NtRp1160
(dp1161
g73
(dp1162
sg82
g1147
sg75
(lp1163
g68
(g69
g70
NtRp1164
(dp1165
g73
(dp1166
g81
I4
ssg82
g1160
sg75
(lp1167
S'Mozilla/5.0 (X11; Linux x86_64) AppleWebKit/537.36 (KHTML, like Gecko) Chrome/42.0.2311.135 Safari/537.36'
p1168
asbasbasbag68
(g84
g70
NtRp1169
(dp1170
g73
(dp1171
sg82
g833
sg75
(lp1172
g68
(g89
g70
NtRp1173
(dp1174
g73
(dp1175
g93
g94
ssg82
g1169
sg75
(lp1176
S'is_jython'
p1177
asbag68
(g89
g70
NtRp1178
(dp1179
g73
(dp1180
g100
g101
ssg82
g1169
sg75
(lp1181
S':'
asbag68
(g89
g70
NtRp1182
(dp1183
g73
(dp1184
sg82
g1169
sg75
(lp1185
g68
(g69
g70
NtRp1186
(dp1187
g73
(dp1188
g81
I4
ssg82
g1182
sg75
(lp1189
g111
asbasbasbag68
(g84
g70
NtRp1190
(dp1191
g73
(dp1192
sg82
g833
sg75
(lp1193
g68
(g89
g70
NtRp1194
(dp1195
g73
(dp1196
g93
g94
ssg82
g1190
sg75
(lp1197
S'is_pypy'
p1198
asbag68
(g89
g70
NtRp1199
(dp1200
g73
(dp1201
g100
g101
ssg82
g1190
sg75
(lp1202
S':'
asbag68
(g89
g70
NtRp1203
(dp1204
g73
(dp1205
sg82
g1190
sg75
(lp1206
g68
(g69
g70
NtRp1207
(dp1208
g73
(dp1209
g81
I4
ssg82
g1203
sg75
(lp1210
g111
asbasbasbag68
(g84
g70
NtRp1211
(dp1212
g73
(dp1213
sg82
g833
sg75
(lp1214
g68
(g89
g70
NtRp1215
(dp1216
g73
(dp1217
g93
g94
ssg82
g1211
sg75
(lp1218
S'path_info'
p1219
asbag68
(g89
g70
NtRp1220
(dp1221
g73
(dp1222
g100
g101
ssg82
g1211
sg75
(lp1223
S':'
asbag68
(g89
g70
NtRp1224
(dp1225
g73
(dp1226
sg82
g1211
sg75
(lp1227
g68
(g69
g70
NtRp1228
(dp1229
g73
(dp1230
g81
I4
ssg82
g1224
sg75
(lp1231
S'/newsapp/default'
p1232
asbasbasbag68
(g84
g70
NtRp1233
(dp1234
g73
(dp1235
sg82
g833
sg75
(lp1236
g68
(g89
g70
NtRp1237
(dp1238
g73
(dp1239
g93
g94
ssg82
g1233
sg75
(lp1240
S'query_string'
p1241
asbag68
(g89
g70
NtRp1242
(dp1243
g73
(dp1244
g100
g101
ssg82
g1233
sg75
(lp1245
S':'
asbag68
(g89
g70
NtRp1246
(dp1247
g73
(dp1248
sg82
g1233
sg75
(lp1249
g68
(g69
g70
NtRp1250
(dp1251
g73
(dp1252
g81
I4
ssg82
g1246
sg75
(lp1253
S''
asbasbasbag68
(g84
g70
NtRp1254
(dp1255
g73
(dp1256
sg82
g833
sg75
(lp1257
g68
(g89
g70
NtRp1258
(dp1259
g73
(dp1260
g93
g94
ssg82
g1254
sg75
(lp1261
S'remote_addr'
p1262
asbag68
(g89
g70
NtRp1263
(dp1264
g73
(dp1265
g100
g101
ssg82
g1254
sg75
(lp1266
S':'
asbag68
(g89
g70
NtRp1267
(dp1268
g73
(dp1269
sg82
g1254
sg75
(lp1270
g68
(g69
g70
NtRp1271
(dp1272
g73
(dp1273
g81
I4
ssg82
g1267
sg75
(lp1274
g201
asbasbasbag68
(g84
g70
NtRp1275
(dp1276
g73
(dp1277
sg82
g833
sg75
(lp1278
g68
(g89
g70
NtRp1279
(dp1280
g73
(dp1281
g93
g94
ssg82
g1275
sg75
(lp1282
S'remote_port'
p1283
asbag68
(g89
g70
NtRp1284
(dp1285
g73
(dp1286
g100
g101
ssg82
g1275
sg75
(lp1287
S':'
asbag68
(g89
g70
NtRp1288
(dp1289
g73
(dp1290
sg82
g1275
sg75
(lp1291
g68
(g69
g70
NtRp1292
(dp1293
g73
(dp1294
g81
I4
ssg82
g1288
sg75
(lp1295
S'53462'
p1296
asbasbasbag68
(g84
g70
NtRp1297
(dp1298
g73
(dp1299
sg82
g833
sg75
(lp1300
g68
(g89
g70
NtRp1301
(dp1302
g73
(dp1303
g93
g94
ssg82
g1297
sg75
(lp1304
S'request_method'
p1305
asbag68
(g89
g70
NtRp1306
(dp1307
g73
(dp1308
g100
g101
ssg82
g1297
sg75
(lp1309
S':'
asbag68
(g89
g70
NtRp1310
(dp1311
g73
(dp1312
sg82
g1297
sg75
(lp1313
g68
(g69
g70
NtRp1314
(dp1315
g73
(dp1316
g81
I4
ssg82
g1310
sg75
(lp1317
S'GET'
p1318
asbasbasbag68
(g84
g70
NtRp1319
(dp1320
g73
(dp1321
sg82
g833
sg75
(lp1322
g68
(g89
g70
NtRp1323
(dp1324
g73
(dp1325
g93
g94
ssg82
g1319
sg75
(lp1326
S'script_name'
p1327
asbag68
(g89
g70
NtRp1328
(dp1329
g73
(dp1330
g100
g101
ssg82
g1319
sg75
(lp1331
S':'
asbag68
(g89
g70
NtRp1332
(dp1333
g73
(dp1334
sg82
g1319
sg75
(lp1335
g68
(g69
g70
NtRp1336
(dp1337
g73
(dp1338
g81
I4
ssg82
g1332
sg75
(lp1339
S''
asbasbasbag68
(g84
g70
NtRp1340
(dp1341
g73
(dp1342
sg82
g833
sg75
(lp1343
g68
(g89
g70
NtRp1344
(dp1345
g73
(dp1346
g93
g94
ssg82
g1340
sg75
(lp1347
S'server_name'
p1348
asbag68
(g89
g70
NtRp1349
(dp1350
g73
(dp1351
g100
g101
ssg82
g1340
sg75
(lp1352
S':'
asbag68
(g89
g70
NtRp1353
(dp1354
g73
(dp1355
sg82
g1340
sg75
(lp1356
g68
(g69
g70
NtRp1357
(dp1358
g73
(dp1359
g81
I4
ssg82
g1353
sg75
(lp1360
S'pooja-HP-15-Notebook-PC'
p1361
asbasbasbag68
(g84
g70
NtRp1362
(dp1363
g73
(dp1364
sg82
g833
sg75
(lp1365
g68
(g89
g70
NtRp1366
(dp1367
g73
(dp1368
g93
g94
ssg82
g1362
sg75
(lp1369
S'server_port'
p1370
asbag68
(g89
g70
NtRp1371
(dp1372
g73
(dp1373
g100
g101
ssg82
g1362
sg75
(lp1374
S':'
asbag68
(g89
g70
NtRp1375
(dp1376
g73
(dp1377
sg82
g1362
sg75
(lp1378
g68
(g69
g70
NtRp1379
(dp1380
g73
(dp1381
g81
I4
ssg82
g1375
sg75
(lp1382
S'8000'
p1383
asbasbasbag68
(g84
g70
NtRp1384
(dp1385
g73
(dp1386
sg82
g833
sg75
(lp1387
g68
(g89
g70
NtRp1388
(dp1389
g73
(dp1390
g93
g94
ssg82
g1384
sg75
(lp1391
S'server_protocol'
p1392
asbag68
(g89
g70
NtRp1393
(dp1394
g73
(dp1395
g100
g101
ssg82
g1384
sg75
(lp1396
S':'
asbag68
(g89
g70
NtRp1397
(dp1398
g73
(dp1399
sg82
g1384
sg75
(lp1400
g68
(g69
g70
NtRp1401
(dp1402
g73
(dp1403
g81
I4
ssg82
g1397
sg75
(lp1404
S'HTTP/1.1'
p1405
asbasbasbag68
(g84
g70
NtRp1406
(dp1407
g73
(dp1408
sg82
g833
sg75
(lp1409
g68
(g89
g70
NtRp1410
(dp1411
g73
(dp1412
g93
g94
ssg82
g1406
sg75
(lp1413
S'server_software'
p1414
asbag68
(g89
g70
NtRp1415
(dp1416
g73
(dp1417
g100
g101
ssg82
g1406
sg75
(lp1418
S':'
asbag68
(g89
g70
NtRp1419
(dp1420
g73
(dp1421
sg82
g1406
sg75
(lp1422
g68
(g69
g70
NtRp1423
(dp1424
g73
(dp1425
g81
I4
ssg82
g1419
sg75
(lp1426
S'Rocket 1.2.4'
p1427
asbasbasbag68
(g84
g70
NtRp1428
(dp1429
g73
(dp1430
sg82
g833
sg75
(lp1431
g68
(g89
g70
NtRp1432
(dp1433
g73
(dp1434
g93
g94
ssg82
g1428
sg75
(lp1435
S'web2py_crontype'
p1436
asbag68
(g89
g70
NtRp1437
(dp1438
g73
(dp1439
g100
g101
ssg82
g1428
sg75
(lp1440
S':'
asbag68
(g89
g70
NtRp1441
(dp1442
g73
(dp1443
sg82
g1428
sg75
(lp1444
g68
(g69
g70
NtRp1445
(dp1446
g73
(dp1447
g81
I4
ssg82
g1441
sg75
(lp1448
S'hard'
p1449
asbasbasbag68
(g84
g70
NtRp1450
(dp1451
g73
(dp1452
sg82
g833
sg75
(lp1453
g68
(g89
g70
NtRp1454
(dp1455
g73
(dp1456
g93
g94
ssg82
g1450
sg75
(lp1457
S'web2py_path'
p1458
asbag68
(g89
g70
NtRp1459
(dp1460
g73
(dp1461
g100
g101
ssg82
g1450
sg75
(lp1462
S':'
asbag68
(g89
g70
NtRp1463
(dp1464
g73
(dp1465
sg82
g1450
sg75
(lp1466
g68
(g69
g70
NtRp1467
(dp1468
g73
(dp1469
g81
I4
ssg82
g1463
sg75
(lp1470
g880
asbasbasbag68
(g84
g70
NtRp1471
(dp1472
g73
(dp1473
sg82
g833
sg75
(lp1474
g68
(g89
g70
NtRp1475
(dp1476
g73
(dp1477
g93
g94
ssg82
g1471
sg75
(lp1478
S'web2py_version'
p1479
asbag68
(g89
g70
NtRp1480
(dp1481
g73
(dp1482
g100
g101
ssg82
g1471
sg75
(lp1483
S':'
asbag68
(g89
g70
NtRp1484
(dp1485
g73
(dp1486
sg82
g1471
sg75
(lp1487
g68
(g69
g70
NtRp1488
(dp1489
g73
(dp1490
g81
I4
ssg82
g1484
sg75
(lp1491
g68
(g77
g70
NtRp1492
(dp1493
g73
(dp1494
g81
I3
ssg82
Nsg75
(lp1495
g68
(g84
g70
NtRp1496
(dp1497
g73
(dp1498
sg82
g1492
sg75
(lp1499
g68
(g89
g70
NtRp1500
(dp1501
g73
(dp1502
sg82
g1496
sg75
(lp1503
g68
(g69
g70
NtRp1504
(dp1505
g73
(dp1506
g81
I3
ssg82
g1500
sg75
(lp1507
S'1'
asbasbasbag68
(g84
g70
NtRp1508
(dp1509
g73
(dp1510
sg82
g1492
sg75
(lp1511
g68
(g89
g70
NtRp1512
(dp1513
g73
(dp1514
sg82
g1508
sg75
(lp1515
g68
(g69
g70
NtRp1516
(dp1517
g73
(dp1518
g81
I3
ssg82
g1512
sg75
(lp1519
S'99'
p1520
asbasbasbag68
(g84
g70
NtRp1521
(dp1522
g73
(dp1523
sg82
g1492
sg75
(lp1524
g68
(g89
g70
NtRp1525
(dp1526
g73
(dp1527
sg82
g1521
sg75
(lp1528
g68
(g69
g70
NtRp1529
(dp1530
g73
(dp1531
g81
I3
ssg82
g1525
sg75
(lp1532
S'7'
asbasbasbag68
(g84
g70
NtRp1533
(dp1534
g73
(dp1535
sg82
g1492
sg75
(lp1536
g68
(g89
g70
NtRp1537
(dp1538
g73
(dp1539
sg82
g1533
sg75
(lp1540
g68
(g69
g70
NtRp1541
(dp1542
g73
(dp1543
g81
I3
ssg82
g1537
sg75
(lp1544
S'datetime.datetime(2012, 3, 4, 22, 12, 8)'
p1545
asbasbasbag68
(g84
g70
NtRp1546
(dp1547
g73
(dp1548
sg82
g1492
sg75
(lp1549
g68
(g89
g70
NtRp1550
(dp1551
g73
(dp1552
sg82
g1546
sg75
(lp1553
g68
(g69
g70
NtRp1554
(dp1555
g73
(dp1556
g81
I3
ssg82
g1550
sg75
(lp1557
S'stable'
p1558
asbasbasbasbasbasbasbag68
(g84
g70
NtRp1559
(dp1560
g73
(dp1561
sg82
g833
sg75
(lp1562
g68
(g89
g70
NtRp1563
(dp1564
g73
(dp1565
g93
g94
ssg82
g1559
sg75
(lp1566
S'wsgi_errors'
p1567
asbag68
(g89
g70
NtRp1568
(dp1569
g73
(dp1570
g100
g101
ssg82
g1559
sg75
(lp1571
S':'
asbag68
(g89
g70
NtRp1572
(dp1573
g73
(dp1574
sg82
g1559
sg75
(lp1575
g68
(g69
g70
NtRp1576
(dp1577
g73
(dp1578
g81
I4
ssg82
g1572
sg75
(lp1579
S"<open file '<stderr>', mode 'w' at 0x7f48c48d91e0>"
p1580
asbasbasbag68
(g84
g70
NtRp1581
(dp1582
g73
(dp1583
sg82
g833
sg75
(lp1584
g68
(g89
g70
NtRp1585
(dp1586
g73
(dp1587
g93
g94
ssg82
g1581
sg75
(lp1588
S'wsgi_file_wrapper'
p1589
asbag68
(g89
g70
NtRp1590
(dp1591
g73
(dp1592
g100
g101
ssg82
g1581
sg75
(lp1593
S':'
asbag68
(g89
g70
NtRp1594
(dp1595
g73
(dp1596
sg82
g1581
sg75
(lp1597
g68
(g69
g70
NtRp1598
(dp1599
g73
(dp1600
g81
I4
ssg82
g1594
sg75
(lp1601
S'<class wsgiref.util.FileWrapper at 0x7f48c0836e88>'
p1602
asbasbasbag68
(g84
g70
NtRp1603
(dp1604
g73
(dp1605
sg82
g833
sg75
(lp1606
g68
(g89
g70
NtRp1607
(dp1608
g73
(dp1609
g93
g94
ssg82
g1603
sg75
(lp1610
S'wsgi_input'
p1611
asbag68
(g89
g70
NtRp1612
(dp1613
g73
(dp1614
g100
g101
ssg82
g1603
sg75
(lp1615
S':'
asbag68
(g89
g70
NtRp1616
(dp1617
g73
(dp1618
sg82
g1603
sg75
(lp1619
g68
(g69
g70
NtRp1620
(dp1621
g73
(dp1622
g81
I4
ssg82
g1616
sg75
(lp1623
S'<socket._fileobject object at 0x7f48a4086d50>'
p1624
asbasbasbag68
(g84
g70
NtRp1625
(dp1626
g73
(dp1627
sg82
g833
sg75
(lp1628
g68
(g89
g70
NtRp1629
(dp1630
g73
(dp1631
g93
g94
ssg82
g1625
sg75
(lp1632
S'wsgi_multiprocess'
p1633
asbag68
(g89
g70
NtRp1634
(dp1635
g73
(dp1636
g100
g101
ssg82
g1625
sg75
(lp1637
S':'
asbag68
(g89
g70
NtRp1638
(dp1639
g73
(dp1640
sg82
g1625
sg75
(lp1641
g68
(g69
g70
NtRp1642
(dp1643
g73
(dp1644
g81
I4
ssg82
g1638
sg75
(lp1645
g111
asbasbasbag68
(g84
g70
NtRp1646
(dp1647
g73
(dp1648
sg82
g833
sg75
(lp1649
g68
(g89
g70
NtRp1650
(dp1651
g73
(dp1652
g93
g94
ssg82
g1646
sg75
(lp1653
S'wsgi_multithread'
p1654
asbag68
(g89
g70
NtRp1655
(dp1656
g73
(dp1657
g100
g101
ssg82
g1646
sg75
(lp1658
S':'
asbag68
(g89
g70
NtRp1659
(dp1660
g73
(dp1661
sg82
g1646
sg75
(lp1662
g68
(g69
g70
NtRp1663
(dp1664
g73
(dp1665
g81
I4
ssg82
g1659
sg75
(lp1666
S'True'
p1667
asbasbasbag68
(g84
g70
NtRp1668
(dp1669
g73
(dp1670
sg82
g833
sg75
(lp1671
g68
(g89
g70
NtRp1672
(dp1673
g73
(dp1674
g93
g94
ssg82
g1668
sg75
(lp1675
S'wsgi_run_once'
p1676
asbag68
(g89
g70
NtRp1677
(dp1678
g73
(dp1679
g100
g101
ssg82
g1668
sg75
(lp1680
S':'
asbag68
(g89
g70
NtRp1681
(dp1682
g73
(dp1683
sg82
g1668
sg75
(lp1684
g68
(g69
g70
NtRp1685
(dp1686
g73
(dp1687
g81
I4
ssg82
g1681
sg75
(lp1688
g111
asbasbasbag68
(g84
g70
NtRp1689
(dp1690
g73
(dp1691
sg82
g833
sg75
(lp1692
g68
(g89
g70
NtRp1693
(dp1694
g73
(dp1695
g93
g94
ssg82
g1689
sg75
(lp1696
S'wsgi_url_scheme'
p1697
asbag68
(g89
g70
NtRp1698
(dp1699
g73
(dp1700
g100
g101
ssg82
g1689
sg75
(lp1701
S':'
asbag68
(g89
g70
NtRp1702
(dp1703
g73
(dp1704
sg82
g1689
sg75
(lp1705
g68
(g69
g70
NtRp1706
(dp1707
g73
(dp1708
g81
I4
ssg82
g1702
sg75
(lp1709
S'http'
p1710
asbasbasbag68
(g84
g70
NtRp1711
(dp1712
g73
(dp1713
sg82
g833
sg75
(lp1714
g68
(g89
g70
NtRp1715
(dp1716
g73
(dp1717
g93
g94
ssg82
g1711
sg75
(lp1718
S'wsgi_version'
p1719
asbag68
(g89
g70
NtRp1720
(dp1721
g73
(dp1722
g100
g101
ssg82
g1711
sg75
(lp1723
S':'
asbag68
(g89
g70
NtRp1724
(dp1725
g73
(dp1726
sg82
g1711
sg75
(lp1727
g68
(g69
g70
NtRp1728
(dp1729
g73
(dp1730
g81
I4
ssg82
g1724
sg75
(lp1731
g68
(g77
g70
NtRp1732
(dp1733
g73
(dp1734
g81
I3
ssg82
Nsg75
(lp1735
g68
(g84
g70
NtRp1736
(dp1737
g73
(dp1738
sg82
g1732
sg75
(lp1739
g68
(g89
g70
NtRp1740
(dp1741
g73
(dp1742
sg82
g1736
sg75
(lp1743
g68
(g69
g70
NtRp1744
(dp1745
g73
(dp1746
g81
I3
ssg82
g1740
sg75
(lp1747
S'1'
asbasbasbag68
(g84
g70
NtRp1748
(dp1749
g73
(dp1750
sg82
g1732
sg75
(lp1751
g68
(g89
g70
NtRp1752
(dp1753
g73
(dp1754
sg82
g1748
sg75
(lp1755
g68
(g69
g70
NtRp1756
(dp1757
g73
(dp1758
g81
I3
ssg82
g1752
sg75
(lp1759
S'0'
asbasbasbasbasbasbasbasbasbasbasbag68
(g84
g70
NtRp1760
(dp1761
g73
(dp1762
sg82
g78
sg75
(lp1763
g68
(g89
g70
NtRp1764
(dp1765
g73
(dp1766
g93
g94
ssg82
g1760
sg75
(lp1767
S'extension'
p1768
asbag68
(g89
g70
NtRp1769
(dp1770
g73
(dp1771
g100
g101
ssg82
g1760
sg75
(lp1772
S':'
asbag68
(g89
g70
NtRp1773
(dp1774
g73
(dp1775
sg82
g1760
sg75
(lp1776
g68
(g69
g70
NtRp1777
(dp1778
g73
(dp1779
g81
I5
ssg82
g1773
sg75
(lp1780
S'html'
p1781
asbasbasbag68
(g84
g70
NtRp1782
(dp1783
g73
(dp1784
sg82
g78
sg75
(lp1785
g68
(g89
g70
NtRp1786
(dp1787
g73
(dp1788
g93
g94
ssg82
g1782
sg75
(lp1789
S'folder'
p1790
asbag68
(g89
g70
NtRp1791
(dp1792
g73
(dp1793
g100
g101
ssg82
g1782
sg75
(lp1794
S':'
asbag68
(g89
g70
NtRp1795
(dp1796
g73
(dp1797
sg82
g1782
sg75
(lp1798
g68
(g69
g70
NtRp1799
(dp1800
g73
(dp1801
g81
I5
ssg82
g1795
sg75
(lp1802
S'/home/pooja/web2py/applications/newsapp/'
p1803
asbasbasbag68
(g84
g70
NtRp1804
(dp1805
g73
(dp1806
sg82
g78
sg75
(lp1807
g68
(g89
g70
NtRp1808
(dp1809
g73
(dp1810
g93
g94
ssg82
g1804
sg75
(lp1811
S'function'
p1812
asbag68
(g89
g70
NtRp1813
(dp1814
g73
(dp1815
g100
g101
ssg82
g1804
sg75
(lp1816
S':'
asbag68
(g89
g70
NtRp1817
(dp1818
g73
(dp1819
sg82
g1804
sg75
(lp1820
g68
(g69
g70
NtRp1821
(dp1822
g73
(dp1823
g81
I5
ssg82
g1817
sg75
(lp1824
S'index'
p1825
asbasbasbag68
(g84
g70
NtRp1826
(dp1827
g73
(dp1828
sg82
g78
sg75
(lp1829
g68
(g89
g70
NtRp1830
(dp1831
g73
(dp1832
g93
g94
ssg82
g1826
sg75
(lp1833
S'get_vars'
p1834
asbag68
(g89
g70
NtRp1835
(dp1836
g73
(dp1837
g100
g101
ssg82
g1826
sg75
(lp1838
S':'
asbag68
(g89
g70
NtRp1839
(dp1840
g73
(dp1841
sg82
g1826
sg75
(lp1842
g68
(g69
g70
NtRp1843
(dp1844
g73
(dp1845
g81
I5
ssg82
g1839
sg75
(lp1846
g68
(g77
g70
NtRp1847
(dp1848
g73
(dp1849
g81
I4
ssg82
Nsg75
(lp1850
sbasbasbasbag68
(g84
g70
NtRp1851
(dp1852
g73
(dp1853
sg82
g78
sg75
(lp1854
g68
(g89
g70
NtRp1855
(dp1856
g73
(dp1857
g93
g94
ssg82
g1851
sg75
(lp1858
S'global_settings'
p1859
asbag68
(g89
g70
NtRp1860
(dp1861
g73
(dp1862
g100
g101
ssg82
g1851
sg75
(lp1863
S':'
asbag68
(g89
g70
NtRp1864
(dp1865
g73
(dp1866
sg82
g1851
sg75
(lp1867
g68
(g69
g70
NtRp1868
(dp1869
g73
(dp1870
g81
I5
ssg82
g1864
sg75
(lp1871
g68
(g77
g70
NtRp1872
(dp1873
g73
(dp1874
g81
I4
ssg82
Nsg75
(lp1875
g68
(g84
g70
NtRp1876
(dp1877
g73
(dp1878
sg82
g1872
sg75
(lp1879
g68
(g89
g70
NtRp1880
(dp1881
g73
(dp1882
g93
g94
ssg82
g1876
sg75
(lp1883
g845
asbag68
(g89
g70
NtRp1884
(dp1885
g73
(dp1886
g100
g101
ssg82
g1876
sg75
(lp1887
S':'
asbag68
(g89
g70
NtRp1888
(dp1889
g73
(dp1890
sg82
g1876
sg75
(lp1891
g68
(g69
g70
NtRp1892
(dp1893
g73
(dp1894
g81
I4
ssg82
g1888
sg75
(lp1895
S"set(['/home/pooja/web2py/applications/admin/', '/home/pooja/web2py/applications/newsapp/', '/home/pooja/web2py/applications/welcome/'])"
p1896
asbasbasbag68
(g84
g70
NtRp1897
(dp1898
g73
(dp1899
sg82
g1872
sg75
(lp1900
g68
(g89
g70
NtRp1901
(dp1902
g73
(dp1903
g93
g94
ssg82
g1897
sg75
(lp1904
g867
asbag68
(g89
g70
NtRp1905
(dp1906
g73
(dp1907
g100
g101
ssg82
g1897
sg75
(lp1908
S':'
asbag68
(g89
g70
NtRp1909
(dp1910
g73
(dp1911
sg82
g1897
sg75
(lp1912
g68
(g69
g70
NtRp1913
(dp1914
g73
(dp1915
g81
I4
ssg82
g1909
sg75
(lp1916
g880
asbasbasbag68
(g84
g70
NtRp1917
(dp1918
g73
(dp1919
sg82
g1872
sg75
(lp1920
g68
(g89
g70
NtRp1921
(dp1922
g73
(dp1923
g93
g94
ssg82
g1917
sg75
(lp1924
g889
asbag68
(g89
g70
NtRp1925
(dp1926
g73
(dp1927
g100
g101
ssg82
g1917
sg75
(lp1928
S':'
asbag68
(g89
g70
NtRp1929
(dp1930
g73
(dp1931
sg82
g1917
sg75
(lp1932
g68
(g69
g70
NtRp1933
(dp1934
g73
(dp1935
g81
I4
ssg82
g1929
sg75
(lp1936
g68
(g77
g70
NtRp1937
(dp1938
g73
(dp1939
g81
I3
ssg82
Nsg75
(lp1940
sbasbasbasbag68
(g84
g70
NtRp1941
(dp1942
g73
(dp1943
sg82
g1872
sg75
(lp1944
g68
(g89
g70
NtRp1945
(dp1946
g73
(dp1947
g93
g94
ssg82
g1941
sg75
(lp1948
g914
asbag68
(g89
g70
NtRp1949
(dp1950
g73
(dp1951
g100
g101
ssg82
g1941
sg75
(lp1952
S':'
asbag68
(g89
g70
NtRp1953
(dp1954
g73
(dp1955
sg82
g1941
sg75
(lp1956
g68
(g69
g70
NtRp1957
(dp1958
g73
(dp1959
g81
I4
ssg82
g1953
sg75
(lp1960
S"<Values at 0x7f48bf0bce18: {'verbose': False, 'ip': '127.0.0.1', 'shutdown_timeout': 5, 'taskbar': False, 'nocron': False, 'pid_filename': 'httpserver.pid', 'maxthreads': None, 'softcron': False, 'server_name': 'pooja-HP-15-Notebook-PC', 'bpython': False, 'nogui': False, 'port': 8000, 'extcron': False, 'debuglevel': 30, 'test': None, 'folder': '/home/pooja/web2py', 'config': '', 'import_models': False, 'winservice': '', 'shell': None, 'run': '', 'log_filename': 'httpserver.log', 'args': [''], 'socket_timeout': 5, 'ssl_ca_certificate': None, 'scheduler': None, 'profiler_filename': None, 'ssl_private_key': '', 'password': '<ask>', 'request_queue_size': 5, 'ssl_certificate': '', 'cronjob': False, 'numthreads': None, 'quiet': False, 'interfaces': None, 'minthreads': None, 'timeout': 10, 'plain': False, 'nobanner': False}>"
p1961
asbasbasbag68
(g84
g70
NtRp1962
(dp1963
g73
(dp1964
sg82
g1872
sg75
(lp1965
g68
(g89
g70
NtRp1966
(dp1967
g73
(dp1968
g93
g94
ssg82
g1962
sg75
(lp1969
g936
asbag68
(g89
g70
NtRp1970
(dp1971
g73
(dp1972
g100
g101
ssg82
g1962
sg75
(lp1973
S':'
asbag68
(g89
g70
NtRp1974
(dp1975
g73
(dp1976
sg82
g1962
sg75
(lp1977
g68
(g69
g70
NtRp1978
(dp1979
g73
(dp1980
g81
I4
ssg82
g1974
sg75
(lp1981
S'set([])'
p1982
asbasbasbag68
(g84
g70
NtRp1983
(dp1984
g73
(dp1985
sg82
g1872
sg75
(lp1986
g68
(g89
g70
NtRp1987
(dp1988
g73
(dp1989
g93
g94
ssg82
g1983
sg75
(lp1990
g958
asbag68
(g89
g70
NtRp1991
(dp1992
g73
(dp1993
g100
g101
ssg82
g1983
sg75
(lp1994
S':'
asbag68
(g89
g70
NtRp1995
(dp1996
g73
(dp1997
sg82
g1983
sg75
(lp1998
g68
(g69
g70
NtRp1999
(dp2000
g73
(dp2001
g81
I4
ssg82
g1995
sg75
(lp2002
g111
asbasbasbag68
(g84
g70
NtRp2003
(dp2004
g73
(dp2005
sg82
g1872
sg75
(lp2006
g68
(g89
g70
NtRp2007
(dp2008
g73
(dp2009
g93
g94
ssg82
g2003
sg75
(lp2010
g979
asbag68
(g89
g70
NtRp2011
(dp2012
g73
(dp2013
g100
g101
ssg82
g2003
sg75
(lp2014
S':'
asbag68
(g89
g70
NtRp2015
(dp2016
g73
(dp2017
sg82
g2003
sg75
(lp2018
g68
(g69
g70
NtRp2019
(dp2020
g73
(dp2021
g81
I4
ssg82
g2015
sg75
(lp2022
g992
asbasbasbag68
(g84
g70
NtRp2023
(dp2024
g73
(dp2025
sg82
g1872
sg75
(lp2026
g68
(g89
g70
NtRp2027
(dp2028
g73
(dp2029
g93
g94
ssg82
g2023
sg75
(lp2030
g1177
asbag68
(g89
g70
NtRp2031
(dp2032
g73
(dp2033
g100
g101
ssg82
g2023
sg75
(lp2034
S':'
asbag68
(g89
g70
NtRp2035
(dp2036
g73
(dp2037
sg82
g2023
sg75
(lp2038
g68
(g69
g70
NtRp2039
(dp2040
g73
(dp2041
g81
I4
ssg82
g2035
sg75
(lp2042
g111
asbasbasbag68
(g84
g70
NtRp2043
(dp2044
g73
(dp2045
sg82
g1872
sg75
(lp2046
g68
(g89
g70
NtRp2047
(dp2048
g73
(dp2049
g93
g94
ssg82
g2043
sg75
(lp2050
g1198
asbag68
(g89
g70
NtRp2051
(dp2052
g73
(dp2053
g100
g101
ssg82
g2043
sg75
(lp2054
S':'
asbag68
(g89
g70
NtRp2055
(dp2056
g73
(dp2057
sg82
g2043
sg75
(lp2058
g68
(g69
g70
NtRp2059
(dp2060
g73
(dp2061
g81
I4
ssg82
g2055
sg75
(lp2062
g111
asbasbasbag68
(g84
g70
NtRp2063
(dp2064
g73
(dp2065
sg82
g1872
sg75
(lp2066
g68
(g89
g70
NtRp2067
(dp2068
g73
(dp2069
g93
g94
ssg82
g2063
sg75
(lp2070
g1436
asbag68
(g89
g70
NtRp2071
(dp2072
g73
(dp2073
g100
g101
ssg82
g2063
sg75
(lp2074
S':'
asbag68
(g89
g70
NtRp2075
(dp2076
g73
(dp2077
sg82
g2063
sg75
(lp2078
g68
(g69
g70
NtRp2079
(dp2080
g73
(dp2081
g81
I4
ssg82
g2075
sg75
(lp2082
g1449
asbasbasbag68
(g84
g70
NtRp2083
(dp2084
g73
(dp2085
sg82
g1872
sg75
(lp2086
g68
(g89
g70
NtRp2087
(dp2088
g73
(dp2089
g93
g94
ssg82
g2083
sg75
(lp2090
g1479
asbag68
(g89
g70
NtRp2091
(dp2092
g73
(dp2093
g100
g101
ssg82
g2083
sg75
(lp2094
S':'
asbag68
(g89
g70
NtRp2095
(dp2096
g73
(dp2097
sg82
g2083
sg75
(lp2098
g68
(g69
g70
NtRp2099
(dp2100
g73
(dp2101
g81
I4
ssg82
g2095
sg75
(lp2102
g68
(g77
g70
NtRp2103
(dp2104
g73
(dp2105
g81
I3
ssg82
Nsg75
(lp2106
g68
(g84
g70
NtRp2107
(dp2108
g73
(dp2109
sg82
g2103
sg75
(lp2110
g68
(g89
g70
NtRp2111
(dp2112
g73
(dp2113
sg82
g2107
sg75
(lp2114
g68
(g69
g70
NtRp2115
(dp2116
g73
(dp2117
g81
I3
ssg82
g2111
sg75
(lp2118
S'1'
asbasbasbag68
(g84
g70
NtRp2119
(dp2120
g73
(dp2121
sg82
g2103
sg75
(lp2122
g68
(g89
g70
NtRp2123
(dp2124
g73
(dp2125
sg82
g2119
sg75
(lp2126
g68
(g69
g70
NtRp2127
(dp2128
g73
(dp2129
g81
I3
ssg82
g2123
sg75
(lp2130
S'99'
p2131
asbasbasbag68
(g84
g70
NtRp2132
(dp2133
g73
(dp2134
sg82
g2103
sg75
(lp2135
g68
(g89
g70
NtRp2136
(dp2137
g73
(dp2138
sg82
g2132
sg75
(lp2139
g68
(g69
g70
NtRp2140
(dp2141
g73
(dp2142
g81
I3
ssg82
g2136
sg75
(lp2143
S'7'
asbasbasbag68
(g84
g70
NtRp2144
(dp2145
g73
(dp2146
sg82
g2103
sg75
(lp2147
g68
(g89
g70
NtRp2148
(dp2149
g73
(dp2150
sg82
g2144
sg75
(lp2151
g68
(g69
g70
NtRp2152
(dp2153
g73
(dp2154
g81
I3
ssg82
g2148
sg75
(lp2155
S'datetime.datetime(2012, 3, 4, 22, 12, 8)'
p2156
asbasbasbag68
(g84
g70
NtRp2157
(dp2158
g73
(dp2159
sg82
g2103
sg75
(lp2160
g68
(g89
g70
NtRp2161
(dp2162
g73
(dp2163
sg82
g2157
sg75
(lp2164
g68
(g69
g70
NtRp2165
(dp2166
g73
(dp2167
g81
I3
ssg82
g2161
sg75
(lp2168
g1558
asbasbasbasbasbasbasbasbasbasbasbag68
(g84
g70
NtRp2169
(dp2170
g73
(dp2171
sg82
g78
sg75
(lp2172
g68
(g89
g70
NtRp2173
(dp2174
g73
(dp2175
g93
g94
ssg82
g2169
sg75
(lp2176
S'is_https'
p2177
asbag68
(g89
g70
NtRp2178
(dp2179
g73
(dp2180
g100
g101
ssg82
g2169
sg75
(lp2181
S':'
asbag68
(g89
g70
NtRp2182
(dp2183
g73
(dp2184
sg82
g2169
sg75
(lp2185
g68
(g69
g70
NtRp2186
(dp2187
g73
(dp2188
g81
I5
ssg82
g2182
sg75
(lp2189
g111
asbasbasbag68
(g84
g70
NtRp2190
(dp2191
g73
(dp2192
sg82
g78
sg75
(lp2193
g68
(g89
g70
NtRp2194
(dp2195
g73
(dp2196
g93
g94
ssg82
g2190
sg75
(lp2197
S'is_local'
p2198
asbag68
(g89
g70
NtRp2199
(dp2200
g73
(dp2201
g100
g101
ssg82
g2190
sg75
(lp2202
S':'
asbag68
(g89
g70
NtRp2203
(dp2204
g73
(dp2205
sg82
g2190
sg75
(lp2206
g68
(g69
g70
NtRp2207
(dp2208
g73
(dp2209
g81
I5
ssg82
g2203
sg75
(lp2210
g1667
asbasbasbag68
(g84
g70
NtRp2211
(dp2212
g73
(dp2213
sg82
g78
sg75
(lp2214
g68
(g89
g70
NtRp2215
(dp2216
g73
(dp2217
g93
g94
ssg82
g2211
sg75
(lp2218
S'is_restful'
p2219
asbag68
(g89
g70
NtRp2220
(dp2221
g73
(dp2222
g100
g101
ssg82
g2211
sg75
(lp2223
S':'
asbag68
(g89
g70
NtRp2224
(dp2225
g73
(dp2226
sg82
g2211
sg75
(lp2227
g68
(g69
g70
NtRp2228
(dp2229
g73
(dp2230
g81
I5
ssg82
g2224
sg75
(lp2231
g111
asbasbasbag68
(g84
g70
NtRp2232
(dp2233
g73
(dp2234
sg82
g78
sg75
(lp2235
g68
(g89
g70
NtRp2236
(dp2237
g73
(dp2238
g93
g94
ssg82
g2232
sg75
(lp2239
S'now'
p2240
asbag68
(g89
g70
NtRp2241
(dp2242
g73
(dp2243
g100
g101
ssg82
g2232
sg75
(lp2244
S':'
asbag68
(g89
g70
NtRp2245
(dp2246
g73
(dp2247
sg82
g2232
sg75
(lp2248
g68
(g69
g70
NtRp2249
(dp2250
g73
(dp2251
g81
I5
ssg82
g2245
sg75
(lp2252
S'datetime.datetime(2015, 5, 10, 8, 27, 55, 784187)'
p2253
asbasbasbag68
(g84
g70
NtRp2254
(dp2255
g73
(dp2256
sg82
g78
sg75
(lp2257
g68
(g89
g70
NtRp2258
(dp2259
g73
(dp2260
g93
g94
ssg82
g2254
sg75
(lp2261
S'post_vars'
p2262
asbag68
(g89
g70
NtRp2263
(dp2264
g73
(dp2265
g100
g101
ssg82
g2254
sg75
(lp2266
S':'
asbag68
(g89
g70
NtRp2267
(dp2268
g73
(dp2269
sg82
g2254
sg75
(lp2270
g68
(g69
g70
NtRp2271
(dp2272
g73
(dp2273
g81
I5
ssg82
g2267
sg75
(lp2274
g68
(g77
g70
NtRp2275
(dp2276
g73
(dp2277
g81
I4
ssg82
Nsg75
(lp2278
sbasbasbasbag68
(g84
g70
NtRp2279
(dp2280
g73
(dp2281
sg82
g78
sg75
(lp2282
g68
(g89
g70
NtRp2283
(dp2284
g73
(dp2285
g93
g94
ssg82
g2279
sg75
(lp2286
S'url'
p2287
asbag68
(g89
g70
NtRp2288
(dp2289
g73
(dp2290
g100
g101
ssg82
g2279
sg75
(lp2291
S':'
asbag68
(g89
g70
NtRp2292
(dp2293
g73
(dp2294
sg82
g2279
sg75
(lp2295
g68
(g69
g70
NtRp2296
(dp2297
g73
(dp2298
g81
I5
ssg82
g2292
sg75
(lp2299
S'/newsapp/default/index'
p2300
asbasbasbag68
(g84
g70
NtRp2301
(dp2302
g73
(dp2303
sg82
g78
sg75
(lp2304
g68
(g89
g70
NtRp2305
(dp2306
g73
(dp2307
g93
g94
ssg82
g2301
sg75
(lp2308
S'utcnow'
p2309
asbag68
(g89
g70
NtRp2310
(dp2311
g73
(dp2312
g100
g101
ssg82
g2301
sg75
(lp2313
S':'
asbag68
(g89
g70
NtRp2314
(dp2315
g73
(dp2316
sg82
g2301
sg75
(lp2317
g68
(g69
g70
NtRp2318
(dp2319
g73
(dp2320
g81
I5
ssg82
g2314
sg75
(lp2321
S'datetime.datetime(2015, 5, 10, 2, 57, 55, 784279)'
p2322
asbasbasbag68
(g84
g70
NtRp2323
(dp2324
g73
(dp2325
sg82
g78
sg75
(lp2326
g68
(g89
g70
NtRp2327
(dp2328
g73
(dp2329
g93
g94
ssg82
g2323
sg75
(lp2330
S'uuid'
p2331
asbag68
(g89
g70
NtRp2332
(dp2333
g73
(dp2334
g100
g101
ssg82
g2323
sg75
(lp2335
S':'
asbag68
(g89
g70
NtRp2336
(dp2337
g73
(dp2338
sg82
g2323
sg75
(lp2339
g68
(g69
g70
NtRp2340
(dp2341
g73
(dp2342
g81
I5
ssg82
g2336
sg75
(lp2343
S'newsapp/127.0.0.1.2015-05-10.08-27-55.0777afce-5020-48b0-b71d-0eaa3c971051'
p2344
asbasbasbag68
(g84
g70
NtRp2345
(dp2346
g73
(dp2347
sg82
g78
sg75
(lp2348
g68
(g89
g70
NtRp2349
(dp2350
g73
(dp2351
g93
g94
ssg82
g2345
sg75
(lp2352
S'vars'
p2353
asbag68
(g89
g70
NtRp2354
(dp2355
g73
(dp2356
g100
g101
ssg82
g2345
sg75
(lp2357
S':'
asbag68
(g89
g70
NtRp2358
(dp2359
g73
(dp2360
sg82
g2345
sg75
(lp2361
g68
(g69
g70
NtRp2362
(dp2363
g73
(dp2364
g81
I5
ssg82
g2358
sg75
(lp2365
g68
(g77
g70
NtRp2366
(dp2367
g73
(dp2368
g81
I4
ssg82
Nsg75
(lp2369
sbasbasbasbag68
(g84
g70
NtRp2370
(dp2371
g73
(dp2372
sg82
g78
sg75
(lp2373
g68
(g89
g70
NtRp2374
(dp2375
g73
(dp2376
g93
g94
ssg82
g2370
sg75
(lp2377
S'wsgi'
p2378
asbag68
(g89
g70
NtRp2379
(dp2380
g73
(dp2381
g100
g101
ssg82
g2370
sg75
(lp2382
S':'
asbag68
(g89
g70
NtRp2383
(dp2384
g73
(dp2385
sg82
g2370
sg75
(lp2386
g68
(g69
g70
NtRp2387
(dp2388
g73
(dp2389
g81
I5
ssg82
g2383
sg75
(lp2390
g68
(g77
g70
NtRp2391
(dp2392
g73
(dp2393
g81
I4
ssg82
Nsg75
(lp2394
g68
(g84
g70
NtRp2395
(dp2396
g73
(dp2397
sg82
g2391
sg75
(lp2398
g68
(g89
g70
NtRp2399
(dp2400
g73
(dp2401
g93
g94
ssg82
g2395
sg75
(lp2402
S'environ'
p2403
asbag68
(g89
g70
NtRp2404
(dp2405
g73
(dp2406
g100
g101
ssg82
g2395
sg75
(lp2407
S':'
asbag68
(g89
g70
NtRp2408
(dp2409
g73
(dp2410
sg82
g2395
sg75
(lp2411
g68
(g69
g70
NtRp2412
(dp2413
g73
(dp2414
g81
I4
ssg82
g2408
sg75
(lp2415
g68
(g77
g70
NtRp2416
(dp2417
g73
(dp2418
g81
I3
ssg82
Nsg75
(lp2419
g68
(g84
g70
NtRp2420
(dp2421
g73
(dp2422
sg82
g2416
sg75
(lp2423
g68
(g89
g70
NtRp2424
(dp2425
g73
(dp2426
g93
g94
ssg82
g2420
sg75
(lp2427
S'HTTP_ACCEPT'
p2428
asbag68
(g89
g70
NtRp2429
(dp2430
g73
(dp2431
g100
g101
ssg82
g2420
sg75
(lp2432
S':'
asbag68
(g89
g70
NtRp2433
(dp2434
g73
(dp2435
sg82
g2420
sg75
(lp2436
g68
(g69
g70
NtRp2437
(dp2438
g73
(dp2439
g81
I3
ssg82
g2433
sg75
(lp2440
g1014
asbasbasbag68
(g84
g70
NtRp2441
(dp2442
g73
(dp2443
sg82
g2416
sg75
(lp2444
g68
(g89
g70
NtRp2445
(dp2446
g73
(dp2447
g93
g94
ssg82
g2441
sg75
(lp2448
S'HTTP_ACCEPT_ENCODING'
p2449
asbag68
(g89
g70
NtRp2450
(dp2451
g73
(dp2452
g100
g101
ssg82
g2441
sg75
(lp2453
S':'
asbag68
(g89
g70
NtRp2454
(dp2455
g73
(dp2456
sg82
g2441
sg75
(lp2457
g68
(g69
g70
NtRp2458
(dp2459
g73
(dp2460
g81
I3
ssg82
g2454
sg75
(lp2461
g1036
asbasbasbag68
(g84
g70
NtRp2462
(dp2463
g73
(dp2464
sg82
g2416
sg75
(lp2465
g68
(g89
g70
NtRp2466
(dp2467
g73
(dp2468
g93
g94
ssg82
g2462
sg75
(lp2469
S'HTTP_ACCEPT_LANGUAGE'
p2470
asbag68
(g89
g70
NtRp2471
(dp2472
g73
(dp2473
g100
g101
ssg82
g2462
sg75
(lp2474
S':'
asbag68
(g89
g70
NtRp2475
(dp2476
g73
(dp2477
sg82
g2462
sg75
(lp2478
g68
(g69
g70
NtRp2479
(dp2480
g73
(dp2481
g81
I3
ssg82
g2475
sg75
(lp2482
g1058
asbasbasbag68
(g84
g70
NtRp2483
(dp2484
g73
(dp2485
sg82
g2416
sg75
(lp2486
g68
(g89
g70
NtRp2487
(dp2488
g73
(dp2489
g93
g94
ssg82
g2483
sg75
(lp2490
S'HTTP_CACHE_CONTROL'
p2491
asbag68
(g89
g70
NtRp2492
(dp2493
g73
(dp2494
g100
g101
ssg82
g2483
sg75
(lp2495
S':'
asbag68
(g89
g70
NtRp2496
(dp2497
g73
(dp2498
sg82
g2483
sg75
(lp2499
g68
(g69
g70
NtRp2500
(dp2501
g73
(dp2502
g81
I3
ssg82
g2496
sg75
(lp2503
g1080
asbasbasbag68
(g84
g70
NtRp2504
(dp2505
g73
(dp2506
sg82
g2416
sg75
(lp2507
g68
(g89
g70
NtRp2508
(dp2509
g73
(dp2510
g93
g94
ssg82
g2504
sg75
(lp2511
S'HTTP_CONNECTION'
p2512
asbag68
(g89
g70
NtRp2513
(dp2514
g73
(dp2515
g100
g101
ssg82
g2504
sg75
(lp2516
S':'
asbag68
(g89
g70
NtRp2517
(dp2518
g73
(dp2519
sg82
g2504
sg75
(lp2520
g68
(g69
g70
NtRp2521
(dp2522
g73
(dp2523
g81
I3
ssg82
g2517
sg75
(lp2524
g1102
asbasbasbag68
(g84
g70
NtRp2525
(dp2526
g73
(dp2527
sg82
g2416
sg75
(lp2528
g68
(g89
g70
NtRp2529
(dp2530
g73
(dp2531
g93
g94
ssg82
g2525
sg75
(lp2532
S'HTTP_COOKIE'
p2533
asbag68
(g89
g70
NtRp2534
(dp2535
g73
(dp2536
g100
g101
ssg82
g2525
sg75
(lp2537
S':'
asbag68
(g89
g70
NtRp2538
(dp2539
g73
(dp2540
sg82
g2525
sg75
(lp2541
g68
(g69
g70
NtRp2542
(dp2543
g73
(dp2544
g81
I3
ssg82
g2538
sg75
(lp2545
g1124
asbasbasbag68
(g84
g70
NtRp2546
(dp2547
g73
(dp2548
sg82
g2416
sg75
(lp2549
g68
(g89
g70
NtRp2550
(dp2551
g73
(dp2552
g93
g94
ssg82
g2546
sg75
(lp2553
S'HTTP_HOST'
p2554
asbag68
(g89
g70
NtRp2555
(dp2556
g73
(dp2557
g100
g101
ssg82
g2546
sg75
(lp2558
S':'
asbag68
(g89
g70
NtRp2559
(dp2560
g73
(dp2561
sg82
g2546
sg75
(lp2562
g68
(g69
g70
NtRp2563
(dp2564
g73
(dp2565
g81
I3
ssg82
g2559
sg75
(lp2566
g1146
asbasbasbag68
(g84
g70
NtRp2567
(dp2568
g73
(dp2569
sg82
g2416
sg75
(lp2570
g68
(g89
g70
NtRp2571
(dp2572
g73
(dp2573
g93
g94
ssg82
g2567
sg75
(lp2574
S'HTTP_USER_AGENT'
p2575
asbag68
(g89
g70
NtRp2576
(dp2577
g73
(dp2578
g100
g101
ssg82
g2567
sg75
(lp2579
S':'
asbag68
(g89
g70
NtRp2580
(dp2581
g73
(dp2582
sg82
g2567
sg75
(lp2583
g68
(g69
g70
NtRp2584
(dp2585
g73
(dp2586
g81
I3
ssg82
g2580
sg75
(lp2587
g1168
asbasbasbag68
(g84
g70
NtRp2588
(dp2589
g73
(dp2590
sg82
g2416
sg75
(lp2591
g68
(g89
g70
NtRp2592
(dp2593
g73
(dp2594
g93
g94
ssg82
g2588
sg75
(lp2595
S'PATH_INFO'
p2596
asbag68
(g89
g70
NtRp2597
(dp2598
g73
(dp2599
g100
g101
ssg82
g2588
sg75
(lp2600
S':'
asbag68
(g89
g70
NtRp2601
(dp2602
g73
(dp2603
sg82
g2588
sg75
(lp2604
g68
(g69
g70
NtRp2605
(dp2606
g73
(dp2607
g81
I3
ssg82
g2601
sg75
(lp2608
g1232
asbasbasbag68
(g84
g70
NtRp2609
(dp2610
g73
(dp2611
sg82
g2416
sg75
(lp2612
g68
(g89
g70
NtRp2613
(dp2614
g73
(dp2615
g93
g94
ssg82
g2609
sg75
(lp2616
S'QUERY_STRING'
p2617
asbag68
(g89
g70
NtRp2618
(dp2619
g73
(dp2620
g100
g101
ssg82
g2609
sg75
(lp2621
S':'
asbag68
(g89
g70
NtRp2622
(dp2623
g73
(dp2624
sg82
g2609
sg75
(lp2625
g68
(g69
g70
NtRp2626
(dp2627
g73
(dp2628
g81
I3
ssg82
g2622
sg75
(lp2629
S''
asbasbasbag68
(g84
g70
NtRp2630
(dp2631
g73
(dp2632
sg82
g2416
sg75
(lp2633
g68
(g89
g70
NtRp2634
(dp2635
g73
(dp2636
g93
g94
ssg82
g2630
sg75
(lp2637
S'REMOTE_ADDR'
p2638
asbag68
(g89
g70
NtRp2639
(dp2640
g73
(dp2641
g100
g101
ssg82
g2630
sg75
(lp2642
S':'
asbag68
(g89
g70
NtRp2643
(dp2644
g73
(dp2645
sg82
g2630
sg75
(lp2646
g68
(g69
g70
NtRp2647
(dp2648
g73
(dp2649
g81
I3
ssg82
g2643
sg75
(lp2650
g201
asbasbasbag68
(g84
g70
NtRp2651
(dp2652
g73
(dp2653
sg82
g2416
sg75
(lp2654
g68
(g89
g70
NtRp2655
(dp2656
g73
(dp2657
g93
g94
ssg82
g2651
sg75
(lp2658
S'REMOTE_PORT'
p2659
asbag68
(g89
g70
NtRp2660
(dp2661
g73
(dp2662
g100
g101
ssg82
g2651
sg75
(lp2663
S':'
asbag68
(g89
g70
NtRp2664
(dp2665
g73
(dp2666
sg82
g2651
sg75
(lp2667
g68
(g69
g70
NtRp2668
(dp2669
g73
(dp2670
g81
I3
ssg82
g2664
sg75
(lp2671
g1296
asbasbasbag68
(g84
g70
NtRp2672
(dp2673
g73
(dp2674
sg82
g2416
sg75
(lp2675
g68
(g89
g70
NtRp2676
(dp2677
g73
(dp2678
g93
g94
ssg82
g2672
sg75
(lp2679
S'REQUEST_METHOD'
p2680
asbag68
(g89
g70
NtRp2681
(dp2682
g73
(dp2683
g100
g101
ssg82
g2672
sg75
(lp2684
S':'
asbag68
(g89
g70
NtRp2685
(dp2686
g73
(dp2687
sg82
g2672
sg75
(lp2688
g68
(g69
g70
NtRp2689
(dp2690
g73
(dp2691
g81
I3
ssg82
g2685
sg75
(lp2692
g1318
asbasbasbag68
(g84
g70
NtRp2693
(dp2694
g73
(dp2695
sg82
g2416
sg75
(lp2696
g68
(g89
g70
NtRp2697
(dp2698
g73
(dp2699
g93
g94
ssg82
g2693
sg75
(lp2700
S'SCRIPT_NAME'
p2701
asbag68
(g89
g70
NtRp2702
(dp2703
g73
(dp2704
g100
g101
ssg82
g2693
sg75
(lp2705
S':'
asbag68
(g89
g70
NtRp2706
(dp2707
g73
(dp2708
sg82
g2693
sg75
(lp2709
g68
(g69
g70
NtRp2710
(dp2711
g73
(dp2712
g81
I3
ssg82
g2706
sg75
(lp2713
S''
asbasbasbag68
(g84
g70
NtRp2714
(dp2715
g73
(dp2716
sg82
g2416
sg75
(lp2717
g68
(g89
g70
NtRp2718
(dp2719
g73
(dp2720
g93
g94
ssg82
g2714
sg75
(lp2721
S'SERVER_NAME'
p2722
asbag68
(g89
g70
NtRp2723
(dp2724
g73
(dp2725
g100
g101
ssg82
g2714
sg75
(lp2726
S':'
asbag68
(g89
g70
NtRp2727
(dp2728
g73
(dp2729
sg82
g2714
sg75
(lp2730
g68
(g69
g70
NtRp2731
(dp2732
g73
(dp2733
g81
I3
ssg82
g2727
sg75
(lp2734
g1361
asbasbasbag68
(g84
g70
NtRp2735
(dp2736
g73
(dp2737
sg82
g2416
sg75
(lp2738
g68
(g89
g70
NtRp2739
(dp2740
g73
(dp2741
g93
g94
ssg82
g2735
sg75
(lp2742
S'SERVER_PORT'
p2743
asbag68
(g89
g70
NtRp2744
(dp2745
g73
(dp2746
g100
g101
ssg82
g2735
sg75
(lp2747
S':'
asbag68
(g89
g70
NtRp2748
(dp2749
g73
(dp2750
sg82
g2735
sg75
(lp2751
g68
(g69
g70
NtRp2752
(dp2753
g73
(dp2754
g81
I3
ssg82
g2748
sg75
(lp2755
g1383
asbasbasbag68
(g84
g70
NtRp2756
(dp2757
g73
(dp2758
sg82
g2416
sg75
(lp2759
g68
(g89
g70
NtRp2760
(dp2761
g73
(dp2762
g93
g94
ssg82
g2756
sg75
(lp2763
S'SERVER_PROTOCOL'
p2764
asbag68
(g89
g70
NtRp2765
(dp2766
g73
(dp2767
g100
g101
ssg82
g2756
sg75
(lp2768
S':'
asbag68
(g89
g70
NtRp2769
(dp2770
g73
(dp2771
sg82
g2756
sg75
(lp2772
g68
(g69
g70
NtRp2773
(dp2774
g73
(dp2775
g81
I3
ssg82
g2769
sg75
(lp2776
g1405
asbasbasbag68
(g84
g70
NtRp2777
(dp2778
g73
(dp2779
sg82
g2416
sg75
(lp2780
g68
(g89
g70
NtRp2781
(dp2782
g73
(dp2783
g93
g94
ssg82
g2777
sg75
(lp2784
S'SERVER_SOFTWARE'
p2785
asbag68
(g89
g70
NtRp2786
(dp2787
g73
(dp2788
g100
g101
ssg82
g2777
sg75
(lp2789
S':'
asbag68
(g89
g70
NtRp2790
(dp2791
g73
(dp2792
sg82
g2777
sg75
(lp2793
g68
(g69
g70
NtRp2794
(dp2795
g73
(dp2796
g81
I3
ssg82
g2790
sg75
(lp2797
g1427
asbasbasbag68
(g84
g70
NtRp2798
(dp2799
g73
(dp2800
sg82
g2416
sg75
(lp2801
g68
(g89
g70
NtRp2802
(dp2803
g73
(dp2804
g93
g94
ssg82
g2798
sg75
(lp2805
S'wsgi.errors'
p2806
asbag68
(g89
g70
NtRp2807
(dp2808
g73
(dp2809
g100
g101
ssg82
g2798
sg75
(lp2810
S':'
asbag68
(g89
g70
NtRp2811
(dp2812
g73
(dp2813
sg82
g2798
sg75
(lp2814
g68
(g69
g70
NtRp2815
(dp2816
g73
(dp2817
g81
I3
ssg82
g2811
sg75
(lp2818
S"<open file '<stderr>', mode 'w' at 0x7f48c48d91e0>"
p2819
asbasbasbag68
(g84
g70
NtRp2820
(dp2821
g73
(dp2822
sg82
g2416
sg75
(lp2823
g68
(g89
g70
NtRp2824
(dp2825
g73
(dp2826
g93
g94
ssg82
g2820
sg75
(lp2827
S'wsgi.file_wrapper'
p2828
asbag68
(g89
g70
NtRp2829
(dp2830
g73
(dp2831
g100
g101
ssg82
g2820
sg75
(lp2832
S':'
asbag68
(g89
g70
NtRp2833
(dp2834
g73
(dp2835
sg82
g2820
sg75
(lp2836
g68
(g69
g70
NtRp2837
(dp2838
g73
(dp2839
g81
I3
ssg82
g2833
sg75
(lp2840
S'<class wsgiref.util.FileWrapper at 0x7f48c0836e88>'
p2841
asbasbasbag68
(g84
g70
NtRp2842
(dp2843
g73
(dp2844
sg82
g2416
sg75
(lp2845
g68
(g89
g70
NtRp2846
(dp2847
g73
(dp2848
g93
g94
ssg82
g2842
sg75
(lp2849
S'wsgi.input'
p2850
asbag68
(g89
g70
NtRp2851
(dp2852
g73
(dp2853
g100
g101
ssg82
g2842
sg75
(lp2854
S':'
asbag68
(g89
g70
NtRp2855
(dp2856
g73
(dp2857
sg82
g2842
sg75
(lp2858
g68
(g69
g70
NtRp2859
(dp2860
g73
(dp2861
g81
I3
ssg82
g2855
sg75
(lp2862
S'<cStringIO.StringO object at 0x7f48a4056b90>'
p2863
asbasbasbag68
(g84
g70
NtRp2864
(dp2865
g73
(dp2866
sg82
g2416
sg75
(lp2867
g68
(g89
g70
NtRp2868
(dp2869
g73
(dp2870
g93
g94
ssg82
g2864
sg75
(lp2871
S'wsgi.multiprocess'
p2872
asbag68
(g89
g70
NtRp2873
(dp2874
g73
(dp2875
g100
g101
ssg82
g2864
sg75
(lp2876
S':'
asbag68
(g89
g70
NtRp2877
(dp2878
g73
(dp2879
sg82
g2864
sg75
(lp2880
g68
(g69
g70
NtRp2881
(dp2882
g73
(dp2883
g81
I3
ssg82
g2877
sg75
(lp2884
g111
asbasbasbag68
(g84
g70
NtRp2885
(dp2886
g73
(dp2887
sg82
g2416
sg75
(lp2888
g68
(g89
g70
NtRp2889
(dp2890
g73
(dp2891
g93
g94
ssg82
g2885
sg75
(lp2892
S'wsgi.multithread'
p2893
asbag68
(g89
g70
NtRp2894
(dp2895
g73
(dp2896
g100
g101
ssg82
g2885
sg75
(lp2897
S':'
asbag68
(g89
g70
NtRp2898
(dp2899
g73
(dp2900
sg82
g2885
sg75
(lp2901
g68
(g69
g70
NtRp2902
(dp2903
g73
(dp2904
g81
I3
ssg82
g2898
sg75
(lp2905
g1667
asbasbasbag68
(g84
g70
NtRp2906
(dp2907
g73
(dp2908
sg82
g2416
sg75
(lp2909
g68
(g89
g70
NtRp2910
(dp2911
g73
(dp2912
g93
g94
ssg82
g2906
sg75
(lp2913
S'wsgi.run_once'
p2914
asbag68
(g89
g70
NtRp2915
(dp2916
g73
(dp2917
g100
g101
ssg82
g2906
sg75
(lp2918
S':'
asbag68
(g89
g70
NtRp2919
(dp2920
g73
(dp2921
sg82
g2906
sg75
(lp2922
g68
(g69
g70
NtRp2923
(dp2924
g73
(dp2925
g81
I3
ssg82
g2919
sg75
(lp2926
g111
asbasbasbag68
(g84
g70
NtRp2927
(dp2928
g73
(dp2929
sg82
g2416
sg75
(lp2930
g68
(g89
g70
NtRp2931
(dp2932
g73
(dp2933
g93
g94
ssg82
g2927
sg75
(lp2934
S'wsgi.url_scheme'
p2935
asbag68
(g89
g70
NtRp2936
(dp2937
g73
(dp2938
g100
g101
ssg82
g2927
sg75
(lp2939
S':'
asbag68
(g89
g70
NtRp2940
(dp2941
g73
(dp2942
sg82
g2927
sg75
(lp2943
g68
(g69
g70
NtRp2944
(dp2945
g73
(dp2946
g81
I3
ssg82
g2940
sg75
(lp2947
g1710
asbasbasbag68
(g84
g70
NtRp2948
(dp2949
g73
(dp2950
sg82
g2416
sg75
(lp2951
g68
(g89
g70
NtRp2952
(dp2953
g73
(dp2954
g93
g94
ssg82
g2948
sg75
(lp2955
S'wsgi.version'
p2956
asbag68
(g89
g70
NtRp2957
(dp2958
g73
(dp2959
g100
g101
ssg82
g2948
sg75
(lp2960
S':'
asbag68
(g89
g70
NtRp2961
(dp2962
g73
(dp2963
sg82
g2948
sg75
(lp2964
g68
(g69
g70
NtRp2965
(dp2966
g73
(dp2967
g81
I3
ssg82
g2961
sg75
(lp2968
S'1'
asbasbasbasbasbasbasbasbasbasbasbasbasbsS'frames'
p2969
(lp2970
(dp2971
S'file'
p2972
S'/usr/lib/pymodules/python2.7/gluon/restricted.py'
p2973
sS'dump'
p2974
(dp2975
S'code'
p2976
S"'import urllib,urllib2\\nfrom urlparse import *\\nimp...n dict()\\n\\nresponse._vars=response._caller(index)\\n'"
p2977
sS'layer'
p2978
S"'/home/pooja/web2py/applications/newsapp/controllers/default.py'"
p2979
sS'global compile2'
p2980
S'<function compile2>'
p2981
sS'ccode'
p2982
S'undefined'
p2983
ssS'lnum'
p2984
I204
sS'lines'
p2985
(dp2986
I199
S"    environment['__name__'] = '__restricted__'"
p2987
sI200
S'    try:'
p2988
sI201
S'        if type(code) == types.CodeType:'
p2989
sI202
S'            ccode = code'
p2990
sI203
S'        else:'
p2991
sI204
S'            ccode = compile2(code,layer)'
p2992
sI205
S'        exec ccode in environment'
p2993
sI206
S'    except HTTP:'
p2994
sI207
S'        raise'
p2995
sI208
S'    except RestrictedError:'
p2996
ssS'call'
p2997
S"(code='import urllib,urllib2\\nfrom urlparse import *\\nimp...n dict()\\n\\nresponse._vars=response._caller(index)\\n', environment={'A': <class 'gluon.html.A'>, 'Auth': <class 'gluon.tools.Auth'>, 'B': <class 'gluon.html.B'>, 'BEAUTIFY': <class 'gluon.html.BEAUTIFY'>, 'BODY': <class 'gluon.html.BODY'>, 'BR': <class 'gluon.html.BR'>, 'BUTTON': <class 'gluon.html.BUTTON'>, 'CAT': <class 'gluon.html.CAT'>, 'CENTER': <class 'gluon.html.CENTER'>, 'CLEANUP': <class 'gluon.validators.CLEANUP'>, ...}, layer='/home/pooja/web2py/applications/newsapp/controllers/default.py')"
p2998
sS'func'
p2999
S'restricted'
p3000
sa(dp3001
g2972
S'/usr/lib/pymodules/python2.7/gluon/restricted.py'
p3002
sg2974
(dp3003
S'builtincompile'
p3004
S'<built-in function compile>'
p3005
sS'code'
p3006
S"'import urllib,urllib2\\nfrom urlparse import *\\nimp...n dict()\\n\\nresponse._vars=response._caller(index)\\n'"
p3007
sS'code.rstrip'
p3008
S'<built-in method rstrip of str object>'
p3009
sS').replace'
p3010
g2983
sS'layer'
p3011
S"'/home/pooja/web2py/applications/newsapp/controllers/default.py'"
p3012
ssg2984
I189
sg2985
(dp3013
I192
S'    """'
p3014
sI193
S'    runs code in environment and returns the output. if an exception occurs'
p3015
sI184
S''
sI185
S'def compile2(code,layer):'
p3016
sI186
S'    """'
p3017
sI187
S"    The +'\\n' is necessary else compile fails when code ends in a comment."
p3018
sI188
S'    """'
p3019
sI189
S"    return compile(code.rstrip().replace('\\r\\n','\\n')+'\\n', layer, 'exec')"
p3020
sI190
S''
sI191
S"def restricted(code, environment=None, layer='Unknown'):"
p3021
ssg2997
S"(code='import urllib,urllib2\\nfrom urlparse import *\\nimp...n dict()\\n\\nresponse._vars=response._caller(index)\\n', layer='/home/pooja/web2py/applications/newsapp/controllers/default.py')"
p3022
sg2999
S'compile2'
p3023
sasS'pyver'
p3024
S'Python 2.7.6: /usr/bin/python'
p3025
sS'session'
p3026
g68
(g69
g70
NtRp3027
(dp3028
g73
(dp3029
sg75
(lp3030
g68
(g77
g70
NtRp3031
(dp3032
g73
(dp3033
g81
I5
ssg82
Nsg75
(lp3034
g68
(g84
g70
NtRp3035
(dp3036
g73
(dp3037
sg82
g3031
sg75
(lp3038
g68
(g89
g70
NtRp3039
(dp3040
g73
(dp3041
g93
g94
ssg82
g3035
sg75
(lp3042
S'access_token'
p3043
asbag68
(g89
g70
NtRp3044
(dp3045
g73
(dp3046
g100
g101
ssg82
g3035
sg75
(lp3047
S':'
asbag68
(g89
g70
NtRp3048
(dp3049
g73
(dp3050
sg82
g3035
sg75
(lp3051
g68
(g69
g70
NtRp3052
(dp3053
g73
(dp3054
g81
I5
ssg82
g3048
sg75
(lp3055
g68
(g77
g70
NtRp3056
(dp3057
g73
(dp3058
g81
I4
ssg82
Nsg75
(lp3059
g68
(g84
g70
NtRp3060
(dp3061
g73
(dp3062
sg82
g3056
sg75
(lp3063
g68
(g89
g70
NtRp3064
(dp3065
g73
(dp3066
g93
g94
ssg82
g3060
sg75
(lp3067
S'oauth_token'
p3068
asbag68
(g89
g70
NtRp3069
(dp3070
g73
(dp3071
g100
g101
ssg82
g3060
sg75
(lp3072
S':'
asbag68
(g89
g70
NtRp3073
(dp3074
g73
(dp3075
sg82
g3060
sg75
(lp3076
g68
(g69
g70
NtRp3077
(dp3078
g73
(dp3079
g81
I4
ssg82
g3073
sg75
(lp3080
S'269256901-Tms0dXy6Yd3ymJZJbGEgKf4EbijtLdKTABJCXd0L'
p3081
asbasbasbag68
(g84
g70
NtRp3082
(dp3083
g73
(dp3084
sg82
g3056
sg75
(lp3085
g68
(g89
g70
NtRp3086
(dp3087
g73
(dp3088
g93
g94
ssg82
g3082
sg75
(lp3089
S'oauth_token_secret'
p3090
asbag68
(g89
g70
NtRp3091
(dp3092
g73
(dp3093
g100
g101
ssg82
g3082
sg75
(lp3094
S':'
asbag68
(g89
g70
NtRp3095
(dp3096
g73
(dp3097
sg82
g3082
sg75
(lp3098
g68
(g69
g70
NtRp3099
(dp3100
g73
(dp3101
g81
I4
ssg82
g3095
sg75
(lp3102
S'cnW26x6ID9yebEJLhTH50Xm36dr3anNuR4mFzzh14AMYr'
p3103
asbasbasbag68
(g84
g70
NtRp3104
(dp3105
g73
(dp3106
sg82
g3056
sg75
(lp3107
g68
(g89
g70
NtRp3108
(dp3109
g73
(dp3110
g93
g94
ssg82
g3104
sg75
(lp3111
S'screen_name'
p3112
asbag68
(g89
g70
NtRp3113
(dp3114
g73
(dp3115
g100
g101
ssg82
g3104
sg75
(lp3116
S':'
asbag68
(g89
g70
NtRp3117
(dp3118
g73
(dp3119
sg82
g3104
sg75
(lp3120
g68
(g69
g70
NtRp3121
(dp3122
g73
(dp3123
g81
I4
ssg82
g3117
sg75
(lp3124
S'poojakvj'
p3125
asbasbasbag68
(g84
g70
NtRp3126
(dp3127
g73
(dp3128
sg82
g3056
sg75
(lp3129
g68
(g89
g70
NtRp3130
(dp3131
g73
(dp3132
g93
g94
ssg82
g3126
sg75
(lp3133
S'user_id'
p3134
asbag68
(g89
g70
NtRp3135
(dp3136
g73
(dp3137
g100
g101
ssg82
g3126
sg75
(lp3138
S':'
asbag68
(g89
g70
NtRp3139
(dp3140
g73
(dp3141
sg82
g3126
sg75
(lp3142
g68
(g69
g70
NtRp3143
(dp3144
g73
(dp3145
g81
I4
ssg82
g3139
sg75
(lp3146
S'269256901'
p3147
asbasbasbasbasbasbasbag68
(g84
g70
NtRp3148
(dp3149
g73
(dp3150
sg82
g3031
sg75
(lp3151
g68
(g89
g70
NtRp3152
(dp3153
g73
(dp3154
g93
g94
ssg82
g3148
sg75
(lp3155
S'request_token'
p3156
asbag68
(g89
g70
NtRp3157
(dp3158
g73
(dp3159
g100
g101
ssg82
g3148
sg75
(lp3160
S':'
asbag68
(g89
g70
NtRp3161
(dp3162
g73
(dp3163
sg82
g3148
sg75
(lp3164
g68
(g69
g70
NtRp3165
(dp3166
g73
(dp3167
g81
I5
ssg82
g3161
sg75
(lp3168
g68
(g77
g70
NtRp3169
(dp3170
g73
(dp3171
g81
I4
ssg82
Nsg75
(lp3172
g68
(g84
g70
NtRp3173
(dp3174
g73
(dp3175
sg82
g3169
sg75
(lp3176
g68
(g89
g70
NtRp3177
(dp3178
g73
(dp3179
g93
g94
ssg82
g3173
sg75
(lp3180
S'oauth_callback_confirmed'
p3181
asbag68
(g89
g70
NtRp3182
(dp3183
g73
(dp3184
g100
g101
ssg82
g3173
sg75
(lp3185
S':'
asbag68
(g89
g70
NtRp3186
(dp3187
g73
(dp3188
sg82
g3173
sg75
(lp3189
g68
(g69
g70
NtRp3190
(dp3191
g73
(dp3192
g81
I4
ssg82
g3186
sg75
(lp3193
S'true'
p3194
asbasbasbag68
(g84
g70
NtRp3195
(dp3196
g73
(dp3197
sg82
g3169
sg75
(lp3198
g68
(g89
g70
NtRp3199
(dp3200
g73
(dp3201
g93
g94
ssg82
g3195
sg75
(lp3202
S'oauth_token'
p3203
asbag68
(g89
g70
NtRp3204
(dp3205
g73
(dp3206
g100
g101
ssg82
g3195
sg75
(lp3207
S':'
asbag68
(g89
g70
NtRp3208
(dp3209
g73
(dp3210
sg82
g3195
sg75
(lp3211
g68
(g69
g70
NtRp3212
(dp3213
g73
(dp3214
g81
I4
ssg82
g3208
sg75
(lp3215
S'SrCtZm1ZtbaC5O5X96EeA7yYuyYG669W'
p3216
asbasbasbag68
(g84
g70
NtRp3217
(dp3218
g73
(dp3219
sg82
g3169
sg75
(lp3220
g68
(g89
g70
NtRp3221
(dp3222
g73
(dp3223
g93
g94
ssg82
g3217
sg75
(lp3224
S'oauth_token_secret'
p3225
asbag68
(g89
g70
NtRp3226
(dp3227
g73
(dp3228
g100
g101
ssg82
g3217
sg75
(lp3229
S':'
asbag68
(g89
g70
NtRp3230
(dp3231
g73
(dp3232
sg82
g3217
sg75
(lp3233
g68
(g69
g70
NtRp3234
(dp3235
g73
(dp3236
g81
I4
ssg82
g3230
sg75
(lp3237
S'Nk5w3ld8bIdzOwBzpsSEKj8BkC5JfqPl'
p3238
asbasbasbasbasbasbasbasbasbsS'etype'
p3239
S"<type 'exceptions.IndentationError'>"
p3240
sS'date'
p3241
S'Sun May 10 08:27:55 2015'
p3242
sS'response'
p3243
g68
(g69
g70
NtRp3244
(dp3245
g73
(dp3246
sg75
(lp3247
g68
(g77
g70
NtRp3248
(dp3249
g73
(dp3250
g81
I5
ssg82
Nsg75
(lp3251
g68
(g84
g70
NtRp3252
(dp3253
g73
(dp3254
sg82
g3248
sg75
(lp3255
g68
(g89
g70
NtRp3256
(dp3257
g73
(dp3258
g93
g94
ssg82
g3252
sg75
(lp3259
g166
asbag68
(g89
g70
NtRp3260
(dp3261
g73
(dp3262
g100
g101
ssg82
g3252
sg75
(lp3263
S':'
asbag68
(g89
g70
NtRp3264
(dp3265
g73
(dp3266
sg82
g3252
sg75
(lp3267
g68
(g69
g70
NtRp3268
(dp3269
g73
(dp3270
g81
I5
ssg82
g3264
sg75
(lp3271
S'<cStringIO.StringO object at 0x7f486a3e9960>'
p3272
asbasbasbag68
(g84
g70
NtRp3273
(dp3274
g73
(dp3275
sg82
g3248
sg75
(lp3276
g68
(g89
g70
NtRp3277
(dp3278
g73
(dp3279
g93
g94
ssg82
g3273
sg75
(lp3280
g232
asbag68
(g89
g70
NtRp3281
(dp3282
g73
(dp3283
g100
g101
ssg82
g3273
sg75
(lp3284
S':'
asbag68
(g89
g70
NtRp3285
(dp3286
g73
(dp3287
sg82
g3273
sg75
(lp3288
g68
(g69
g70
NtRp3289
(dp3290
g73
(dp3291
g81
I5
ssg82
g3285
sg75
(lp3292
g68
(g77
g70
NtRp3293
(dp3294
g73
(dp3295
g81
I4
ssg82
Nsg75
(lp3296
g68
(g84
g70
NtRp3297
(dp3298
g73
(dp3299
sg82
g3293
sg75
(lp3300
g68
(g89
g70
NtRp3301
(dp3302
g73
(dp3303
g93
g94
ssg82
g3297
sg75
(lp3304
S'session_id_newsapp'
p3305
asbag68
(g89
g70
NtRp3306
(dp3307
g73
(dp3308
g100
g101
ssg82
g3297
sg75
(lp3309
S':'
asbag68
(g89
g70
NtRp3310
(dp3311
g73
(dp3312
sg82
g3297
sg75
(lp3313
g68
(g69
g70
NtRp3314
(dp3315
g73
(dp3316
g81
I4
ssg82
g3310
sg75
(lp3317
g68
(g77
g70
NtRp3318
(dp3319
g73
(dp3320
g81
I3
ssg82
Nsg75
(lp3321
g68
(g84
g70
NtRp3322
(dp3323
g73
(dp3324
sg82
g3318
sg75
(lp3325
g68
(g89
g70
NtRp3326
(dp3327
g73
(dp3328
g93
g94
ssg82
g3322
sg75
(lp3329
g282
asbag68
(g89
g70
NtRp3330
(dp3331
g73
(dp3332
g100
g101
ssg82
g3322
sg75
(lp3333
S':'
asbag68
(g89
g70
NtRp3334
(dp3335
g73
(dp3336
sg82
g3322
sg75
(lp3337
g68
(g69
g70
NtRp3338
(dp3339
g73
(dp3340
g81
I3
ssg82
g3334
sg75
(lp3341
S''
asbasbasbag68
(g84
g70
NtRp3342
(dp3343
g73
(dp3344
sg82
g3318
sg75
(lp3345
g68
(g89
g70
NtRp3346
(dp3347
g73
(dp3348
g93
g94
ssg82
g3342
sg75
(lp3349
g303
asbag68
(g89
g70
NtRp3350
(dp3351
g73
(dp3352
g100
g101
ssg82
g3342
sg75
(lp3353
S':'
asbag68
(g89
g70
NtRp3354
(dp3355
g73
(dp3356
sg82
g3342
sg75
(lp3357
g68
(g69
g70
NtRp3358
(dp3359
g73
(dp3360
g81
I3
ssg82
g3354
sg75
(lp3361
S''
asbasbasbag68
(g84
g70
NtRp3362
(dp3363
g73
(dp3364
sg82
g3318
sg75
(lp3365
g68
(g89
g70
NtRp3366
(dp3367
g73
(dp3368
g93
g94
ssg82
g3362
sg75
(lp3369
g324
asbag68
(g89
g70
NtRp3370
(dp3371
g73
(dp3372
g100
g101
ssg82
g3362
sg75
(lp3373
S':'
asbag68
(g89
g70
NtRp3374
(dp3375
g73
(dp3376
sg82
g3362
sg75
(lp3377
g68
(g69
g70
NtRp3378
(dp3379
g73
(dp3380
g81
I3
ssg82
g3374
sg75
(lp3381
S''
asbasbasbag68
(g84
g70
NtRp3382
(dp3383
g73
(dp3384
sg82
g3318
sg75
(lp3385
g68
(g89
g70
NtRp3386
(dp3387
g73
(dp3388
g93
g94
ssg82
g3382
sg75
(lp3389
g345
asbag68
(g89
g70
NtRp3390
(dp3391
g73
(dp3392
g100
g101
ssg82
g3382
sg75
(lp3393
S':'
asbag68
(g89
g70
NtRp3394
(dp3395
g73
(dp3396
sg82
g3382
sg75
(lp3397
g68
(g69
g70
NtRp3398
(dp3399
g73
(dp3400
g81
I3
ssg82
g3394
sg75
(lp3401
S''
asbasbasbag68
(g84
g70
NtRp3402
(dp3403
g73
(dp3404
sg82
g3318
sg75
(lp3405
g68
(g89
g70
NtRp3406
(dp3407
g73
(dp3408
g93
g94
ssg82
g3402
sg75
(lp3409
g366
asbag68
(g89
g70
NtRp3410
(dp3411
g73
(dp3412
g100
g101
ssg82
g3402
sg75
(lp3413
S':'
asbag68
(g89
g70
NtRp3414
(dp3415
g73
(dp3416
sg82
g3402
sg75
(lp3417
g68
(g69
g70
NtRp3418
(dp3419
g73
(dp3420
g81
I3
ssg82
g3414
sg75
(lp3421
S''
asbasbasbag68
(g84
g70
NtRp3422
(dp3423
g73
(dp3424
sg82
g3318
sg75
(lp3425
g68
(g89
g70
NtRp3426
(dp3427
g73
(dp3428
g93
g94
ssg82
g3422
sg75
(lp3429
g387
asbag68
(g89
g70
NtRp3430
(dp3431
g73
(dp3432
g100
g101
ssg82
g3422
sg75
(lp3433
S':'
asbag68
(g89
g70
NtRp3434
(dp3435
g73
(dp3436
sg82
g3422
sg75
(lp3437
g68
(g69
g70
NtRp3438
(dp3439
g73
(dp3440
g81
I3
ssg82
g3434
sg75
(lp3441
S'/'
asbasbasbag68
(g84
g70
NtRp3442
(dp3443
g73
(dp3444
sg82
g3318
sg75
(lp3445
g68
(g89
g70
NtRp3446
(dp3447
g73
(dp3448
g93
g94
ssg82
g3442
sg75
(lp3449
g408
asbag68
(g89
g70
NtRp3450
(dp3451
g73
(dp3452
g100
g101
ssg82
g3442
sg75
(lp3453
S':'
asbag68
(g89
g70
NtRp3454
(dp3455
g73
(dp3456
sg82
g3442
sg75
(lp3457
g68
(g69
g70
NtRp3458
(dp3459
g73
(dp3460
g81
I3
ssg82
g3454
sg75
(lp3461
S''
asbasbasbag68
(g84
g70
NtRp3462
(dp3463
g73
(dp3464
sg82
g3318
sg75
(lp3465
g68
(g89
g70
NtRp3466
(dp3467
g73
(dp3468
g93
g94
ssg82
g3462
sg75
(lp3469
g429
asbag68
(g89
g70
NtRp3470
(dp3471
g73
(dp3472
g100
g101
ssg82
g3462
sg75
(lp3473
S':'
asbag68
(g89
g70
NtRp3474
(dp3475
g73
(dp3476
sg82
g3462
sg75
(lp3477
g68
(g69
g70
NtRp3478
(dp3479
g73
(dp3480
g81
I3
ssg82
g3474
sg75
(lp3481
S''
asbasbasbasbasbasbasbasbasbasbasbag68
(g84
g70
NtRp3482
(dp3483
g73
(dp3484
sg82
g3248
sg75
(lp3485
g68
(g89
g70
NtRp3486
(dp3487
g73
(dp3488
g93
g94
ssg82
g3482
sg75
(lp3489
S'delimiters'
p3490
asbag68
(g89
g70
NtRp3491
(dp3492
g73
(dp3493
g100
g101
ssg82
g3482
sg75
(lp3494
S':'
asbag68
(g89
g70
NtRp3495
(dp3496
g73
(dp3497
sg82
g3482
sg75
(lp3498
g68
(g69
g70
NtRp3499
(dp3500
g73
(dp3501
g81
I5
ssg82
g3495
sg75
(lp3502
g68
(g77
g70
NtRp3503
(dp3504
g73
(dp3505
g81
I4
ssg82
Nsg75
(lp3506
g68
(g84
g70
NtRp3507
(dp3508
g73
(dp3509
sg82
g3503
sg75
(lp3510
g68
(g89
g70
NtRp3511
(dp3512
g73
(dp3513
sg82
g3507
sg75
(lp3514
g68
(g69
g70
NtRp3515
(dp3516
g73
(dp3517
g81
I4
ssg82
g3511
sg75
(lp3518
S'{{'
p3519
asbasbasbag68
(g84
g70
NtRp3520
(dp3521
g73
(dp3522
sg82
g3503
sg75
(lp3523
g68
(g89
g70
NtRp3524
(dp3525
g73
(dp3526
sg82
g3520
sg75
(lp3527
g68
(g69
g70
NtRp3528
(dp3529
g73
(dp3530
g81
I4
ssg82
g3524
sg75
(lp3531
S'}}'
p3532
asbasbasbasbasbasbasbag68
(g84
g70
NtRp3533
(dp3534
g73
(dp3535
sg82
g3248
sg75
(lp3536
g68
(g89
g70
NtRp3537
(dp3538
g73
(dp3539
g93
g94
ssg82
g3533
sg75
(lp3540
S'files'
p3541
asbag68
(g89
g70
NtRp3542
(dp3543
g73
(dp3544
g100
g101
ssg82
g3533
sg75
(lp3545
S':'
asbag68
(g89
g70
NtRp3546
(dp3547
g73
(dp3548
sg82
g3533
sg75
(lp3549
g68
(g69
g70
NtRp3550
(dp3551
g73
(dp3552
g81
I5
ssg82
g3546
sg75
(lp3553
g68
(g77
g70
NtRp3554
(dp3555
g73
(dp3556
g81
I4
ssg82
Nsg75
(lp3557
sbasbasbasbag68
(g84
g70
NtRp3558
(dp3559
g73
(dp3560
sg82
g3248
sg75
(lp3561
g68
(g89
g70
NtRp3562
(dp3563
g73
(dp3564
g93
g94
ssg82
g3558
sg75
(lp3565
S'flash'
p3566
asbag68
(g89
g70
NtRp3567
(dp3568
g73
(dp3569
g100
g101
ssg82
g3558
sg75
(lp3570
S':'
asbag68
(g89
g70
NtRp3571
(dp3572
g73
(dp3573
sg82
g3558
sg75
(lp3574
g68
(g69
g70
NtRp3575
(dp3576
g73
(dp3577
g81
I5
ssg82
g3571
sg75
(lp3578
S''
asbasbasbag68
(g84
g70
NtRp3579
(dp3580
g73
(dp3581
sg82
g3248
sg75
(lp3582
g68
(g89
g70
NtRp3583
(dp3584
g73
(dp3585
g93
g94
ssg82
g3579
sg75
(lp3586
S'generic_patterns'
p3587
asbag68
(g89
g70
NtRp3588
(dp3589
g73
(dp3590
g100
g101
ssg82
g3579
sg75
(lp3591
S':'
asbag68
(g89
g70
NtRp3592
(dp3593
g73
(dp3594
sg82
g3579
sg75
(lp3595
g68
(g69
g70
NtRp3596
(dp3597
g73
(dp3598
g81
I5
ssg82
g3592
sg75
(lp3599
g68
(g77
g70
NtRp3600
(dp3601
g73
(dp3602
g81
I4
ssg82
Nsg75
(lp3603
g68
(g84
g70
NtRp3604
(dp3605
g73
(dp3606
sg82
g3600
sg75
(lp3607
g68
(g89
g70
NtRp3608
(dp3609
g73
(dp3610
sg82
g3604
sg75
(lp3611
g68
(g69
g70
NtRp3612
(dp3613
g73
(dp3614
g81
I4
ssg82
g3608
sg75
(lp3615
S'*'
asbasbasbasbasbasbasbag68
(g84
g70
NtRp3616
(dp3617
g73
(dp3618
sg82
g3248
sg75
(lp3619
g68
(g89
g70
NtRp3620
(dp3621
g73
(dp3622
g93
g94
ssg82
g3616
sg75
(lp3623
S'headers'
p3624
asbag68
(g89
g70
NtRp3625
(dp3626
g73
(dp3627
g100
g101
ssg82
g3616
sg75
(lp3628
S':'
asbag68
(g89
g70
NtRp3629
(dp3630
g73
(dp3631
sg82
g3616
sg75
(lp3632
g68
(g69
g70
NtRp3633
(dp3634
g73
(dp3635
g81
I5
ssg82
g3629
sg75
(lp3636
g68
(g77
g70
NtRp3637
(dp3638
g73
(dp3639
g81
I4
ssg82
Nsg75
(lp3640
g68
(g84
g70
NtRp3641
(dp3642
g73
(dp3643
sg82
g3637
sg75
(lp3644
g68
(g89
g70
NtRp3645
(dp3646
g73
(dp3647
g93
g94
ssg82
g3641
sg75
(lp3648
S'Cache-Control'
p3649
asbag68
(g89
g70
NtRp3650
(dp3651
g73
(dp3652
g100
g101
ssg82
g3641
sg75
(lp3653
S':'
asbag68
(g89
g70
NtRp3654
(dp3655
g73
(dp3656
sg82
g3641
sg75
(lp3657
g68
(g69
g70
NtRp3658
(dp3659
g73
(dp3660
g81
I4
ssg82
g3654
sg75
(lp3661
S'no-store, no-cache, must-revalidate, post-check=0, pre-check=0'
p3662
asbasbasbag68
(g84
g70
NtRp3663
(dp3664
g73
(dp3665
sg82
g3637
sg75
(lp3666
g68
(g89
g70
NtRp3667
(dp3668
g73
(dp3669
g93
g94
ssg82
g3663
sg75
(lp3670
S'Content-Type'
p3671
asbag68
(g89
g70
NtRp3672
(dp3673
g73
(dp3674
g100
g101
ssg82
g3663
sg75
(lp3675
S':'
asbag68
(g89
g70
NtRp3676
(dp3677
g73
(dp3678
sg82
g3663
sg75
(lp3679
g68
(g69
g70
NtRp3680
(dp3681
g73
(dp3682
g81
I4
ssg82
g3676
sg75
(lp3683
S'text/html; charset=utf-8'
p3684
asbasbasbag68
(g84
g70
NtRp3685
(dp3686
g73
(dp3687
sg82
g3637
sg75
(lp3688
g68
(g89
g70
NtRp3689
(dp3690
g73
(dp3691
g93
g94
ssg82
g3685
sg75
(lp3692
S'Expires'
p3693
asbag68
(g89
g70
NtRp3694
(dp3695
g73
(dp3696
g100
g101
ssg82
g3685
sg75
(lp3697
S':'
asbag68
(g89
g70
NtRp3698
(dp3699
g73
(dp3700
sg82
g3685
sg75
(lp3701
g68
(g69
g70
NtRp3702
(dp3703
g73
(dp3704
g81
I4
ssg82
g3698
sg75
(lp3705
S'Sun, 10 May 2015 02:57:55 GMT'
p3706
asbasbasbag68
(g84
g70
NtRp3707
(dp3708
g73
(dp3709
sg82
g3637
sg75
(lp3710
g68
(g89
g70
NtRp3711
(dp3712
g73
(dp3713
g93
g94
ssg82
g3707
sg75
(lp3714
S'Pragma'
p3715
asbag68
(g89
g70
NtRp3716
(dp3717
g73
(dp3718
g100
g101
ssg82
g3707
sg75
(lp3719
S':'
asbag68
(g89
g70
NtRp3720
(dp3721
g73
(dp3722
sg82
g3707
sg75
(lp3723
g68
(g69
g70
NtRp3724
(dp3725
g73
(dp3726
g81
I4
ssg82
g3720
sg75
(lp3727
S'no-cache'
p3728
asbasbasbag68
(g84
g70
NtRp3729
(dp3730
g73
(dp3731
sg82
g3637
sg75
(lp3732
g68
(g89
g70
NtRp3733
(dp3734
g73
(dp3735
g93
g94
ssg82
g3729
sg75
(lp3736
S'X-Powered-By'
p3737
asbag68
(g89
g70
NtRp3738
(dp3739
g73
(dp3740
g100
g101
ssg82
g3729
sg75
(lp3741
S':'
asbag68
(g89
g70
NtRp3742
(dp3743
g73
(dp3744
sg82
g3729
sg75
(lp3745
g68
(g69
g70
NtRp3746
(dp3747
g73
(dp3748
g81
I4
ssg82
g3742
sg75
(lp3749
S'web2py'
p3750
asbasbasbasbasbasbasbag68
(g84
g70
NtRp3751
(dp3752
g73
(dp3753
sg82
g3248
sg75
(lp3754
g68
(g89
g70
NtRp3755
(dp3756
g73
(dp3757
g93
g94
ssg82
g3751
sg75
(lp3758
S'menu'
p3759
asbag68
(g89
g70
NtRp3760
(dp3761
g73
(dp3762
g100
g101
ssg82
g3751
sg75
(lp3763
S':'
asbag68
(g89
g70
NtRp3764
(dp3765
g73
(dp3766
sg82
g3751
sg75
(lp3767
g68
(g69
g70
NtRp3768
(dp3769
g73
(dp3770
g81
I5
ssg82
g3764
sg75
(lp3771
g68
(g77
g70
NtRp3772
(dp3773
g73
(dp3774
g81
I4
ssg82
Nsg75
(lp3775
g68
(g84
g70
NtRp3776
(dp3777
g73
(dp3778
sg82
g3772
sg75
(lp3779
g68
(g89
g70
NtRp3780
(dp3781
g73
(dp3782
sg82
g3776
sg75
(lp3783
g68
(g69
g70
NtRp3784
(dp3785
g73
(dp3786
g81
I4
ssg82
g3780
sg75
(lp3787
g68
(g77
g70
NtRp3788
(dp3789
g73
(dp3790
g81
I3
ssg82
Nsg75
(lp3791
g68
(g84
g70
NtRp3792
(dp3793
g73
(dp3794
sg82
g3788
sg75
(lp3795
g68
(g89
g70
NtRp3796
(dp3797
g73
(dp3798
sg82
g3792
sg75
(lp3799
g68
(g69
g70
NtRp3800
(dp3801
g73
(dp3802
g81
I3
ssg82
g3796
sg75
(lp3803
cgluon.languages
lazyT_unpickle
p3804
(S't\x04\x00\x00\x00Home'
tRp3805
asbasbasbag68
(g84
g70
NtRp3806
(dp3807
g73
(dp3808
sg82
g3788
sg75
(lp3809
g68
(g89
g70
NtRp3810
(dp3811
g73
(dp3812
sg82
g3806
sg75
(lp3813
g68
(g69
g70
NtRp3814
(dp3815
g73
(dp3816
g81
I3
ssg82
g3810
sg75
(lp3817
g111
asbasbasbag68
(g84
g70
NtRp3818
(dp3819
g73
(dp3820
sg82
g3788
sg75
(lp3821
g68
(g89
g70
NtRp3822
(dp3823
g73
(dp3824
sg82
g3818
sg75
(lp3825
g68
(g69
g70
NtRp3826
(dp3827
g73
(dp3828
g81
I3
ssg82
g3822
sg75
(lp3829
S'/newsapp/default/index'
p3830
asbasbasbag68
(g84
g70
NtRp3831
(dp3832
g73
(dp3833
sg82
g3788
sg75
(lp3834
g68
(g89
g70
NtRp3835
(dp3836
g73
(dp3837
sg82
g3831
sg75
(lp3838
g68
(g69
g70
NtRp3839
(dp3840
g73
(dp3841
g81
I3
ssg82
g3835
sg75
(lp3842
g68
(g77
g70
NtRp3843
(dp3844
g73
(dp3845
g81
I2
ssg82
Nsg75
(lp3846
sbasbasbasbasbasbasbasbag68
(g84
g70
NtRp3847
(dp3848
g73
(dp3849
sg82
g3772
sg75
(lp3850
g68
(g89
g70
NtRp3851
(dp3852
g73
(dp3853
sg82
g3847
sg75
(lp3854
g68
(g69
g70
NtRp3855
(dp3856
g73
(dp3857
g81
I4
ssg82
g3851
sg75
(lp3858
g68
(g77
g70
NtRp3859
(dp3860
g73
(dp3861
g81
I3
ssg82
Nsg75
(lp3862
g68
(g84
g70
NtRp3863
(dp3864
g73
(dp3865
sg82
g3859
sg75
(lp3866
g68
(g89
g70
NtRp3867
(dp3868
g73
(dp3869
sg82
g3863
sg75
(lp3870
g68
(g69
g70
NtRp3871
(dp3872
g73
(dp3873
g81
I3
ssg82
g3867
sg75
(lp3874
g68
(cgluon.html
SPAN
p3875
g70
NtRp3876
(dp3877
g73
(dp3878
g93
S'color:yellow'
p3879
ssg82
Nsg75
(lp3880
g3750
asbasbasbasbag68
(g84
g70
NtRp3881
(dp3882
g73
(dp3883
sg82
g3859
sg75
(lp3884
g68
(g89
g70
NtRp3885
(dp3886
g73
(dp3887
sg82
g3881
sg75
(lp3888
g68
(g69
g70
NtRp3889
(dp3890
g73
(dp3891
g81
I3
ssg82
g3885
sg75
(lp3892
g111
asbasbasbag68
(g84
g70
NtRp3893
(dp3894
g73
(dp3895
sg82
g3859
sg75
(lp3896
g68
(g89
g70
NtRp3897
(dp3898
g73
(dp3899
sg82
g3893
sg75
(lp3900
g68
(g69
g70
NtRp3901
(dp3902
g73
(dp3903
g81
I3
ssg82
g3897
sg75
(lp3904
S'None'
p3905
asbasbasbag68
(g84
g70
NtRp3906
(dp3907
g73
(dp3908
sg82
g3859
sg75
(lp3909
g68
(g89
g70
NtRp3910
(dp3911
g73
(dp3912
sg82
g3906
sg75
(lp3913
g68
(g69
g70
NtRp3914
(dp3915
g73
(dp3916
g81
I3
ssg82
g3910
sg75
(lp3917
g68
(g77
g70
NtRp3918
(dp3919
g73
(dp3920
g81
I2
ssg82
Nsg75
(lp3921
g68
(g84
g70
NtRp3922
(dp3923
g73
(dp3924
sg82
g3918
sg75
(lp3925
g68
(g89
g70
NtRp3926
(dp3927
g73
(dp3928
sg82
g3922
sg75
(lp3929
g68
(g69
g70
NtRp3930
(dp3931
g73
(dp3932
g81
I2
ssg82
g3926
sg75
(lp3933
g68
(g77
g70
NtRp3934
(dp3935
g73
(dp3936
g81
I1
ssg82
Nsg75
(lp3937
g68
(g84
g70
NtRp3938
(dp3939
g73
(dp3940
sg82
g3934
sg75
(lp3941
g68
(g89
g70
NtRp3942
(dp3943
g73
(dp3944
sg82
g3938
sg75
(lp3945
g68
(g69
g70
NtRp3946
(dp3947
g73
(dp3948
g81
I1
ssg82
g3942
sg75
(lp3949
g3804
(S's\x08\x00\x00\x00My Sites'
tRp3950
asbasbasbag68
(g84
g70
NtRp3951
(dp3952
g73
(dp3953
sg82
g3934
sg75
(lp3954
g68
(g89
g70
NtRp3955
(dp3956
g73
(dp3957
sg82
g3951
sg75
(lp3958
g68
(g69
g70
NtRp3959
(dp3960
g73
(dp3961
g81
I1
ssg82
g3955
sg75
(lp3962
I00
asbasbasbag68
(g84
g70
NtRp3963
(dp3964
g73
(dp3965
sg82
g3934
sg75
(lp3966
g68
(g89
g70
NtRp3967
(dp3968
g73
(dp3969
sg82
g3963
sg75
(lp3970
g68
(g69
g70
NtRp3971
(dp3972
g73
(dp3973
g81
I1
ssg82
g3967
sg75
(lp3974
S'/admin/default/site'
p3975
asbasbasbasbasbasbasbag68
(g84
g70
NtRp3976
(dp3977
g73
(dp3978
sg82
g3918
sg75
(lp3979
g68
(g89
g70
NtRp3980
(dp3981
g73
(dp3982
sg82
g3976
sg75
(lp3983
g68
(g69
g70
NtRp3984
(dp3985
g73
(dp3986
g81
I2
ssg82
g3980
sg75
(lp3987
g68
(g77
g70
NtRp3988
(dp3989
g73
(dp3990
g81
I1
ssg82
Nsg75
(lp3991
g68
(g84
g70
NtRp3992
(dp3993
g73
(dp3994
sg82
g3988
sg75
(lp3995
g68
(g89
g70
NtRp3996
(dp3997
g73
(dp3998
sg82
g3992
sg75
(lp3999
g68
(g69
g70
NtRp4000
(dp4001
g73
(dp4002
g81
I1
ssg82
g3996
sg75
(lp4003
g3804
(S's\x08\x00\x00\x00This App'
tRp4004
asbasbasbag68
(g84
g70
NtRp4005
(dp4006
g73
(dp4007
sg82
g3988
sg75
(lp4008
g68
(g89
g70
NtRp4009
(dp4010
g73
(dp4011
sg82
g4005
sg75
(lp4012
g68
(g69
g70
NtRp4013
(dp4014
g73
(dp4015
g81
I1
ssg82
g4009
sg75
(lp4016
I00
asbasbasbag68
(g84
g70
NtRp4017
(dp4018
g73
(dp4019
sg82
g3988
sg75
(lp4020
g68
(g89
g70
NtRp4021
(dp4022
g73
(dp4023
sg82
g4017
sg75
(lp4024
g68
(g69
g70
NtRp4025
(dp4026
g73
(dp4027
g81
I1
ssg82
g4021
sg75
(lp4028
S'/admin/default/design/newsapp'
p4029
asbasbasbag68
(g84
g70
NtRp4030
(dp4031
g73
(dp4032
sg82
g3988
sg75
(lp4033
g68
(g89
g70
NtRp4034
(dp4035
g73
(dp4036
sg82
g4030
sg75
(lp4037
g68
(g69
g70
NtRp4038
(dp4039
g73
(dp4040
g81
I1
ssg82
g4034
sg75
(lp4041
(lp4042
(g3804
(S't\n\x00\x00\x00Controller'
tRp4043
I00
S'/admin/default/edit/newsapp/controllers/default.py'
tp4044
a(g3804
(S't\x04\x00\x00\x00View'
tRp4045
I00
S'/admin/default/edit/newsapp/views/default/index.html'
tp4046
a(g3804
(S't\x06\x00\x00\x00Layout'
tRp4047
I00
S'/admin/default/edit/newsapp/views/layout.html'
tp4048
a(g3804
(S't\n\x00\x00\x00Stylesheet'
tRp4049
I00
S'/admin/default/edit/newsapp/static/css/web2py.css'
tp4050
a(g3804
(S's\x08\x00\x00\x00DB Model'
tRp4051
I00
S'/admin/default/edit/newsapp/models/db.py'
tp4052
a(g3804
(S's\n\x00\x00\x00Menu Model'
tRp4053
I00
S'/admin/default/edit/newsapp/models/menu.py'
tp4054
a(g3804
(S't\x08\x00\x00\x00Database'
tRp4055
I00
S'/newsapp/appadmin/index'
tp4056
a(g3804
(S't\x06\x00\x00\x00Errors'
tRp4057
I00
S'/admin/default/errors/newsapp'
tp4058
a(g3804
(S't\x05\x00\x00\x00About'
tRp4059
I00
S'/admin/default/about/newsapp'
tp4060
aasbasbasbasbasbasbasbag68
(g84
g70
NtRp4061
(dp4062
g73
(dp4063
sg82
g3918
sg75
(lp4064
g68
(g89
g70
NtRp4065
(dp4066
g73
(dp4067
sg82
g4061
sg75
(lp4068
g68
(g69
g70
NtRp4069
(dp4070
g73
(dp4071
g81
I2
ssg82
g4065
sg75
(lp4072
g68
(g77
g70
NtRp4073
(dp4074
g73
(dp4075
g81
I1
ssg82
Nsg75
(lp4076
g68
(g84
g70
NtRp4077
(dp4078
g73
(dp4079
sg82
g4073
sg75
(lp4080
g68
(g89
g70
NtRp4081
(dp4082
g73
(dp4083
sg82
g4077
sg75
(lp4084
g68
(g69
g70
NtRp4085
(dp4086
g73
(dp4087
g81
I1
ssg82
g4081
sg75
(lp4088
S'web2py.com'
p4089
asbasbasbag68
(g84
g70
NtRp4090
(dp4091
g73
(dp4092
sg82
g4073
sg75
(lp4093
g68
(g89
g70
NtRp4094
(dp4095
g73
(dp4096
sg82
g4090
sg75
(lp4097
g68
(g69
g70
NtRp4098
(dp4099
g73
(dp4100
g81
I1
ssg82
g4094
sg75
(lp4101
I00
asbasbasbag68
(g84
g70
NtRp4102
(dp4103
g73
(dp4104
sg82
g4073
sg75
(lp4105
g68
(g89
g70
NtRp4106
(dp4107
g73
(dp4108
sg82
g4102
sg75
(lp4109
g68
(g69
g70
NtRp4110
(dp4111
g73
(dp4112
g81
I1
ssg82
g4106
sg75
(lp4113
S'http://www.web2py.com'
p4114
asbasbasbag68
(g84
g70
NtRp4115
(dp4116
g73
(dp4117
sg82
g4073
sg75
(lp4118
g68
(g89
g70
NtRp4119
(dp4120
g73
(dp4121
sg82
g4115
sg75
(lp4122
g68
(g69
g70
NtRp4123
(dp4124
g73
(dp4125
g81
I1
ssg82
g4119
sg75
(lp4126
(lp4127
(g3804
(S't\x08\x00\x00\x00Download'
tRp4128
I00
S'http://www.web2py.com/examples/default/download'
p4129
tp4130
a(g3804
(S't\x07\x00\x00\x00Support'
tRp4131
I00
S'http://www.web2py.com/examples/default/support'
p4132
tp4133
a(g3804
(S't\x04\x00\x00\x00Demo'
tRp4134
I00
S'http://web2py.com/demo_admin'
p4135
tp4136
a(g3804
(S's\x0e\x00\x00\x00Quick Examples'
tRp4137
I00
S'http://web2py.com/examples/default/examples'
p4138
tp4139
a(g3804
(S't\x03\x00\x00\x00FAQ'
tRp4140
I00
S'http://web2py.com/AlterEgo'
p4141
tp4142
a(g3804
(S't\x06\x00\x00\x00Videos'
tRp4143
I00
S'http://www.web2py.com/examples/default/videos/'
p4144
tp4145
a(g3804
(S's\x11\x00\x00\x00Free Applications'
tRp4146
I00
S'http://web2py.com/appliances'
p4147
tp4148
a(g3804
(S't\x07\x00\x00\x00Plugins'
tRp4149
I00
S'http://web2py.com/plugins'
p4150
tp4151
a(g3804
(S't\x07\x00\x00\x00Layouts'
tRp4152
I00
S'http://web2py.com/layouts'
p4153
tp4154
a(g3804
(S't\x07\x00\x00\x00Recipes'
tRp4155
I00
S'http://web2pyslices.com/'
p4156
tp4157
a(g3804
(S't\x08\x00\x00\x00Semantic'
tRp4158
I00
S'http://web2py.com/semantic'
p4159
tp4160
aasbasbasbasbasbasbasbag68
(g84
g70
NtRp4161
(dp4162
g73
(dp4163
sg82
g3918
sg75
(lp4164
g68
(g89
g70
NtRp4165
(dp4166
g73
(dp4167
sg82
g4161
sg75
(lp4168
g68
(g69
g70
NtRp4169
(dp4170
g73
(dp4171
g81
I2
ssg82
g4165
sg75
(lp4172
g68
(g77
g70
NtRp4173
(dp4174
g73
(dp4175
g81
I1
ssg82
Nsg75
(lp4176
g68
(g84
g70
NtRp4177
(dp4178
g73
(dp4179
sg82
g4173
sg75
(lp4180
g68
(g89
g70
NtRp4181
(dp4182
g73
(dp4183
sg82
g4177
sg75
(lp4184
g68
(g69
g70
NtRp4185
(dp4186
g73
(dp4187
g81
I1
ssg82
g4181
sg75
(lp4188
g3804
(S't\r\x00\x00\x00Documentation'
tRp4189
asbasbasbag68
(g84
g70
NtRp4190
(dp4191
g73
(dp4192
sg82
g4173
sg75
(lp4193
g68
(g89
g70
NtRp4194
(dp4195
g73
(dp4196
sg82
g4190
sg75
(lp4197
g68
(g69
g70
NtRp4198
(dp4199
g73
(dp4200
g81
I1
ssg82
g4194
sg75
(lp4201
I00
asbasbasbag68
(g84
g70
NtRp4202
(dp4203
g73
(dp4204
sg82
g4173
sg75
(lp4205
g68
(g89
g70
NtRp4206
(dp4207
g73
(dp4208
sg82
g4202
sg75
(lp4209
g68
(g69
g70
NtRp4210
(dp4211
g73
(dp4212
g81
I1
ssg82
g4206
sg75
(lp4213
S'http://www.web2py.com/book'
p4214
asbasbasbag68
(g84
g70
NtRp4215
(dp4216
g73
(dp4217
sg82
g4173
sg75
(lp4218
g68
(g89
g70
NtRp4219
(dp4220
g73
(dp4221
sg82
g4215
sg75
(lp4222
g68
(g69
g70
NtRp4223
(dp4224
g73
(dp4225
g81
I1
ssg82
g4219
sg75
(lp4226
(lp4227
(g3804
(S't\x07\x00\x00\x00Preface'
tRp4228
I00
S'http://www.web2py.com/book/default/chapter/00'
p4229
tp4230
a(g3804
(S't\x0c\x00\x00\x00Introduction'
tRp4231
I00
S'http://www.web2py.com/book/default/chapter/01'
p4232
tp4233
a(g3804
(S't\x06\x00\x00\x00Python'
tRp4234
I00
S'http://www.web2py.com/book/default/chapter/02'
p4235
tp4236
a(g3804
(S't\x08\x00\x00\x00Overview'
tRp4237
I00
S'http://www.web2py.com/book/default/chapter/03'
p4238
tp4239
a(g3804
(S's\x08\x00\x00\x00The Core'
tRp4240
I00
S'http://www.web2py.com/book/default/chapter/04'
p4241
tp4242
a(g3804
(S's\t\x00\x00\x00The Views'
tRp4243
I00
S'http://www.web2py.com/book/default/chapter/05'
p4244
tp4245
a(g3804
(S't\x08\x00\x00\x00Database'
tRp4246
I00
S'http://www.web2py.com/book/default/chapter/06'
p4247
tp4248
a(g3804
(S's\x14\x00\x00\x00Forms and Validators'
tRp4249
I00
S'http://www.web2py.com/book/default/chapter/07'
p4250
tp4251
a(g3804
(S's\r\x00\x00\x00Email and SMS'
tRp4252
I00
S'http://www.web2py.com/book/default/chapter/08'
p4253
tp4254
a(g3804
(S's\x0e\x00\x00\x00Access Control'
tRp4255
I00
S'http://www.web2py.com/book/default/chapter/09'
p4256
tp4257
a(g3804
(S't\x08\x00\x00\x00Services'
tRp4258
I00
S'http://www.web2py.com/book/default/chapter/10'
p4259
tp4260
a(g3804
(S's\x0c\x00\x00\x00Ajax Recipes'
tRp4261
I00
S'http://www.web2py.com/book/default/chapter/11'
p4262
tp4263
a(g3804
(S's\x16\x00\x00\x00Components and Plugins'
tRp4264
I00
S'http://www.web2py.com/book/default/chapter/12'
p4265
tp4266
a(g3804
(S's\x12\x00\x00\x00Deployment Recipes'
tRp4267
I00
S'http://www.web2py.com/book/default/chapter/13'
p4268
tp4269
a(g3804
(S's\r\x00\x00\x00Other Recipes'
tRp4270
I00
S'http://www.web2py.com/book/default/chapter/14'
p4271
tp4272
a(g3804
(S's\r\x00\x00\x00Buy this book'
tRp4273
I00
S'http://stores.lulu.com/web2py'
p4274
tp4275
aasbasbasbasbasbasbasbag68
(g84
g70
NtRp4276
(dp4277
g73
(dp4278
sg82
g3918
sg75
(lp4279
g68
(g89
g70
NtRp4280
(dp4281
g73
(dp4282
sg82
g4276
sg75
(lp4283
g68
(g69
g70
NtRp4284
(dp4285
g73
(dp4286
g81
I2
ssg82
g4280
sg75
(lp4287
g68
(g77
g70
NtRp4288
(dp4289
g73
(dp4290
g81
I1
ssg82
Nsg75
(lp4291
g68
(g84
g70
NtRp4292
(dp4293
g73
(dp4294
sg82
g4288
sg75
(lp4295
g68
(g89
g70
NtRp4296
(dp4297
g73
(dp4298
sg82
g4292
sg75
(lp4299
g68
(g69
g70
NtRp4300
(dp4301
g73
(dp4302
g81
I1
ssg82
g4296
sg75
(lp4303
g3804
(S't\t\x00\x00\x00Community'
tRp4304
asbasbasbag68
(g84
g70
NtRp4305
(dp4306
g73
(dp4307
sg82
g4288
sg75
(lp4308
g68
(g89
g70
NtRp4309
(dp4310
g73
(dp4311
sg82
g4305
sg75
(lp4312
g68
(g69
g70
NtRp4313
(dp4314
g73
(dp4315
g81
I1
ssg82
g4309
sg75
(lp4316
I00
asbasbasbag68
(g84
g70
NtRp4317
(dp4318
g73
(dp4319
sg82
g4288
sg75
(lp4320
g68
(g89
g70
NtRp4321
(dp4322
g73
(dp4323
sg82
g4317
sg75
(lp4324
g68
(g69
g70
NtRp4325
(dp4326
g73
(dp4327
g81
I1
ssg82
g4321
sg75
(lp4328
Nasbasbasbag68
(g84
g70
NtRp4329
(dp4330
g73
(dp4331
sg82
g4288
sg75
(lp4332
g68
(g89
g70
NtRp4333
(dp4334
g73
(dp4335
sg82
g4329
sg75
(lp4336
g68
(g69
g70
NtRp4337
(dp4338
g73
(dp4339
g81
I1
ssg82
g4333
sg75
(lp4340
(lp4341
(g3804
(S't\x06\x00\x00\x00Groups'
tRp4342
I00
S'http://www.web2py.com/examples/default/usergroups'
p4343
tp4344
a(g3804
(S't\x07\x00\x00\x00Twitter'
tRp4345
I00
S'http://twitter.com/web2py'
p4346
tp4347
a(g3804
(S's\t\x00\x00\x00Live Chat'
tRp4348
I00
S'http://webchat.freenode.net/?channels=web2py'
p4349
tp4350
aasbasbasbasbasbasbasbag68
(g84
g70
NtRp4351
(dp4352
g73
(dp4353
sg82
g3918
sg75
(lp4354
g68
(g89
g70
NtRp4355
(dp4356
g73
(dp4357
sg82
g4351
sg75
(lp4358
g68
(g69
g70
NtRp4359
(dp4360
g73
(dp4361
g81
I2
ssg82
g4355
sg75
(lp4362
g68
(g77
g70
NtRp4363
(dp4364
g73
(dp4365
g81
I1
ssg82
Nsg75
(lp4366
g68
(g84
g70
NtRp4367
(dp4368
g73
(dp4369
sg82
g4363
sg75
(lp4370
g68
(g89
g70
NtRp4371
(dp4372
g73
(dp4373
sg82
g4367
sg75
(lp4374
g68
(g69
g70
NtRp4375
(dp4376
g73
(dp4377
g81
I1
ssg82
g4371
sg75
(lp4378
g3804
(S't\x07\x00\x00\x00Plugins'
tRp4379
asbasbasbag68
(g84
g70
NtRp4380
(dp4381
g73
(dp4382
sg82
g4363
sg75
(lp4383
g68
(g89
g70
NtRp4384
(dp4385
g73
(dp4386
sg82
g4380
sg75
(lp4387
g68
(g69
g70
NtRp4388
(dp4389
g73
(dp4390
g81
I1
ssg82
g4384
sg75
(lp4391
I00
asbasbasbag68
(g84
g70
NtRp4392
(dp4393
g73
(dp4394
sg82
g4363
sg75
(lp4395
g68
(g89
g70
NtRp4396
(dp4397
g73
(dp4398
sg82
g4392
sg75
(lp4399
g68
(g69
g70
NtRp4400
(dp4401
g73
(dp4402
g81
I1
ssg82
g4396
sg75
(lp4403
Nasbasbasbag68
(g84
g70
NtRp4404
(dp4405
g73
(dp4406
sg82
g4363
sg75
(lp4407
g68
(g89
g70
NtRp4408
(dp4409
g73
(dp4410
sg82
g4404
sg75
(lp4411
g68
(g69
g70
NtRp4412
(dp4413
g73
(dp4414
g81
I1
ssg82
g4408
sg75
(lp4415
(lp4416
(S'plugin_wiki'
p4417
I00
S'http://web2py.com/examples/default/download'
p4418
tp4419
a(g3804
(S's\r\x00\x00\x00Other Plugins'
tRp4420
I00
g4150
tp4421
a(g3804
(S's\x0e\x00\x00\x00Layout Plugins'
tRp4422
I00
g4153
tp4423
aasbasbasbasbasbasbasbasbasbasbasbasbasbasbasbasbasbasbasbag68
(g84
g70
NtRp4424
(dp4425
g73
(dp4426
sg82
g3248
sg75
(lp4427
g68
(g89
g70
NtRp4428
(dp4429
g73
(dp4430
g93
g94
ssg82
g4424
sg75
(lp4431
S'meta'
p4432
asbag68
(g89
g70
NtRp4433
(dp4434
g73
(dp4435
g100
g101
ssg82
g4424
sg75
(lp4436
S':'
asbag68
(g89
g70
NtRp4437
(dp4438
g73
(dp4439
sg82
g4424
sg75
(lp4440
g68
(g69
g70
NtRp4441
(dp4442
g73
(dp4443
g81
I5
ssg82
g4437
sg75
(lp4444
g68
(g77
g70
NtRp4445
(dp4446
g73
(dp4447
g81
I4
ssg82
Nsg75
(lp4448
g68
(g84
g70
NtRp4449
(dp4450
g73
(dp4451
sg82
g4445
sg75
(lp4452
g68
(g89
g70
NtRp4453
(dp4454
g73
(dp4455
g93
g94
ssg82
g4449
sg75
(lp4456
S'author'
p4457
asbag68
(g89
g70
NtRp4458
(dp4459
g73
(dp4460
g100
g101
ssg82
g4449
sg75
(lp4461
S':'
asbag68
(g89
g70
NtRp4462
(dp4463
g73
(dp4464
sg82
g4449
sg75
(lp4465
g68
(g69
g70
NtRp4466
(dp4467
g73
(dp4468
g81
I4
ssg82
g4462
sg75
(lp4469
S'Your Name <you@example.com>'
p4470
asbasbasbag68
(g84
g70
NtRp4471
(dp4472
g73
(dp4473
sg82
g4445
sg75
(lp4474
g68
(g89
g70
NtRp4475
(dp4476
g73
(dp4477
g93
g94
ssg82
g4471
sg75
(lp4478
S'copyright'
p4479
asbag68
(g89
g70
NtRp4480
(dp4481
g73
(dp4482
g100
g101
ssg82
g4471
sg75
(lp4483
S':'
asbag68
(g89
g70
NtRp4484
(dp4485
g73
(dp4486
sg82
g4471
sg75
(lp4487
g68
(g69
g70
NtRp4488
(dp4489
g73
(dp4490
g81
I4
ssg82
g4484
sg75
(lp4491
S'Copyright 2011'
p4492
asbasbasbag68
(g84
g70
NtRp4493
(dp4494
g73
(dp4495
sg82
g4445
sg75
(lp4496
g68
(g89
g70
NtRp4497
(dp4498
g73
(dp4499
g93
g94
ssg82
g4493
sg75
(lp4500
S'description'
p4501
asbag68
(g89
g70
NtRp4502
(dp4503
g73
(dp4504
g100
g101
ssg82
g4493
sg75
(lp4505
S':'
asbag68
(g89
g70
NtRp4506
(dp4507
g73
(dp4508
sg82
g4493
sg75
(lp4509
g68
(g69
g70
NtRp4510
(dp4511
g73
(dp4512
g81
I4
ssg82
g4506
sg75
(lp4513
S'a cool new app'
p4514
asbasbasbag68
(g84
g70
NtRp4515
(dp4516
g73
(dp4517
sg82
g4445
sg75
(lp4518
g68
(g89
g70
NtRp4519
(dp4520
g73
(dp4521
g93
g94
ssg82
g4515
sg75
(lp4522
S'generator'
p4523
asbag68
(g89
g70
NtRp4524
(dp4525
g73
(dp4526
g100
g101
ssg82
g4515
sg75
(lp4527
S':'
asbag68
(g89
g70
NtRp4528
(dp4529
g73
(dp4530
sg82
g4515
sg75
(lp4531
g68
(g69
g70
NtRp4532
(dp4533
g73
(dp4534
g81
I4
ssg82
g4528
sg75
(lp4535
S'Web2py Web Framework'
p4536
asbasbasbag68
(g84
g70
NtRp4537
(dp4538
g73
(dp4539
sg82
g4445
sg75
(lp4540
g68
(g89
g70
NtRp4541
(dp4542
g73
(dp4543
g93
g94
ssg82
g4537
sg75
(lp4544
S'keywords'
p4545
asbag68
(g89
g70
NtRp4546
(dp4547
g73
(dp4548
g100
g101
ssg82
g4537
sg75
(lp4549
S':'
asbag68
(g89
g70
NtRp4550
(dp4551
g73
(dp4552
sg82
g4537
sg75
(lp4553
g68
(g69
g70
NtRp4554
(dp4555
g73
(dp4556
g81
I4
ssg82
g4550
sg75
(lp4557
S'web2py, python, framework'
p4558
asbasbasbasbasbasbasbag68
(g84
g70
NtRp4559
(dp4560
g73
(dp4561
sg82
g3248
sg75
(lp4562
g68
(g89
g70
NtRp4563
(dp4564
g73
(dp4565
g93
g94
ssg82
g4559
sg75
(lp4566
S'postprocessing'
p4567
asbag68
(g89
g70
NtRp4568
(dp4569
g73
(dp4570
g100
g101
ssg82
g4559
sg75
(lp4571
S':'
asbag68
(g89
g70
NtRp4572
(dp4573
g73
(dp4574
sg82
g4559
sg75
(lp4575
g68
(g69
g70
NtRp4576
(dp4577
g73
(dp4578
g81
I5
ssg82
g4572
sg75
(lp4579
g68
(g77
g70
NtRp4580
(dp4581
g73
(dp4582
g81
I4
ssg82
Nsg75
(lp4583
sbasbasbasbag68
(g84
g70
NtRp4584
(dp4585
g73
(dp4586
sg82
g3248
sg75
(lp4587
g68
(g89
g70
NtRp4588
(dp4589
g73
(dp4590
g93
g94
ssg82
g4584
sg75
(lp4591
S'session_file'
p4592
asbag68
(g89
g70
NtRp4593
(dp4594
g73
(dp4595
g100
g101
ssg82
g4584
sg75
(lp4596
S':'
asbag68
(g89
g70
NtRp4597
(dp4598
g73
(dp4599
sg82
g4584
sg75
(lp4600
g68
(g69
g70
NtRp4601
(dp4602
g73
(dp4603
g81
I5
ssg82
g4597
sg75
(lp4604
S"<open file '/home/pooja/web2py/applications/newsapp/sessions/127.0.0.1-f56ccde5-80db-47cc-80e8-bbcc8cc05a92', mode 'rb+' at 0x7f486a3b3780>"
p4605
asbasbasbag68
(g84
g70
NtRp4606
(dp4607
g73
(dp4608
sg82
g3248
sg75
(lp4609
g68
(g89
g70
NtRp4610
(dp4611
g73
(dp4612
g93
g94
ssg82
g4606
sg75
(lp4613
S'session_filename'
p4614
asbag68
(g89
g70
NtRp4615
(dp4616
g73
(dp4617
g100
g101
ssg82
g4606
sg75
(lp4618
S':'
asbag68
(g89
g70
NtRp4619
(dp4620
g73
(dp4621
sg82
g4606
sg75
(lp4622
g68
(g69
g70
NtRp4623
(dp4624
g73
(dp4625
g81
I5
ssg82
g4619
sg75
(lp4626
S'/home/pooja/web2py/applications/newsapp/sessions/127.0.0.1-f56ccde5-80db-47cc-80e8-bbcc8cc05a92'
p4627
asbasbasbag68
(g84
g70
NtRp4628
(dp4629
g73
(dp4630
sg82
g3248
sg75
(lp4631
g68
(g89
g70
NtRp4632
(dp4633
g73
(dp4634
g93
g94
ssg82
g4628
sg75
(lp4635
S'session_id'
p4636
asbag68
(g89
g70
NtRp4637
(dp4638
g73
(dp4639
g100
g101
ssg82
g4628
sg75
(lp4640
S':'
asbag68
(g89
g70
NtRp4641
(dp4642
g73
(dp4643
sg82
g4628
sg75
(lp4644
g68
(g69
g70
NtRp4645
(dp4646
g73
(dp4647
g81
I5
ssg82
g4641
sg75
(lp4648
S'127.0.0.1-f56ccde5-80db-47cc-80e8-bbcc8cc05a92'
p4649
asbasbasbag68
(g84
g70
NtRp4650
(dp4651
g73
(dp4652
sg82
g3248
sg75
(lp4653
g68
(g89
g70
NtRp4654
(dp4655
g73
(dp4656
g93
g94
ssg82
g4650
sg75
(lp4657
S'session_id_name'
p4658
asbag68
(g89
g70
NtRp4659
(dp4660
g73
(dp4661
g100
g101
ssg82
g4650
sg75
(lp4662
S':'
asbag68
(g89
g70
NtRp4663
(dp4664
g73
(dp4665
sg82
g4650
sg75
(lp4666
g68
(g69
g70
NtRp4667
(dp4668
g73
(dp4669
g81
I5
ssg82
g4663
sg75
(lp4670
g3305
asbasbasbag68
(g84
g70
NtRp4671
(dp4672
g73
(dp4673
sg82
g3248
sg75
(lp4674
g68
(g89
g70
NtRp4675
(dp4676
g73
(dp4677
g93
g94
ssg82
g4671
sg75
(lp4678
S'session_locked'
p4679
asbag68
(g89
g70
NtRp4680
(dp4681
g73
(dp4682
g100
g101
ssg82
g4671
sg75
(lp4683
S':'
asbag68
(g89
g70
NtRp4684
(dp4685
g73
(dp4686
sg82
g4671
sg75
(lp4687
g68
(g69
g70
NtRp4688
(dp4689
g73
(dp4690
g81
I5
ssg82
g4684
sg75
(lp4691
g1667
asbasbasbag68
(g84
g70
NtRp4692
(dp4693
g73
(dp4694
sg82
g3248
sg75
(lp4695
g68
(g89
g70
NtRp4696
(dp4697
g73
(dp4698
g93
g94
ssg82
g4692
sg75
(lp4699
S'session_new'
p4700
asbag68
(g89
g70
NtRp4701
(dp4702
g73
(dp4703
g100
g101
ssg82
g4692
sg75
(lp4704
S':'
asbag68
(g89
g70
NtRp4705
(dp4706
g73
(dp4707
sg82
g4692
sg75
(lp4708
g68
(g69
g70
NtRp4709
(dp4710
g73
(dp4711
g81
I5
ssg82
g4705
sg75
(lp4712
g111
asbasbasbag68
(g84
g70
NtRp4713
(dp4714
g73
(dp4715
sg82
g3248
sg75
(lp4716
g68
(g89
g70
NtRp4717
(dp4718
g73
(dp4719
g93
g94
ssg82
g4713
sg75
(lp4720
S'status'
p4721
asbag68
(g89
g70
NtRp4722
(dp4723
g73
(dp4724
g100
g101
ssg82
g4713
sg75
(lp4725
S':'
asbag68
(g89
g70
NtRp4726
(dp4727
g73
(dp4728
sg82
g4713
sg75
(lp4729
g68
(g69
g70
NtRp4730
(dp4731
g73
(dp4732
g81
I5
ssg82
g4726
sg75
(lp4733
S'200'
p4734
asbasbasbag68
(g84
g70
NtRp4735
(dp4736
g73
(dp4737
sg82
g3248
sg75
(lp4738
g68
(g89
g70
NtRp4739
(dp4740
g73
(dp4741
g93
g94
ssg82
g4735
sg75
(lp4742
S'subtitle'
p4743
asbag68
(g89
g70
NtRp4744
(dp4745
g73
(dp4746
g100
g101
ssg82
g4735
sg75
(lp4747
S':'
asbag68
(g89
g70
NtRp4748
(dp4749
g73
(dp4750
sg82
g4735
sg75
(lp4751
g68
(g69
g70
NtRp4752
(dp4753
g73
(dp4754
g81
I5
ssg82
g4748
sg75
(lp4755
g3804
(S's\r\x00\x00\x00customize me!'
tRp4756
asbasbasbag68
(g84
g70
NtRp4757
(dp4758
g73
(dp4759
sg82
g3248
sg75
(lp4760
g68
(g89
g70
NtRp4761
(dp4762
g73
(dp4763
g93
g94
ssg82
g4757
sg75
(lp4764
S'title'
p4765
asbag68
(g89
g70
NtRp4766
(dp4767
g73
(dp4768
g100
g101
ssg82
g4757
sg75
(lp4769
S':'
asbag68
(g89
g70
NtRp4770
(dp4771
g73
(dp4772
sg82
g4757
sg75
(lp4773
g68
(g69
g70
NtRp4774
(dp4775
g73
(dp4776
g81
I5
ssg82
g4770
sg75
(lp4777
S'Newsapp'
p4778
asbasbasbag68
(g84
g70
NtRp4779
(dp4780
g73
(dp4781
sg82
g3248
sg75
(lp4782
g68
(g89
g70
NtRp4783
(dp4784
g73
(dp4785
g93
g94
ssg82
g4779
sg75
(lp4786
g2331
asbag68
(g89
g70
NtRp4787
(dp4788
g73
(dp4789
g100
g101
ssg82
g4779
sg75
(lp4790
S':'
asbag68
(g89
g70
NtRp4791
(dp4792
g73
(dp4793
sg82
g4779
sg75
(lp4794
g68
(g69
g70
NtRp4795
(dp4796
g73
(dp4797
g81
I5
ssg82
g4791
sg75
(lp4798
g2344
asbasbasbag68
(g84
g70
NtRp4799
(dp4800
g73
(dp4801
sg82
g3248
sg75
(lp4802
g68
(g89
g70
NtRp4803
(dp4804
g73
(dp4805
g93
g94
ssg82
g4799
sg75
(lp4806
S'view'
p4807
asbag68
(g89
g70
NtRp4808
(dp4809
g73
(dp4810
g100
g101
ssg82
g4799
sg75
(lp4811
S':'
asbag68
(g89
g70
NtRp4812
(dp4813
g73
(dp4814
sg82
g4799
sg75
(lp4815
g68
(g69
g70
NtRp4816
(dp4817
g73
(dp4818
g81
I5
ssg82
g4812
sg75
(lp4819
S'default/index.html'
p4820
asbasbasbasbasbsS'locals'
p4821
(dp4822
g4
S"'/home/pooja/web2py/applications/newsapp/controllers/default.py'"
p4823
sg6
S"'import urllib,urllib2\\nfrom urlparse import *\\nimp...n dict()\\n\\nresponse._vars=response._caller(index)\\n'"
p4824
sssS'traceback'
p4825
S'Traceback (most recent call last):\n  File "/usr/lib/pymodules/python2.7/gluon/restricted.py", line 204, in restricted\n    ccode = compile2(code,layer)\n  File "/usr/lib/pymodules/python2.7/gluon/restricted.py", line 189, in compile2\n    return compile(code.rstrip().replace(\'\\r\\n\',\'\\n\')+\'\\n\', layer, \'exec\')\n  File "/home/pooja/web2py/applications/newsapp/controllers/default.py", line 64\n    return dict(content = data)\n    ^\nIndentationError: unexpected indent\n'
p4826
s.